 gameaxp

 Timestamp is 5fc372b1 (Sun Nov 29 13:06:41 2020)

 Preferred load address is 10000000

 Start         Length     Name                   Class
 0001:00000000 0019b460H .text                   CODE
 0001:0019b460 00001187H .text$x                 CODE
 0002:00000000 00000104H .CRT$XCA                DATA
 0002:00000104 00000104H .CRT$XCZ                DATA
 0002:00000208 00000104H .CRT$XIA                DATA
 0002:0000030c 00000118H .CRT$XIC                DATA
 0002:00000424 00000104H .CRT$XIZ                DATA
 0002:00000528 00000104H .CRT$XPA                DATA
 0002:0000062c 00000109H .CRT$XPX                DATA
 0002:00000738 00000104H .CRT$XPXA               DATA
 0002:0000083c 00000104H .CRT$XPZ                DATA
 0002:00000940 00000104H .CRT$XTA                DATA
 0002:00000a44 00000104H .CRT$XTZ                DATA
 0002:00000b50 00020dadH .rdata                  DATA
 0002:00021900 0000016cH .rdata$debug            DATA
 0002:00021a6c 0000031eH .rdata$r                DATA
 0002:00021d90 00000139H .rdata$sxdata           DATA
 0002:00021ecc 00000104H .rtc$IAA                DATA
 0002:00021fd0 00000104H .rtc$IZZ                DATA
 0002:000220d4 00000104H .rtc$TAA                DATA
 0002:000221d8 00000104H .rtc$TZZ                DATA
 0002:000222e0 00001313H .xdata$x                DATA
 0002:00023600 00000157H .edata                  DATA
 0003:00000000 00042dafH .data                   DATA
 0003:00042dc0 00054888H .bss                    DATA
 0004:00000000 00000014H .idata$2                DATA
 0004:00000014 00000014H .idata$3                DATA
 0004:00000028 00000200H .idata$4                DATA
 0004:00000228 00000200H .idata$5                DATA
 0004:00000428 000008c9H .idata$6                DATA
 0005:00000000 0000026cH .rsrc$01                DATA
 0005:00000270 00000f70H .rsrc$02                DATA

  Address         Publics by Value              Rva+Base       Lib:Object

 0000:00000000       __except_list              00000000     <absolute>
 0000:0000000c       ___safe_se_handler_count   0000000c     <absolute>
 0000:00000000       ___ImageBase               10000000     <linker-defined>
 0001:00005b00       _DBall_CheckDMRules        10006b00 f   dm_ball.obj
 0001:00005b90       _DBall_ClientBegin         10006b90 f   dm_ball.obj
 0001:00005d50       _DBall_SelectSpawnPoint    10006d50 f   dm_ball.obj
 0001:00005ec0       _DBall_GameInit            10006ec0 f   dm_ball.obj
 0001:00005f70       _DBall_PostInitSetup       10006f70 f   dm_ball.obj
 0001:00006020       _DBall_ChangeDamage        10007020 f   dm_ball.obj
 0001:00006050       _DBall_ChangeKnockback     10007050 f   dm_ball.obj
 0001:000061a0       _DBall_GoalTouch           100071a0 f   dm_ball.obj
 0001:000064d0       _PickBallStart             100074d0 f   dm_ball.obj
 0001:00006580       _DBall_BallTouch           10007580 f   dm_ball.obj
 0001:000066c0       _DBall_BallPain            100076c0 f   dm_ball.obj
 0001:000066f0       _DBall_BallDie             100076f0 f   dm_ball.obj
 0001:000067d0       _DBall_BallRespawn         100077d0 f   dm_ball.obj
 0001:00006920       _DBall_SpeedTouch          10007920 f   dm_ball.obj
 0001:00006a40       _SP_dm_dball_ball          10007a40 f   dm_ball.obj
 0001:00006bb0       _SP_dm_dball_team1_start   10007bb0 f   dm_ball.obj
 0001:00006c10       _SP_dm_dball_team2_start   10007c10 f   dm_ball.obj
 0001:00006c70       _SP_dm_dball_ball_start    10007c70 f   dm_ball.obj
 0001:00006cd0       _SP_dm_dball_speed_change  10007cd0 f   dm_ball.obj
 0001:00006e30       _SP_dm_dball_goal          10007e30 f   dm_ball.obj
 0001:00007460       _Tag_PlayerDeath           10008460 f   dm_tag.obj
 0001:000074b0       _Tag_KillItBonus           100084b0 f   dm_tag.obj
 0001:00007570       _Tag_PlayerDisconnect      10008570 f   dm_tag.obj
 0001:000075c0       _Tag_Score                 100085c0 f   dm_tag.obj
 0001:00007750       _Tag_PickupToken           10008750 f   dm_tag.obj
 0001:00007800       _Tag_Respawn               10008800 f   dm_tag.obj
 0001:00007860       _Tag_MakeTouchable         10008860 f   dm_tag.obj
 0001:000078d0       _Tag_DropToken             100088d0 f   dm_tag.obj
 0001:00007ba0       _Tag_PlayerEffects         10008ba0 f   dm_tag.obj
 0001:00007bd0       _Tag_DogTag                10008bd0 f   dm_tag.obj
 0001:00007bf0       _Tag_ChangeDamage          10008bf0 f   dm_tag.obj
 0001:00007c20       _Tag_GameInit              10008c20 f   dm_tag.obj
 0001:00007c50       _Tag_PostInitSetup         10008c50 f   dm_tag.obj
 0001:00007d10       _SP_dm_tag_token           10008d10 f   dm_tag.obj
 0001:00008020       _AI_SetSightClient         10009020 f   g_ai.obj
 0001:00008120       _ai_move                   10009120 f   g_ai.obj
 0001:00008150       _ai_stand                  10009150 f   g_ai.obj
 0001:00008750       _ai_walk                   10009750 f   g_ai.obj
 0001:00008880       _ai_charge                 10009880 f   g_ai.obj
 0001:00008ac0       _ai_turn                   10009ac0 f   g_ai.obj
 0001:00008b30       _range                     10009b30 f   g_ai.obj
 0001:00008bd0       _visible                   10009bd0 f   g_ai.obj
 0001:00008e40       _infront                   10009e40 f   g_ai.obj
 0001:00008ed0       _canReach                  10009ed0 f   g_ai.obj
 0001:00008fb0       _HuntTarget                10009fb0 f   g_ai.obj
 0001:00009090       _FoundTarget               1000a090 f   g_ai.obj
 0001:000093f0       _FindTarget                1000a3f0 f   g_ai.obj
 0001:00009b80       _FacingIdeal               1000ab80 f   g_ai.obj
 0001:00009be0       _M_CheckAttack             1000abe0 f   g_ai.obj
 0001:0000a180       _ai_run_melee              1000b180 f   g_ai.obj
 0001:0000a1e0       _ai_run_missile            1000b1e0 f   g_ai.obj
 0001:0000a260       _ai_run_slide              1000b260 f   g_ai.obj
 0001:0000a3d0       _ai_checkattack            1000b3d0 f   g_ai.obj
 0001:0000aa30       _ai_run                    1000ba30 f   g_ai.obj
 0001:0000ba80       _ai_chicken                1000ca80 f   g_ai.obj
 0001:0000d0d0       _camera_off                1000e0d0 f   g_camera.obj
 0001:0000d490       _faker_animate             1000e490 f   g_camera.obj
 0001:0000d500       _camera_on                 1000e500 f   g_camera.obj
 0001:0000da60       _G_FindNextCamera          1000ea60 f   g_camera.obj
 0001:0000de20       _G_FindPrevCamera          1000ee20 f   g_camera.obj
 0001:0000e130       _use_camera                1000f130 f   g_camera.obj
 0001:0000e240       _func_monitor_init         1000f240 f   g_camera.obj
 0001:0000e2b0       _SP_func_monitor           1000f2b0 f   g_camera.obj
 0001:0000e850       _UpdateChaseCam            1000f850 f   g_chase.obj
 0001:0000eda0       _ChaseNext                 1000fda0 f   g_chase.obj
 0001:0000ee60       _ChasePrev                 1000fe60 f   g_chase.obj
 0001:0000ef20       _GetChaseTarget            1000ff20 f   g_chase.obj
 0001:0000f1a0       _ClientTeam                100101a0 f   g_cmds.obj
 0001:0000f240       _OnSameTeam                10010240 f   g_cmds.obj
 0001:0000f2e0       _SelectNextItem            100102e0 f   g_cmds.obj
 0001:0000f3e0       _SelectPrevItem            100103e0 f   g_cmds.obj
 0001:0000f4f0       _ValidateSelectedItem      100104f0 f   g_cmds.obj
 0001:0000f530       _Cmd_Give_f                10010530 f   g_cmds.obj
 0001:0000fb70       _Cmd_God_f                 10010b70 f   g_cmds.obj
 0001:0000fc00       _Cmd_Notarget_f            10010c00 f   g_cmds.obj
 0001:0000fc90       _Cmd_Noclip_f              10010c90 f   g_cmds.obj
 0001:0000fd40       _Cmd_Use_f                 10010d40 f   g_cmds.obj
 0001:0000fef0       _Cmd_Drop_f                10010ef0 f   g_cmds.obj
 0001:0000ffb0       _Cmd_Inven_f               10010fb0 f   g_cmds.obj
 0001:000100c0       _Cmd_InvUse_f              100110c0 f   g_cmds.obj
 0001:000101b0       _Cmd_WeapPrev_f            100111b0 f   g_cmds.obj
 0001:00010290       _Cmd_WeapNext_f            10011290 f   g_cmds.obj
 0001:00010360       _Cmd_WeapLast_f            10011360 f   g_cmds.obj
 0001:00010400       _Cmd_InvDrop_f             10011400 f   g_cmds.obj
 0001:00010490       _Cmd_Kill_f                10011490 f   g_cmds.obj
 0001:00010560       _Cmd_PutAway_f             10011560 f   g_cmds.obj
 0001:000105d0       _PlayerSort                100115d0 f   g_cmds.obj
 0001:00010640       _Cmd_Players_f             10011640 f   g_cmds.obj
 0001:00010810       _Cmd_Wave_f                10011810 f   g_cmds.obj
 0001:00010990       _Cmd_Say_f                 10011990 f   g_cmds.obj
 0001:00010d50       _Cmd_Ent_Count_f           10011d50 f   g_cmds.obj
 0001:00010dc0       _Cmd_PlayerList_f          10011dc0 f   g_cmds.obj
 0001:00010fb0       _DrawBBox                  10011fb0 f   g_cmds.obj
 0001:000115a0       _Cmd_Bbox_f                100125a0 f   g_cmds.obj
 0001:000115e0       _SetLazarusCrosshair       100125e0 f   g_cmds.obj
 0001:000116b0       _SetSensitivities          100126b0 f   g_cmds.obj
 0001:00011920       _decoy_die                 10012920 f   g_cmds.obj
 0001:00011940       _decoy_think               10012940 f   g_cmds.obj
 0001:00011a90       _forcewall_think           10012a90 f   g_cmds.obj
 0001:00011b10       _SpawnForcewall            10012b10 f   g_cmds.obj
 0001:00011f80       _ForcewallOff              10012f80 f   g_cmds.obj
 0001:000120a0       _Restart_FMOD              100130a0 f   g_cmds.obj
 0001:000120c0       _ClientCommand             100130c0 f   g_cmds.obj
 0001:00014000       _cleanupHealTarget         10015000 f   g_combat.obj
 0001:00014050       _CanDamage                 10015050 f   g_combat.obj
 0001:000143f0       _Killed                    100153f0 f   g_combat.obj
 0001:00014730       _SpawnDamage               10015730 f   g_combat.obj
 0001:00014790       _DefendMyFriend            10015790 f   g_combat.obj
 0001:000147e0       _CallMyFriends             100157e0 f   g_combat.obj
 0001:00014d80       _M_ReactToDamage           10015d80 f   g_combat.obj
 0001:00015c50       _CheckTeamDamage           10016c50 f   g_combat.obj
 0001:00015c60       _T_Damage                  10016c60 f   g_combat.obj
 0001:00017030       _T_RadiusDamage            10018030 f   g_combat.obj
 0001:00017220       _T_RadiusNukeDamage        10018220 f   g_combat.obj
 0001:00017660       _T_RadiusClassDamage       10018660 f   g_combat.obj
 0001:00018620       _moving_speaker_think      10019620 f   g_crane.obj
 0001:000188a0       _CrateOnTop                100198a0 f   g_crane.obj
 0001:000189f0       _Cargo_Stop                100199f0 f   g_crane.obj
 0001:00018b30       _cargo_blocked             10019b30 f   g_crane.obj
 0001:00018c00       _Cargo_Float_Up            10019c00 f   g_crane.obj
 0001:00018cb0       _SetCableLength            10019cb0 f   g_crane.obj
 0001:00018d60       _SetSpotlightLength        10019d60 f   g_crane.obj
 0001:00018e30       _Cable_Think               10019e30 f   g_crane.obj
 0001:00018e70       _crane_light_off           10019e70 f   g_crane.obj
 0001:00018e90       _Crane_Move_Done           10019e90 f   g_crane.obj
 0001:00019130       _Crane_Stop                1001a130 f   g_crane.obj
 0001:000191c0       _Crane_Hook_Bonk           1001a1c0 f   g_crane.obj
 0001:00019840       _Crane_blocked             1001a840 f   g_crane.obj
 0001:000199b0       _Crane_Move_Final          1001a9b0 f   g_crane.obj
 0001:00019c20       _Crane_Move_Begin          1001ac20 f   g_crane.obj
 0001:00019e60       _G_FindCraneParts          1001ae60 f   g_crane.obj
 0001:0001aef0       _Crane_AdjustSpeed         1001bef0 f   g_crane.obj
 0001:0001af80       _crane_control_action      1001bf80 f   g_crane.obj
 0001:0001d0c0       _Use_Crane_Control         1001e0c0 f   g_crane.obj
 0001:0001d120       _SP_crane_control          1001e120 f   g_crane.obj
 0001:0001d1c0       _SP_crane_hook             1001e1c0 f   g_crane.obj
 0001:0001d490       _SP_crane_hoist            1001e490 f   g_crane.obj
 0001:0001d7a0       _SP_crane_beam             1001e7a0 f   g_crane.obj
 0001:0001dae0       _crane_reset_go            1001eae0 f   g_crane.obj
 0001:0001db90       _crane_reset_use           1001eb90 f   g_crane.obj
 0001:0001e490       _SP_crane_reset            1001f490 f   g_crane.obj
 0001:0001fcd0       _Fog_Off                   10020cd0 f   g_fog.obj
 0001:0001fd80       _Fog_ConsoleFog            10020d80 f   g_fog.obj
 0001:0001fe30       _Cmd_Fog_f                 10020e30 f   g_fog.obj
 0001:00020770       _GLFog                     10021770 f   g_fog.obj
 0001:00020880       _trig_fog_fade             10021880 f   g_fog.obj
 0001:00020a30       _init_trigger_fog_delay    10021a30 f   g_fog.obj
 0001:00020c60       _Fog                       10021c60 f   g_fog.obj
 0001:00021100       _Fog_Init                  10022100 f   g_fog.obj
 0001:00021280       _fog_fade                  10022280 f   g_fog.obj
 0001:00021460       _target_fog_use            10022460 f   g_fog.obj
 0001:00021890       _SP_target_fog             10022890 f   g_fog.obj
 0001:00021b60       _trigger_fog_use           10022b60 f   g_fog.obj
 0001:00021bf0       _SP_trigger_fog            10022bf0 f   g_fog.obj
 0001:00021ee0       _SP_trigger_fog_bbox       10022ee0 f   g_fog.obj
 0001:00022c40       _Move_pos0_Final           10023c40 f   g_func.obj
 0001:00022da0       _Move_pos0_Think           10023da0 f   g_func.obj
 0001:00022f00       _Move_pos1_Final           10023f00 f   g_func.obj
 0001:00023060       _Move_pos1_Think           10024060 f   g_func.obj
 0001:000231c0       _Move_pos2_Final           100241c0 f   g_func.obj
 0001:00023320       _Move_pos2_Think           10024320 f   g_func.obj
 0001:00023480       _Move_Done                 10024480 f   g_func.obj
 0001:00023530       _Move_Final                10024530 f   g_func.obj
 0001:00023640       _Move_Begin                10024640 f   g_func.obj
 0001:00023a70       _Move_Calc                 10024a70 f   g_func.obj
 0001:00023cf0       _Spline_Calc               10024cf0 f   g_func.obj
 0001:00023f60       _Train_Move_Spline         10024f60 f   g_func.obj
 0001:000242e0       _check_reverse_rotation    100252e0 f   g_func.obj
 0001:000245e0       _AngleMove_Done            100255e0 f   g_func.obj
 0001:00024630       _AngleMove_Final           10025630 f   g_func.obj
 0001:00024720       _AngleMove_Begin           10025720 f   g_func.obj
 0001:000248f0       _AngleMove_Calc            100258f0 f   g_func.obj
 0001:000249b0       _plat_CalcAcceleratedMove  100259b0 f   g_func.obj
 0001:00024ae0       _plat_Accelerate           10025ae0 f   g_func.obj
 0001:00024ce0       _Think_AccelMove           10025ce0 f   g_func.obj
 0001:00024e30       _plat_hit_top              10025e30 f   g_func.obj
 0001:00024ec0       _plat_hit_bottom           10025ec0 f   g_func.obj
 0001:00024f40       _plat_go_down              10025f40 f   g_func.obj
 0001:00024fe0       _plat_go_up                10025fe0 f   g_func.obj
 0001:00025090       _plat_blocked              10026090 f   g_func.obj
 0001:000251a0       _Use_Plat                  100261a0 f   g_func.obj
 0001:00025210       _Touch_Plat_Center         10026210 f   g_func.obj
 0001:00025280       _plat_spawn_inside_trigger 10026280 f   g_func.obj
 0001:00025480       _SP_func_plat              10026480 f   g_func.obj
 0001:00025980       _plat2_spawn_danger_area   10026980 f   g_func.obj
 0001:00025a00       _plat2_kill_danger_area    10026a00 f   g_func.obj
 0001:00025a50       _plat2_hit_top             10026a50 f   g_func.obj
 0001:00025be0       _plat2_hit_bottom          10026be0 f   g_func.obj
 0001:00025d80       _plat2_go_down             10026d80 f   g_func.obj
 0001:00025e30       _plat2_go_up               10026e30 f   g_func.obj
 0001:00025ef0       _plat2_operate             10026ef0 f   g_func.obj
 0001:000260a0       _Touch_Plat_Center2        100270a0 f   g_func.obj
 0001:000260e0       _plat2_blocked             100270e0 f   g_func.obj
 0001:000261f0       _Use_Plat2                 100271f0 f   g_func.obj
 0001:000262a0       _plat2_activate            100272a0 f   g_func.obj
 0001:00026350       _SP_func_plat2             10027350 f   g_func.obj
 0001:00026930       _rotating_accel            10027930 f   g_func.obj
 0001:00026a00       _rotating_decel            10027a00 f   g_func.obj
 0001:00026ad0       _rotating_blocked          10027ad0 f   g_func.obj
 0001:00026b10       _rotating_touch            10027b10 f   g_func.obj
 0001:00026b90       _rotating_use              10027b90 f   g_func.obj
 0001:00026cb0       _SP_func_rotating          10027cb0 f   g_func.obj
 0001:00026fa0       _func_rotating_dh_init     10027fa0 f   g_func.obj
 0001:00027000       _SP_func_rotating_dh       10028000 f   g_func.obj
 0001:00027050       _button_done               10028050 f   g_func.obj
 0001:00027090       _button_return             10028090 f   g_func.obj
 0001:000270e0       _button_wait               100280e0 f   g_func.obj
 0001:00027180       _button_fire               10028180 f   g_func.obj
 0001:00027220       _button_use                10028220 f   g_func.obj
 0001:00027240       _button_touch              10028240 f   g_func.obj
 0001:00027280       _button_killed             10028280 f   g_func.obj
 0001:000272c0       _SP_func_button            100282c0 f   g_func.obj
 0001:00027730       _trainbutton_done          10028730 f   g_func.obj
 0001:00027770       _trainbutton_return        10028770 f   g_func.obj
 0001:000277d0       _trainbutton_wait          100287d0 f   g_func.obj
 0001:00027870       _trainbutton_fire          10028870 f   g_func.obj
 0001:00027900       _trainbutton_use           10028900 f   g_func.obj
 0001:00027920       _trainbutton_touch         10028920 f   g_func.obj
 0001:00027960       _trainbutton_killed        10028960 f   g_func.obj
 0001:000279a0       _SP_func_trainbutton       100289a0 f   g_func.obj
 0001:00027b50       _door_use_areaportals      10028b50 f   g_func.obj
 0001:00027bd0       _swinging_door_reset       10028bd0 f   g_func.obj
 0001:00027d50       _door_hit_top              10028d50 f   g_func.obj
 0001:00027eb0       _door_hit_bottom           10028eb0 f   g_func.obj
 0001:00027f70       _door_go_down              10028f70 f   g_func.obj
 0001:000280f0       _door_go_up                100290f0 f   g_func.obj
 0001:000282b0       _smart_water_go_up         100292b0 f   g_func.obj
 0001:000285b0       _door_use                  100295b0 f   g_func.obj
 0001:00028730       _Touch_DoorTrigger         10029730 f   g_func.obj
 0001:000287d0       _Think_CalcMoveSpeed       100297d0 f   g_func.obj
 0001:00028950       _Think_SpawnDoorTrigger    10029950 f   g_func.obj
 0001:00028b50       _door_blocked              10029b50 f   g_func.obj
 0001:00028ca0       _door_destroyed            10029ca0 f   g_func.obj
 0001:00028cf0       _door_killed               10029cf0 f   g_func.obj
 0001:00028d60       _door_touch                10029d60 f   g_func.obj
 0001:00028df0       _SP_func_door              10029df0 f   g_func.obj
 0001:000294f0       _Door_Activate             1002a4f0 f   g_func.obj
 0001:00029580       _SP_func_door_rotating     1002a580 f   g_func.obj
 0001:00029cc0       _func_door_rot_dh_init     1002acc0 f   g_func.obj
 0001:00029dd0       _SP_func_door_rot_dh       1002add0 f   g_func.obj
 0001:00029e20       _smart_water_blocked       1002ae20 f   g_func.obj
 0001:00029ec0       _SP_func_water             1002aec0 f   g_func.obj
 0001:0002a390       _train_move_prox           1002b390 f   g_func.obj
 0001:0002a430       _train_move_children       1002b430 f   g_func.obj
 0001:0002c370       _train_kill_children       1002d370 f   g_func.obj
 0001:0002c4c0       _train_remove_children     1002d4c0 f   g_func.obj
 0001:0002c580       _fade_children             1002d580 f   g_func.obj
 0001:0002c6d0       _fade_child                1002d6d0 f   g_func.obj
 0001:0002c740       _train_blocked             1002d740 f   g_func.obj
 0001:0002c8a0       _train_wait                1002d8a0 f   g_func.obj
 0001:0002cd60       _train_piece_wait          1002dd60 f   g_func.obj
 0001:0002cd70       _train_children_think      1002dd70 f   g_func.obj
 0001:0002cdd0       _train_rotate              1002ddd0 f   g_func.obj
 0001:0002d520       _train_next                1002e520 f   g_func.obj
 0001:0002ddf0       _train_resume              1002edf0 f   g_func.obj
 0001:0002df70       _func_train_find           1002ef70 f   g_func.obj
 0001:0002e510       _train_use                 1002f510 f   g_func.obj
 0001:0002e6c0       _SP_func_train             1002f6c0 f   g_func.obj
 0001:0002ede0       _trigger_elevator_use      1002fde0 f   g_func.obj
 0001:0002ee80       _trigger_elevator_init     1002fe80 f   g_func.obj
 0001:0002ef40       _SP_trigger_elevator       1002ff40 f   g_func.obj
 0001:0002ef80       _func_timer_think          1002ff80 f   g_func.obj
 0001:0002eff0       _func_timer_use            1002fff0 f   g_func.obj
 0001:0002f060       _SP_func_timer             10030060 f   g_func.obj
 0001:0002f190       _func_conveyor_use         10030190 f   g_func.obj
 0001:0002f250       _SP_func_conveyor          10030250 f   g_func.obj
 0001:0002f340       _door_secret_use           10030340 f   g_func.obj
 0001:0002f440       _door_secret_move1         10030440 f   g_func.obj
 0001:0002f4c0       _door_secret_move2         100304c0 f   g_func.obj
 0001:0002f560       _door_secret_move3         10030560 f   g_func.obj
 0001:0002f600       _door_secret_move4         10030600 f   g_func.obj
 0001:0002f6a0       _door_secret_move5         100306a0 f   g_func.obj
 0001:0002f720       _door_secret_move6         10030720 f   g_func.obj
 0001:0002f7c0       _door_secret_done          100307c0 f   g_func.obj
 0001:0002f860       _door_secret_blocked       10030860 f   g_func.obj
 0001:0002f940       _door_secret_die           10030940 f   g_func.obj
 0001:0002f970       _SP_func_door_secret       10030970 f   g_func.obj
 0001:0002fea0       _use_killbox               10030ea0 f   g_func.obj
 0001:0002fec0       _SP_func_killbox           10030ec0 f   g_func.obj
 0001:0002ff10       _box_movestep              10030f10 f   g_func.obj
 0001:000301e0       _box_die                   100311e0 f   g_func.obj
 0001:00030260       _box_use                   10031260 f   g_func.obj
 0001:000302a0       _box_walkmove              100312a0 f   g_func.obj
 0001:00030330       _box_water_friction        10031330 f   g_func.obj
 0001:000304b0       _box_touch                 100314b0 f   g_func.obj
 0001:00031190       _func_pushable_spawn       10032190 f   g_func.obj
 0001:000311f0       _SP_func_pushable          100321f0 f   g_func.obj
 0001:00031780       _swinging_door_killed      10032780 f   g_func.obj
 0001:000319a0       _func_door_swinging_init   100329a0 f   g_func.obj
 0001:00031b70       _SP_func_door_swinging     10032b70 f   g_func.obj
 0001:00031cd0       _bob_think                 10032cd0 f   g_func.obj
 0001:00031dd0       _bob_init                  10032dd0 f   g_func.obj
 0001:00031e10       _SP_func_bobbingwater      10032e10 f   g_func.obj
 0001:00032310       _pivot_blocked             10033310 f   g_func.obj
 0001:00032350       _pivot_stop                10033350 f   g_func.obj
 0001:00032390       _pivot_touch               10033390 f   g_func.obj
 0001:00032620       _pivot_init                10033620 f   g_func.obj
 0001:00032a40       _SP_func_pivot             10033a40 f   g_func.obj
 0001:00036ac0       _GetItemByIndex            10037ac0 f   g_items.obj
 0001:00036af0       _FindItemByClassname       10037af0 f   g_items.obj
 0001:00036b50       _FindItem                  10037b50 f   g_items.obj
 0001:00036bc0       _DoRespawn                 10037bc0 f   g_items.obj
 0001:00036cd0       _SetRespawn                10037cd0 f   g_items.obj
 0001:00036d40       _Pickup_Powerup            10037d40 f   g_items.obj
 0001:00037110       _Drop_General              10038110 f   g_items.obj
 0001:00037170       _Drop_Jetpack              10038170 f   g_items.obj
 0001:000372b0       _Pickup_Adrenaline         100382b0 f   g_items.obj
 0001:00037350       _Pickup_AncientHead        10038350 f   g_items.obj
 0001:000373c0       _Pickup_Bandolier          100383c0 f   g_items.obj
 0001:000376f0       _Pickup_Pack               100386f0 f   g_items.obj
 0001:00037fb0       _Pickup_Nuke               10038fb0 f   g_items.obj
 0001:00038090       _Pickup_Nbomb              10039090 f   g_items.obj
 0001:00038170       _Use_IR                    10039170 f   g_items.obj
 0001:00038260       _Use_Double                10039260 f   g_items.obj
 0001:00038380       _Use_Flashlight            10039380 f   g_items.obj
 0001:00038430       _Use_Compass               10039430 f   g_items.obj
 0001:000384a0       _Use_Nuke                  100394a0 f   g_items.obj
 0001:00038560       _Use_Nbomb                 10039560 f   g_items.obj
 0001:00038620       _Use_Doppleganger          10039620 f   g_items.obj
 0001:00038760       _Pickup_Doppleganger       10039760 f   g_items.obj
 0001:00038830       _Pickup_Sphere             10039830 f   g_items.obj
 0001:000389d0       _Use_Defender              100399d0 f   g_items.obj
 0001:00038a60       _Use_Hunter                10039a60 f   g_items.obj
 0001:00038af0       _Use_Vengeance             10039af0 f   g_items.obj
 0001:00038b80       _Use_Quad                  10039b80 f   g_items.obj
 0001:00038c90       _Use_QuadFire              10039c90 f   g_items.obj
 0001:00038da0       _Use_Breather              10039da0 f   g_items.obj
 0001:00038e60       _Use_Envirosuit            10039e60 f   g_items.obj
 0001:00038f20       _Use_Invulnerability       10039f20 f   g_items.obj
 0001:00039010       _Use_Silencer              1003a010 f   g_items.obj
 0001:00039090       _Pickup_Key                1003a090 f   g_items.obj
 0001:00039210       _Add_Ammo                  1003a210 f   g_items.obj
 0001:00039460       _SetAmmoPickupValues       1003a460 f   g_items.obj
 0001:000396e0       _Pickup_Ammo               1003a6e0 f   g_items.obj
 0001:00039860       _Drop_Ammo                 1003a860 f   g_items.obj
 0001:00039970       _MegaHealth_think          1003a970 f   g_items.obj
 0001:00039a20       _Pickup_Health             1003aa20 f   g_items.obj
 0001:00039bc0       _ArmorIndex                1003abc0 f   g_items.obj
 0001:00039c30       _Pickup_Armor              1003ac30 f   g_items.obj
 0001:00039e80       _PowerArmorType            1003ae80 f   g_items.obj
 0001:00039ed0       _Use_PowerArmor            1003aed0 f   g_items.obj
 0001:0003a2d0       _Pickup_PowerArmor         1003b2d0 f   g_items.obj
 0001:0003a3e0       _Drop_PowerArmor           1003b3e0 f   g_items.obj
 0001:0003a490       _Touch_Item                1003b490 f   g_items.obj
 0001:0003a7f0       _Item_Die                  1003b7f0 f   g_items.obj
 0001:0003a810       _Drop_Item                 1003b810 f   g_items.obj
 0001:0003ac00       _Use_Item                  1003bc00 f   g_items.obj
 0001:0003ac80       _droptofloor               1003bc80 f   g_items.obj
 0001:0003b070       _PrecacheItem              1003c070 f   g_items.obj
 0001:0003b290       _Item_TriggeredSpawn       1003c290 f   g_items.obj
 0001:0003b2f0       _SetTriggeredSpawn         1003c2f0 f   g_items.obj
 0001:0003b360       _SpawnItem                 1003c360 f   g_items.obj
 0001:0003b730       _SP_item_health            1003c730 f   g_items.obj
 0001:0003b7b0       _SP_item_health_small      1003c7b0 f   g_items.obj
 0001:0003b850       _SP_item_health_large      1003c850 f   g_items.obj
 0001:0003b8d0       _SP_item_health_mega       1003c8d0 f   g_items.obj
 0001:0003b960       _SP_item_foodcube          1003c960 f   g_items.obj
 0001:0003ba10       _InitItems                 1003ca10 f   g_items.obj
 0001:0003ba20       _SetItemNames              1003ca20 f   g_items.obj
 0001:0003bd60       _Use_Jet                   1003cd60 f   g_items.obj
 0001:0003bed0       _Use_Stasis                1003ced0 f   g_items.obj
 0001:0003bf90       _SP_xatrix_item            1003cf90 f   g_items.obj
 0001:0003d6b0       _Jet_AvoidGround           1003e6b0 f   g_jetpack.obj
 0001:0003d790       _Jet_BecomeExplosion       1003e790 f   g_jetpack.obj
 0001:0003d810       _Jet_ApplyLifting          1003e810 f   g_jetpack.obj
 0001:0003d980       _Jet_ApplySparks           1003e980 f   g_jetpack.obj
 0001:0003da50       _Jet_ApplyJet              1003ea50 f   g_jetpack.obj
 0001:0003e250       _Lights                    1003f250 f   g_lights.obj
 0001:0003e480       _ToggleLights              1003f480 f   g_lights.obj
 0001:0003e4c0       _target_lightswitch_toggle 1003f4c0 f   g_lights.obj
 0001:0003e510       _use_target_lightswitch    1003f510 f   g_lights.obj
 0001:0003e570       _SP_target_lightswitch     1003f570 f   g_lights.obj
 0001:0003e7c0       _SP_target_lock_digit      1003f7c0 f   g_lock.obj
 0001:0003e810       _target_lock_use           1003f810 f   g_lock.obj
 0001:0003e980       _lock_digit_increment      1003f980 f   g_lock.obj
 0001:0003e9b0       _lock_initialize           1003f9b0 f   g_lock.obj
 0001:0003ec10       _SP_target_lock            1003fc10 f   g_lock.obj
 0001:0003ecc0       _lock_code_use             1003fcc0 f   g_lock.obj
 0001:0003ee50       _SP_target_lock_code       1003fe50 f   g_lock.obj
 0001:0003eea0       _lock_clue_use             1003fea0 f   g_lock.obj
 0001:0003f000       _lock_clue_think           10040000 f   g_lock.obj
 0001:0003f0e0       _lock_clue_initialize      100400e0 f   g_lock.obj
 0001:0003f180       _SP_target_lock_clue       10040180 f   g_lock.obj
 0001:0003f490       _ShutdownGame              10040490 f   g_main.obj
 0001:0003f510       _Debug_Modelindex          10040510 f   g_main.obj
 0001:0003f560       _Debug_Soundindex          10040560 f   g_main.obj
 0001:0003f5b0       _GetGameAPI                100405b0 f   g_main.obj
 0001:0003f760       _Sys_Error                 10040760 f   g_main.obj
 0001:0003f7d0       _Com_Printf                100407d0 f   g_main.obj
 0001:0003f840       _ClientEndServerFrames     10040840 f   g_main.obj
 0001:0003f8b0       _CreateTargetChangeLevel   100408b0 f   g_main.obj
 0001:0003f900       _EndDMLevel                10040900 f   g_main.obj
 0001:0003fab0       _CheckDMRules              10040ab0 f   g_main.obj
 0001:0003fc10       _ExitLevel                 10040c10 f   g_main.obj
 0001:0003fd20       _G_RunFrame                10040d20 f   g_main.obj
 0001:00040160       _torch_think               10041160 f   g_mappack.obj
 0001:000401a0       _SP_light_torch            100411a0 f   g_mappack.obj
 0001:00040210       _smallflame_think          10041210 f   g_mappack.obj
 0001:00040250       _bigflame_think            10041250 f   g_mappack.obj
 0001:00040290       _SP_light_flame            10041290 f   g_mappack.obj
 0001:00040380       _Cmd_Trigger_f             10041380 f   g_mappack.obj
 0001:00040560       _modelspawn_think          10041560 f   g_mappack.obj
 0001:00040610       _model_spawn_use           10041610 f   g_mappack.obj
 0001:000406f0       _model_die                 100416f0 f   g_mappack.obj
 0001:00040740       _SP_model_spawn            10041740 f   g_mappack.obj
 0001:00040e00       _model_train_animator      10041e00 f   g_mappack.obj
 0001:00040ed0       _SP_model_train            10041ed0 f   g_mappack.obj
 0001:000416c0       _Use_Areaportal            100426c0 f   g_misc.obj
 0001:00041700       _SP_func_areaportal        10042700 f   g_misc.obj
 0001:00041720       _VelocityForDamage         10042720 f   g_misc.obj
 0001:000417f0       _ClipGibVelocity           100427f0 f   g_misc.obj
 0001:000418e0       _gib_fade                  100428e0 f   g_misc.obj
 0001:000419a0       _gib_fade2                 100429a0 f   g_misc.obj
 0001:00041a50       _gib_think                 10042a50 f   g_misc.obj
 0001:00041ac0       _gib_touch                 10042ac0 f   g_misc.obj
 0001:00041b60       _gib_die                   10042b60 f   g_misc.obj
 0001:00041b80       _ThrowGib                  10042b80 f   g_misc.obj
 0001:00042160       _gib_delayed_start         10043160 f   g_misc.obj
 0001:00042210       _SP_gib                    10043210 f   g_misc.obj
 0001:000422b0       _ThrowHead                 100432b0 f   g_misc.obj
 0001:00042730       _SP_gibhead                10043730 f   g_misc.obj
 0001:000427c0       _ThrowClientHead           100437c0 f   g_misc.obj
 0001:000429f0       _debris_die                100439f0 f   g_misc.obj
 0001:00042a10       _ThrowDebris               10043a10 f   g_misc.obj
 0001:00042cd0       _debris_delayed_start      10043cd0 f   g_misc.obj
 0001:00042d50       _SP_debris                 10043d50 f   g_misc.obj
 0001:00042dd0       _BecomeExplosion1          10043dd0 f   g_misc.obj
 0001:00042e20       _BecomeExplosion2          10043e20 f   g_misc.obj
 0001:00042e70       _BecomeExplosion3          10043e70 f   g_misc.obj
 0001:00042ec0       _path_corner_touch         10043ec0 f   g_misc.obj
 0001:00043180       _SP_path_corner            10044180 f   g_misc.obj
 0001:00043260       _point_combat_touch        10044260 f   g_misc.obj
 0001:00043520       _SP_point_combat           10044520 f   g_misc.obj
 0001:000435e0       _TH_viewthing              100445e0 f   g_misc.obj
 0001:00043620       _SP_viewthing              10044620 f   g_misc.obj
 0001:00043700       _SP_info_null              10044700 f   g_misc.obj
 0001:00043720       _SP_info_notnull           10044720 f   g_misc.obj
 0001:00043780       _SP_light                  10044780 f   g_misc.obj
 0001:000438e0       _func_wall_use             100448e0 f   g_misc.obj
 0001:000439b0       _SP_func_wall              100449b0 f   g_misc.obj
 0001:00043b10       _func_object_touch         10044b10 f   g_misc.obj
 0001:00043b80       _func_object_release       10044b80 f   g_misc.obj
 0001:00043ba0       _func_object_use           10044ba0 f   g_misc.obj
 0001:00043bf0       _SP_func_object            10044bf0 f   g_misc.obj
 0001:00043da0       _func_explosive_respawn    10044da0 f   g_misc.obj
 0001:00043e10       _func_explosive_explode    10044e10 f   g_misc.obj
 0001:000447e0       _func_explosive_die        100457e0 f   g_misc.obj
 0001:00044850       _func_explosive_use        10045850 f   g_misc.obj
 0001:00044880       _func_explosive_activate   10045880 f   g_misc.obj
 0001:00044950       _func_explosive_spawn      10045950 f   g_misc.obj
 0001:000449c0       _func_explosive_touch      100459c0 f   g_misc.obj
 0001:00044b60       _SP_func_explosive         10045b60 f   g_misc.obj
 0001:00044d90       _PrecacheDebris            10045d90 f   g_misc.obj
 0001:00045010       _func_breakaway_hit        10046010 f   g_misc.obj
 0001:00045170       _func_breakaway_think      10046170 f   g_misc.obj
 0001:00045420       _func_breakaway_makesolid  10046420 f   g_misc.obj
 0001:00045510       _func_breakaway_fall       10046510 f   g_misc.obj
 0001:00045870       _func_breakaway_die        10046870 f   g_misc.obj
 0001:00045980       _func_breakaway_use        10046980 f   g_misc.obj
 0001:000459b0       _func_breakaway_touch      100469b0 f   g_misc.obj
 0001:00045b50       _func_breakaway_spawn      10046b50 f   g_misc.obj
 0001:00045bc0       _func_breakaway_activate   10046bc0 f   g_misc.obj
 0001:00045c10       _SP_func_breakaway         10046c10 f   g_misc.obj
 0001:00045f90       _barrel_touch              10046f90 f   g_misc.obj
 0001:00046030       _barrel_explode            10047030 f   g_misc.obj
 0001:000468c0       _barrel_delay              100478c0 f   g_misc.obj
 0001:00046900       _barrel_think              10047900 f   g_misc.obj
 0001:00046970       _barrel_start              10047970 f   g_misc.obj
 0001:000469b0       _SP_misc_explobox          100479b0 f   g_misc.obj
 0001:00046b90       _misc_blackhole_transparent 10047b90 f   g_misc.obj
 0001:00046bc0       _misc_blackhole_use        10047bc0 f   g_misc.obj
 0001:00046be0       _misc_blackhole_think      10047be0 f   g_misc.obj
 0001:00046c40       _SP_misc_blackhole         10047c40 f   g_misc.obj
 0001:00046d20       _misc_eastertank_think     10047d20 f   g_misc.obj
 0001:00046d80       _SP_misc_eastertank        10047d80 f   g_misc.obj
 0001:00046e80       _misc_easterchick_think    10047e80 f   g_misc.obj
 0001:00046ee0       _SP_misc_easterchick       10047ee0 f   g_misc.obj
 0001:00046fb0       _misc_easterchick2_think   10047fb0 f   g_misc.obj
 0001:00047010       _SP_misc_easterchick2      10048010 f   g_misc.obj
 0001:000470e0       _commander_body_think      100480e0 f   g_misc.obj
 0001:00047160       _commander_body_use        10048160 f   g_misc.obj
 0001:000471c0       _commander_body_drop       100481c0 f   g_misc.obj
 0001:000471f0       _SP_monster_commander_body 100481f0 f   g_misc.obj
 0001:00047310       _misc_banner_think         10048310 f   g_misc.obj
 0001:00047350       _SP_misc_banner            10048350 f   g_misc.obj
 0001:000473e0       _misc_deadsoldier_die      100483e0 f   g_misc.obj
 0001:00047470       _misc_deadsoldier_flieson  10048470 f   g_misc.obj
 0001:000474c0       _SP_misc_deadsoldier       100484c0 f   g_misc.obj
 0001:000476d0       _misc_viper_use            100486d0 f   g_misc.obj
 0001:00047710       _SP_misc_viper             10048710 f   g_misc.obj
 0001:00047a50       _SP_misc_crashviper        10048a50 f   g_misc.obj
 0001:00047d80       _SP_misc_bigviper          10048d80 f   g_misc.obj
 0001:00047e30       _misc_viper_bomb_touch     10048e30 f   g_misc.obj
 0001:00048010       _misc_viper_bomb_prethink  10049010 f   g_misc.obj
 0001:000480b0       _viper_bomb_think          100490b0 f   g_misc.obj
 0001:00048150       _misc_viper_bomb_use       10049150 f   g_misc.obj
 0001:00048410       _SP_misc_viper_bomb        10049410 f   g_misc.obj
 0001:000485a0       _misc_viper_missile_use    100495a0 f   g_misc.obj
 0001:000486d0       _SP_misc_viper_missile     100496d0 f   g_misc.obj
 0001:000487a0       _misc_strogg_ship_remove   100497a0 f   g_misc.obj
 0001:000489f0       _misc_strogg_ship_touch    100499f0 f   g_misc.obj
 0001:00048a60       _misc_strogg_ship_explode  10049a60 f   g_misc.obj
 0001:00048c00       _misc_strogg_ship_prethink 10049c00 f   g_misc.obj
 0001:00048d80       _misc_strogg_ship_die      10049d80 f   g_misc.obj
 0001:00048eb0       _misc_strogg_ship_use      10049eb0 f   g_misc.obj
 0001:00048ef0       _SP_misc_strogg_ship       10049ef0 f   g_misc.obj
 0001:00049210       _SP_misc_transport         1004a210 f   g_misc.obj
 0001:00049490       _misc_satellite_dish_think 1004a490 f   g_misc.obj
 0001:000494d0       _misc_satellite_dish_use   1004a4d0 f   g_misc.obj
 0001:00049510       _SP_misc_satellite_dish    1004a510 f   g_misc.obj
 0001:000495c0       _SP_light_mine1            1004a5c0 f   g_misc.obj
 0001:00049620       _SP_light_mine2            1004a620 f   g_misc.obj
 0001:00049680       _SP_misc_gib_arm           1004a680 f   g_misc.obj
 0001:000497a0       _SP_misc_gib_leg           1004a7a0 f   g_misc.obj
 0001:000498c0       _SP_misc_gib_head          1004a8c0 f   g_misc.obj
 0001:000499e0       _SP_target_character       1004a9e0 f   g_misc.obj
 0001:00049a30       _target_string_use         1004aa30 f   g_misc.obj
 0001:00049b10       _SP_target_string          1004ab10 f   g_misc.obj
 0001:00049b40       _func_clock_think          1004ab40 f   g_misc.obj
 0001:0004a030       _func_clock_use            1004b030 f   g_misc.obj
 0001:0004a080       _SP_func_clock             1004b080 f   g_misc.obj
 0001:0004a1b0       _teleport_transition_ents  1004b1b0 f   g_misc.obj
 0001:0004a990       _teleporter_touch          1004b990 f   g_misc.obj
 0001:0004aff0       _teleporter_use            1004bff0 f   g_misc.obj
 0001:0004b0e0       _SP_misc_teleporter        1004c0e0 f   g_misc.obj
 0001:0004b380       _trigger_teleporter_use    1004c380 f   g_misc.obj
 0001:0004b3c0       _SP_trigger_teleporter     1004c3c0 f   g_misc.obj
 0001:0004b4e0       _SP_trigger_teleporter_bbox 1004c4e0 f   g_misc.obj
 0001:0004b700       _SP_misc_teleporter_dest   1004c700 f   g_misc.obj
 0001:0004b7b0       _amb4_think                1004c7b0 f   g_misc.obj
 0001:0004b800       _SP_misc_amb4              1004c800 f   g_misc.obj
 0001:0004b850       _misc_nuke_core_use        1004c850 f   g_misc.obj
 0001:0004b890       _SP_misc_nuke_core         1004c890 f   g_misc.obj
 0001:0004b8e0       _use_nuke                  1004c8e0 f   g_misc.obj
 0001:0004b990       _SP_misc_nuke              1004c990 f   g_misc.obj
 0001:0004b9b0       _rotating_light_alarm      1004c9b0 f   g_misc.obj
 0001:0004ba30       _rotating_light_killed     1004ca30 f   g_misc.obj
 0001:0004bae0       _SP_rotating_light         1004cae0 f   g_misc.obj
 0001:0004bce0       _object_repair_fx          1004cce0 f   g_misc.obj
 0001:0004bd90       _object_repair_dead        1004cd90 f   g_misc.obj
 0001:0004bdd0       _object_repair_sparks      1004cdd0 f   g_misc.obj
 0001:0004be90       _SP_object_repair          1004ce90 f   g_misc.obj
 0001:0004bf70       _misc_sick_guard_think     1004cf70 f   g_misc.obj
 0001:0004c0c0       _SP_misc_sick_guard        1004d0c0 f   g_misc.obj
 0001:0004c1b0       _misc_gekk_writhe_think    1004d1b0 f   g_misc.obj
 0001:0004c210       _misc_gekk_writhe_use      1004d210 f   g_misc.obj
 0001:0004c320       _SP_misc_gekk_writhe       1004d320 f   g_misc.obj
 0001:0004c420       _light_flame_spawn         1004d420 f   g_misc.obj
 0001:0004c600       _SP_light_flame1           1004d600 f   g_misc.obj
 0001:0004c680       _SP_light_flame1s          1004d680 f   g_misc.obj
 0001:0004c700       _SP_light_flame2           1004d700 f   g_misc.obj
 0001:0004c780       _SP_light_flame2s          1004d780 f   g_misc.obj
 0001:0004c800       _monster_coco_monkey_think 1004d800 f   g_misc.obj
 0001:0004c840       _SP_monster_coco_monkey    1004d840 f   g_misc.obj
 0001:0004c960       _misc_light_think          1004d960 f   g_misc.obj
 0001:0004c9e0       _misc_light_use            1004d9e0 f   g_misc.obj
 0001:0004ca40       _SP_misc_light             1004da40 f   g_misc.obj
 0001:0004cab0       _drop_add_to_chain         1004dab0 f   g_misc.obj
 0001:0004cbc0       _drop_splash               1004dbc0 f   g_misc.obj
 0001:0004cc60       _leaf_fade2                1004dc60 f   g_misc.obj
 0001:0004ccd0       _leaf_fade                 1004dcd0 f   g_misc.obj
 0001:0004cd20       _drop_touch                1004dd20 f   g_misc.obj
 0001:0004ce00       _spawn_precipitation       1004de00 f   g_misc.obj
 0001:0004d3c0       _target_precipitation_think 1004e3c0 f   g_misc.obj
 0001:0004d6c0       _target_precipitation_use  1004e6c0 f   g_misc.obj
 0001:0004d790       _target_precipitation_delayed_use 1004e790 f   g_misc.obj
 0001:0004d7e0       _SP_target_precipitation   1004e7e0 f   g_misc.obj
 0001:0004dbc0       _target_fountain_think     1004ebc0 f   g_misc.obj
 0001:0004def0       _target_fountain_use       1004eef0 f   g_misc.obj
 0001:0004dfd0       _target_fountain_delayed_use 1004efd0 f   g_misc.obj
 0001:0004e020       _SP_target_fountain        1004f020 f   g_misc.obj
 0001:0004e2e0       _PatchDeadSoldier          1004f2e0 f   g_misc.obj
 0001:00051f40       _FadeSink                  10052f40 f   g_monster.obj
 0001:00052010       _FadeDieSink               10053010 f   g_monster.obj
 0001:000520f0       _M_SetDeath                100530f0 f   g_monster.obj
 0001:000521c0       _monster_fire_bullet       100531c0 f   g_monster.obj
 0001:00052230       _monster_fire_shotgun      10053230 f   g_monster.obj
 0001:000522b0       _monster_fire_blaster      100532b0 f   g_monster.obj
 0001:00052320       _monster_fire_blueblaster  10053320 f   g_monster.obj
 0001:00052390       _monster_fire_ionripper    10053390 f   g_monster.obj
 0001:00052400       _monster_fire_rocket_heat  10053400 f   g_monster.obj
 0001:00052470       _monster_fire_blaster2     10053470 f   g_monster.obj
 0001:000524e0       _monster_fire_tracker      100534e0 f   g_monster.obj
 0001:00052550       _monster_fire_heat         10053550 f   g_monster.obj
 0001:000525c0       _dabeam_hit                100535c0 f   g_monster.obj
 0001:00052870       _monster_dabeam            10053870 f   g_monster.obj
 0001:00052ad0       _monster_fire_grenade      10053ad0 f   g_monster.obj
 0001:00052b60       _monster_fire_rocket       10053b60 f   g_monster.obj
 0001:00052be0       _monster_fire_missile      10053be0 f   g_monster.obj
 0001:00052c60       _monster_fire_railgun      10053c60 f   g_monster.obj
 0001:00052ce0       _monster_fire_bfg          10053ce0 f   g_monster.obj
 0001:00052d50       _M_FliesOff                10053d50 f   g_monster.obj
 0001:00052d80       _M_FliesOn                 10053d80 f   g_monster.obj
 0001:00052de0       _M_FlyCheck                10053de0 f   g_monster.obj
 0001:00052ed0       _AttackFinished            10053ed0 f   g_monster.obj
 0001:00052ef0       _M_CheckGround             10053ef0 f   g_monster.obj
 0001:000530a0       _M_CatagorizePosition      100540a0 f   g_monster.obj
 0001:00053190       _M_WorldEffects            10054190 f   g_monster.obj
 0001:00053740       _M_droptofloor             10054740 f   g_monster.obj
 0001:00053890       _M_SetEffects              10054890 f   g_monster.obj
 0001:00053a90       _M_MoveFrame               10054a90 f   g_monster.obj
 0001:00053cd0       _monster_think             10054cd0 f   g_monster.obj
 0001:00053d40       _deadmonster_think         10054d40 f   g_monster.obj
 0001:00053d70       _monster_use               10054d70 f   g_monster.obj
 0001:00053ec0       _monster_triggered_spawn   10054ec0 f   g_monster.obj
 0001:00053fb0       _monster_triggered_spawn_use 10054fb0 f   g_monster.obj
 0001:00054010       _monster_triggered_start   10055010 f   g_monster.obj
 0001:00054060       _monster_death_use         10055060 f   g_monster.obj
 0001:000541c0       _monster_start             100551c0 f   g_monster.obj
 0001:000546f0       _monster_start_go          100556f0 f   g_monster.obj
 0001:00054af0       _walkmonster_start_go      10055af0 f   g_monster.obj
 0001:00054c00       _walkmonster_start         10055c00 f   g_monster.obj
 0001:00054c20       _flymonster_start_go       10055c20 f   g_monster.obj
 0001:00054cd0       _flymonster_start          10055cd0 f   g_monster.obj
 0001:00054d10       _swimmonster_start_go      10055d10 f   g_monster.obj
 0001:00054d70       _swimmonster_start         10055d70 f   g_monster.obj
 0001:00054db0       _stationarymonster_triggered_spawn 10055db0 f   g_monster.obj
 0001:00054eb0       _stationarymonster_triggered_spawn_use 10055eb0 f   g_monster.obj
 0001:00054f10       _stationarymonster_triggered_start 10055f10 f   g_monster.obj
 0001:00054f60       _stationarymonster_start_go 10055f60 f   g_monster.obj
 0001:00054fb0       _stationarymonster_start   10055fb0 f   g_monster.obj
 0001:00054fd0       _monster_done_dodge        10055fd0 f   g_monster.obj
 0001:00054ff0       _InitiallyDead             10055ff0 f   g_monster.obj
 0001:00055110       _PatchMonsterModel         10056110 f   g_monster.obj
 0001:00058820       _blocked_checkshot         10059820 f   g_newai.obj
 0001:00058b20       _blocked_checkplat         10059b20 f   g_newai.obj
 0001:00058dc0       _blocked_checkjump         10059dc0 f   g_newai.obj
 0001:00059300       _blocked_checknewenemy     1005a300 f   g_newai.obj
 0001:00059310       _hintpath_findstart        1005a310 f   g_newai.obj
 0001:00059420       _hintpath_other_end        1005a420 f   g_newai.obj
 0001:00059530       _hintpath_go               1005a530 f   g_newai.obj
 0001:00059600       _hintpath_stop             1005a600 f   g_newai.obj
 0001:000596d0       _monsterlost_checkhint     1005a6d0 f   g_newai.obj
 0001:0005a010       _hint_path_touch           1005b010 f   g_newai.obj
 0001:0005a150       _SP_hint_path              1005b150 f   g_newai.obj
 0001:0005a2a0       _InitHintPaths             1005b2a0 f   g_newai.obj
 0001:0005a5d0       _inback                    1005b5d0 f   g_newai.obj
 0001:0005a660       _realrange                 1005b660 f   g_newai.obj
 0001:0005a6b0       _face_wall                 1005b6b0 f   g_newai.obj
 0001:0005a7d0       _badarea_touch             1005b7d0 f   g_newai.obj
 0001:0005a7e0       _SpawnBadArea              1005b7e0 f   g_newai.obj
 0001:0005a990       _CheckForBadArea           1005b990 f   g_newai.obj
 0001:0005aa80       _MarkTeslaArea             1005ba80 f   g_newai.obj
 0001:0005ac50       _PredictAim                1005bc50 f   g_newai.obj
 0001:0005ad90       _below                     1005bd90 f   g_newai.obj
 0001:0005ae20       _drawbbox                  1005be20 f   g_newai.obj
 0001:0005b260       _M_MonsterDodge            1005c260 f   g_newai.obj
 0001:0005b550       _monster_duck_down         1005c550 f   g_newai.obj
 0001:0005b5d0       _monster_duck_hold         1005c5d0 f   g_newai.obj
 0001:0005b620       _monster_duck_up           1005c620 f   g_newai.obj
 0001:0005b680       _has_valid_enemy           1005c680 f   g_newai.obj
 0001:0005b6f0       _TargetTesla               1005c6f0 f   g_newai.obj
 0001:0005b7e0       _PickCoopTarget            1005c7e0 f   g_newai.obj
 0001:0005b8e0       _CountPlayers              1005c8e0 f   g_newai.obj
 0001:0005b970       _monster_jump_start        1005c970 f   g_newai.obj
 0001:0005b990       _monster_jump_finished     1005c990 f   g_newai.obj
 0001:0005c620       _InitGameRules             1005d620 f   g_newdm.obj
 0001:0005c6f0       _FindSubstituteItem        1005d6f0 f   g_newdm.obj
 0001:0005cb60       _DoRandomRespawn           1005db60 f   g_newdm.obj
 0001:0005cca0       _PrecacheForRandomRespawn  1005dca0 f   g_newdm.obj
 0001:0005cd10       _doppleganger_die          1005dd10 f   g_newdm.obj
 0001:0005ce30       _doppleganger_pain         1005de30 f   g_newdm.obj
 0001:0005ce50       _doppleganger_timeout      1005de50 f   g_newdm.obj
 0001:0005ce80       _body_think                1005de80 f   g_newdm.obj
 0001:0005cf80       _fire_doppleganger         1005df80 f   g_newdm.obj
 0001:0005d540       _fd_secret_use             1005e540 f   g_newfnc.obj
 0001:0005d5f0       _fd_secret_killed          1005e5f0 f   g_newfnc.obj
 0001:0005d680       _fd_secret_move1           1005e680 f   g_newfnc.obj
 0001:0005d6c0       _fd_secret_move2           1005e6c0 f   g_newfnc.obj
 0001:0005d6f0       _fd_secret_move3           1005e6f0 f   g_newfnc.obj
 0001:0005d740       _fd_secret_move4           1005e740 f   g_newfnc.obj
 0001:0005d770       _fd_secret_move5           1005e770 f   g_newfnc.obj
 0001:0005d7b0       _fd_secret_move6           1005e7b0 f   g_newfnc.obj
 0001:0005d7e0       _fd_secret_done            1005e7e0 f   g_newfnc.obj
 0001:0005d840       _secret_blocked            1005e840 f   g_newfnc.obj
 0001:0005d8a0       _secret_touch              1005e8a0 f   g_newfnc.obj
 0001:0005d910       _SP_func_door_secret2      1005e910 f   g_newfnc.obj
 0001:0005de10       _force_wall_think          1005ee10 f   g_newfnc.obj
 0001:0005deb0       _force_wall_use            1005eeb0 f   g_newfnc.obj
 0001:0005df60       _force_wall_touch          1005ef60 f   g_newfnc.obj
 0001:0005e050       _SP_func_force_wall        1005f050 f   g_newfnc.obj
 0001:0005e260       _SP_func_dm_wall           1005f260 f   g_newfnc.obj
 0001:0005e680       _use_target_steam          1005f680 f   g_newtarg.obj
 0001:0005e930       _target_steam_start        1005f930 f   g_newtarg.obj
 0001:0005ea90       _SP_target_steam           1005fa90 f   g_newtarg.obj
 0001:0005eaf0       _target_anger_use          1005faf0 f   g_newtarg.obj
 0001:0005ec30       _SP_target_anger           1005fc30 f   g_newtarg.obj
 0001:0005ecd0       _use_target_monsterbattle  1005fcd0 f   g_newtarg.obj
 0001:0005ee80       _SP_target_monsterbattle   1005fe80 f   g_newtarg.obj
 0001:0005ef30       _target_killplayers_use    1005ff30 f   g_newtarg.obj
 0001:0005f0a0       _SP_target_killplayers     100600a0 f   g_newtarg.obj
 0001:0005f0c0       _blacklight_think          100600c0 f   g_newtarg.obj
 0001:0005f130       _SP_target_blacklight      10060130 f   g_newtarg.obj
 0001:0005f200       _orb_think                 10060200 f   g_newtarg.obj
 0001:0005f270       _SP_target_orb             10060270 f   g_newtarg.obj
 0001:0005f340       _target_command_use        10060340 f   g_newtarg.obj
 0001:0005f380       _SP_target_command         10060380 f   g_newtarg.obj
 0001:0005f3f0       _target_set_effect_use     100603f0 f   g_newtarg.obj
 0001:0005f520       _SP_target_set_effect      10060520 f   g_newtarg.obj
 0001:0005f590       _target_global_text_use    10060590 f   g_newtarg.obj
 0001:0005f5b0       _SP_target_global_text     100605b0 f   g_newtarg.obj
 0001:0005f650       _target_effect_at          10060650 f   g_newtarg.obj
 0001:0005f6b0       _target_effect_steam       100606b0 f   g_newtarg.obj
 0001:0005f7d0       _target_effect_splash      100607d0 f   g_newtarg.obj
 0001:0005f850       _target_effect_trail       10060850 f   g_newtarg.obj
 0001:0005f960       _target_effect_lightning   10060960 f   g_newtarg.obj
 0001:0005fa30       _target_effect_sparks      10060a30 f   g_newtarg.obj
 0001:0005faa0       _target_effect_explosion   10060aa0 f   g_newtarg.obj
 0001:0005faf0       _target_effect_tunnel_sparks 10060af0 f   g_newtarg.obj
 0001:0005fbf0       _target_effect_widowbeam   10060bf0 f   g_newtarg.obj
 0001:0005fc40       _target_effect_use         10060c40 f   g_newtarg.obj
 0001:0005fd60       _target_effect_think       10060d60 f   g_newtarg.obj
 0001:0005fda0       _SP_target_effect          10060da0 f   g_newtarg.obj
 0001:00060110       _target_movewith_use       10061110 f   g_newtarg.obj
 0001:00060270       _SP_target_movewith        10061270 f   g_newtarg.obj
 0001:00060330       _target_change_use         10061330 f   g_newtarg.obj
 0001:000608e0       _SP_target_change          100618e0 f   g_newtarg.obj
 0001:00060990       _target_rotation_use       10061990 f   g_newtarg.obj
 0001:00060bf0       _SP_target_rotation        10061bf0 f   g_newtarg.obj
 0001:00060cf0       _target_cd_use             10061cf0 f   g_newtarg.obj
 0001:00060e00       _SP_target_cd              10061e00 f   g_newtarg.obj
 0001:00060ea0       _use_target_skill          10061ea0 f   g_newtarg.obj
 0001:00060ef0       _SP_target_skill           10061ef0 f   g_newtarg.obj
 0001:00060f10       _target_sky_use            10061f10 f   g_newtarg.obj
 0001:00060fa0       _SP_target_sky             10061fa0 f   g_newtarg.obj
 0001:00061060       _use_target_fade           10062060 f   g_newtarg.obj
 0001:00061190       _SP_target_fade            10062190 f   g_newtarg.obj
 0001:00061220       _ThrowRock                 10062220 f   g_newtarg.obj
 0001:000614e0       _target_rocks_use          100624e0 f   g_newtarg.obj
 0001:00061890       _SP_target_rocks           10062890 f   g_newtarg.obj
 0001:00061930       _clone                     10062930 f   g_newtarg.obj
 0001:00062480       _target_clone_use          10063480 f   g_newtarg.obj
 0001:000624a0       _SP_target_clone           100634a0 f   g_newtarg.obj
 0001:000625a0       _target_attractor_think_single 100635a0 f   g_newtarg.obj
 0001:00063170       _target_attractor_think    10064170 f   g_newtarg.obj
 0001:00063950       _use_target_attractor      10064950 f   g_newtarg.obj
 0001:00063a70       _SP_target_attractor       10064a70 f   g_newtarg.obj
 0001:00063cc0       _target_monitor_off        10064cc0 f   g_newtarg.obj
 0001:000640c0       _target_monitor_move       100650c0 f   g_newtarg.obj
 0001:000643b0       _use_target_monitor        100653b0 f   g_newtarg.obj
 0001:00064c10       _SP_target_monitor         10065c10 f   g_newtarg.obj
 0001:00064e50       _target_animate            10065e50 f   g_newtarg.obj
 0001:00064f50       _target_animation_use      10065f50 f   g_newtarg.obj
 0001:00065150       _SP_target_animation       10066150 f   g_newtarg.obj
 0001:000652e0       _target_failure_wipe       100662e0 f   g_newtarg.obj
 0001:00065310       _target_failure_player_die 10066310 f   g_newtarg.obj
 0001:00065510       _target_failure_think      10066510 f   g_newtarg.obj
 0001:00065560       _target_failure_fade_lights 10066560 f   g_newtarg.obj
 0001:00065650       _use_target_failure        10066650 f   g_newtarg.obj
 0001:00065830       _SP_target_failure         10066830 f   g_newtarg.obj
 0001:000658a0       _target_locator_init       100668a0 f   g_newtarg.obj
 0001:00065c60       _SP_target_locator         10066c60 f   g_newtarg.obj
 0001:00067ab0       _SP_info_teleport_destination 10068ab0 f   g_newtrig.obj
 0001:00067ac0       _trigger_teleport_touch    10068ac0 f   g_newtrig.obj
 0001:00067de0       _trigger_teleport_use      10068de0 f   g_newtrig.obj
 0001:00067e20       _SP_trigger_teleport       10068e20 f   g_newtrig.obj
 0001:00067f10       _trigger_disguise_touch    10068f10 f   g_newtrig.obj
 0001:00067f60       _trigger_disguise_use      10068f60 f   g_newtrig.obj
 0001:00067fa0       _SP_trigger_disguise       10068fa0 f   g_newtrig.obj
 0001:00068190       _VerifyTarget              10069190 f   g_newutils.obj
 0001:00068290       _flechette_touch           10069290 f   g_newweap.obj
 0001:00068410       _fire_flechette            10069410 f   g_newweap.obj
 0001:000685f0       _flechette_delayed_start   100695f0 f   g_newweap.obj
 0001:00068680       _SP_flechette              10069680 f   g_newweap.obj
 0001:00068760       _prox_movewith_host        10069760 f   g_newweap.obj
 0001:000690f0       _Prox_Explode              1006a0f0 f   g_newweap.obj
 0001:000692c0       _prox_die                  1006a2c0 f   g_newweap.obj
 0001:00069330       _Prox_Field_Touch          1006a330 f   g_newweap.obj
 0001:00069400       _prox_seek                 1006a400 f   g_newweap.obj
 0001:000694d0       _prox_open                 1006a4d0 f   g_newweap.obj
 0001:00069820       _prox_land                 1006a820 f   g_newweap.obj
 0001:00069e60       _fire_prox                 1006ae60 f   g_newweap.obj
 0001:0006a2a0       _Cmd_DetProx_f             1006b2a0 f   g_newweap.obj
 0001:0006a330       _prox_delayed_start        1006b330 f   g_newweap.obj
 0001:0006a3d0       _SP_prox                   1006b3d0 f   g_newweap.obj
 0001:0006a550       _fire_player_melee         1006b550 f   g_newweap.obj
 0001:0006a800       _Nuke_Quake                1006b800 f   g_newweap.obj
 0001:0006aa70       _nuke_die                  1006ba70 f   g_newweap.obj
 0001:0006acd0       _Nuke_Think                1006bcd0 f   g_newweap.obj
 0001:0006b050       _nuke_bounce               1006c050 f   g_newweap.obj
 0001:0006b0e0       _fire_nuke                 1006c0e0 f   g_newweap.obj
 0001:0006b410       _Nbomb_Quake               1006c410 f   g_newweap.obj
 0001:0006b5d0       _nbomb_die                 1006c5d0 f   g_newweap.obj
 0001:0006b850       _Nbomb_Think               1006c850 f   g_newweap.obj
 0001:0006bb10       _nbomb_bounce              1006cb10 f   g_newweap.obj
 0001:0006bba0       _fire_nbomb                1006cba0 f   g_newweap.obj
 0001:0006bf50       _tesla_remove              1006cf50 f   g_newweap.obj
 0001:0006c0c0       _tesla_die                 1006d0c0 f   g_newweap.obj
 0001:0006c0e0       _tesla_blow                1006d0e0 f   g_newweap.obj
 0001:0006c120       _tesla_zap                 1006d120 f   g_newweap.obj
 0001:0006c130       _tesla_think_active        1006d130 f   g_newweap.obj
 0001:0006c4e0       _tesla_activate            1006d4e0 f   g_newweap.obj
 0001:0006c770       _tesla_think               1006d770 f   g_newweap.obj
 0001:0006c930       _tesla_lava                1006d930 f   g_newweap.obj
 0001:0006ca20       _fire_tesla                1006da20 f   g_newweap.obj
 0001:0006ce10       _tesla_delayed_start       1006de10 f   g_newweap.obj
 0001:0006cea0       _SP_tesla                  1006dea0 f   g_newweap.obj
 0001:0006cfd0       _fire_heat                 1006dfd0 f   g_newweap.obj
 0001:0006d590       _blaster2_touch            1006e590 f   g_newweap.obj
 0001:0006d860       _fire_blaster2             1006e860 f   g_newweap.obj
 0001:0006daf0       _bolt2_delayed_start       1006eaf0 f   g_newweap.obj
 0001:0006db80       _SP_bolt2                  1006eb80 f   g_newweap.obj
 0001:0006dc70       _tracker_pain_daemon_think 1006ec70 f   g_newweap.obj
 0001:0006de80       _tracker_pain_daemon_spawn 1006ee80 f   g_newweap.obj
 0001:0006df00       _tracker_explode           1006ef00 f   g_newweap.obj
 0001:0006df90       _tracker_touch             1006ef90 f   g_newweap.obj
 0001:0006e190       _tracker_fly               1006f190 f   g_newweap.obj
 0001:0006e3b0       _fire_tracker              1006f3b0 f   g_newweap.obj
 0001:0006e660       _tracker_delayed_start     1006f660 f   g_newweap.obj
 0001:0006e6f0       _SP_tracker                1006f6f0 f   g_newweap.obj
 0001:00070140       _PatchPlayerModels         10071140 f   g_patchplayermodels.obj
 0001:00070990       _pendulum_blocked          10071990 f   g_pendulum.obj
 0001:00071a30       _pendulum_rotate           10072a30 f   g_pendulum.obj
 0001:00071d10       _pendulum_use              10072d10 f   g_pendulum.obj
 0001:00071f30       _pendulum_die              10072f30 f   g_pendulum.obj
 0001:000722e0       _SP_func_pendulum          100732e0 f   g_pendulum.obj
 0001:00072e50       _other_FallingDamage       10073e50 f   g_phys.obj
 0001:00073050       _SV_TestEntityPosition     10074050 f   g_phys.obj
 0001:00073220       _SV_CheckVelocity          10074220 f   g_phys.obj
 0001:00073330       _SV_RunThink               10074330 f   g_phys.obj
 0001:000733c0       _SV_Impact                 100743c0 f   g_phys.obj
 0001:00073440       _ClipVelocity              10074440 f   g_phys.obj
 0001:00073530       _SV_FlyMove                10074530 f   g_phys.obj
 0001:00073ce0       _SV_PushableMove           10074ce0 f   g_phys.obj
 0001:00074810       _SV_AddGravity             10075810 f   g_phys.obj
 0001:000748c0       _SV_PushEntity             100758c0 f   g_phys.obj
 0001:00074c10       _MoveRiders                10075c10 f   g_phys.obj
 0001:00074e00       _RealBoundingBox           10075e00 f   g_phys.obj
 0001:00075320       _SV_Push                   10076320 f   g_phys.obj
 0001:000764b0       _SV_Physics_Pusher         100774b0 f   g_phys.obj
 0001:00076900       _SV_Physics_None           10077900 f   g_phys.obj
 0001:00076920       _SV_Physics_Noclip         10077920 f   g_phys.obj
 0001:000769a0       _SV_Physics_Toss           100779a0 f   g_phys.obj
 0001:000770c0       _SV_AddRotationalFriction  100780c0 f   g_phys.obj
 0001:000771e0       _RiderMass                 100781e0 f   g_phys.obj
 0001:00077370       _SV_Physics_Step           10078370 f   g_phys.obj
 0001:00078780       _SV_VehicleMove            10079780 f   g_phys.obj
 0001:000795e0       _SV_Physics_Vehicle        1007a5e0 f   g_phys.obj
 0001:00079ac0       _SV_DebrisEntity           1007aac0 f   g_phys.obj
 0001:00079ff0       _SV_Physics_Debris         1007aff0 f   g_phys.obj
 0001:0007a300       _SV_Physics_Conveyor       1007b300 f   g_phys.obj
 0001:0007a580       _G_RunEntity               1007b580 f   g_phys.obj
 0001:0007a800       _SV_Physics_NewToss        1007b800 f   g_phys.obj
 0001:0007ccb0       _InitGame                  1007dcb0 f   g_save.obj
 0001:0007d790       _WriteField1               1007e790 f   g_save.obj
 0001:0007d940       _WriteField2               1007e940 f   g_save.obj
 0001:0007d9b0       _ReadField                 1007e9b0 f   g_save.obj
 0001:0007db70       _WriteClient               1007eb70 f   g_save.obj
 0001:0007dc50       _ReadClient                1007ec50 f   g_save.obj
 0001:0007dce0       _WriteGame                 1007ece0 f   g_save.obj
 0001:0007de10       _ReadGame                  1007ee10 f   g_save.obj
 0001:0007df80       _WriteEdict                1007ef80 f   g_save.obj
 0001:0007e040       _WriteLevelLocals          1007f040 f   g_save.obj
 0001:0007e120       _ReadEdict                 1007f120 f   g_save.obj
 0001:0007e170       _ReadLevelLocals           1007f170 f   g_save.obj
 0001:0007e1d0       _WriteLevel                1007f1d0 f   g_save.obj
 0001:0007e3c0       _ReadLevel                 1007f3c0 f   g_save.obj
 0001:0007ecc0       _FMOD_Init                 1007fcc0 f   g_sound.obj
 0001:0007f150       _FMOD_Shutdown             10080150 f   g_sound.obj
 0001:0007f180       _FMOD_UpdateListenerPos    10080180 f   g_sound.obj
 0001:0007f290       _FMOD_UpdateSpeakerPos     10080290 f   g_sound.obj
 0001:0007f350       _FMOD_Stop                 10080350 f   g_sound.obj
 0001:0007f460       _CheckEndMusic             10080460 f   g_sound.obj
 0001:0007f580       _CheckEndSample            10080580 f   g_sound.obj
 0001:0007f680       _EndStream                 10080680 f   g_sound.obj
 0001:0007f740       _FMOD_PlaySound            10080740 f   g_sound.obj
 0001:0007fc70       _FMOD_StopSound            10080c70 f   g_sound.obj
 0001:0007fde0       _target_playback_die       10080de0 f   g_sound.obj
 0001:0007fe30       _target_playback_fadeout   10080e30 f   g_sound.obj
 0001:0007ff10       _target_playback_fadein    10080f10 f   g_sound.obj
 0001:00080010       _FMOD_IsPlaying            10081010 f   g_sound.obj
 0001:00080070       _Use_Target_Playback       10081070 f   g_sound.obj
 0001:000802e0       _target_playback_delayed_start 100812e0 f   g_sound.obj
 0001:00080340       _target_playback_delayed_restart 10081340 f   g_sound.obj
 0001:000803b0       _SP_target_playback        100813b0 f   g_sound.obj
 0001:00080e10       _ED_CallSpawn              10081e10 f   g_spawn.obj
 0001:00081470       _ReInitialize_Entity       10082470 f   g_spawn.obj
 0001:000814d0       _ED_NewString              100824d0 f   g_spawn.obj
 0001:00081590       _ED_ParseField             10082590 f   g_spawn.obj
 0001:00081730       _LoadAliasData             10082730 f   g_spawn.obj
 0001:000817a0       _ED_ParseEntityAlias       100827a0 f   g_spawn.obj
 0001:00081b20       _ED_ParseEdict             10082b20 f   g_spawn.obj
 0001:00081ca0       _G_FixTeams                10082ca0 f   g_spawn.obj
 0001:00081ec0       _G_FindTeams               10082ec0 f   g_spawn.obj
 0001:00082050       _LoadTransitionEnts        10083050 f   g_spawn.obj
 0001:00082430       _SpawnEntities             10083430 f   g_spawn.obj
 0001:00082bf0       _SP_worldspawn             10083bf0 f   g_spawn.obj
 0001:000834d0       _CreateMonster             100844d0 f   g_spawn.obj
 0001:000835a0       _CreateFlyMonster          100845a0 f   g_spawn.obj
 0001:00083620       _CreateGroundMonster       10084620 f   g_spawn.obj
 0001:00083700       _FindSpawnPoint            10084700 f   g_spawn.obj
 0001:00083840       _CheckSpawnPoint           10084840 f   g_spawn.obj
 0001:000838f0       _CheckGroundSpawnPoint     100848f0 f   g_spawn.obj
 0001:00083d40       _DetermineBBox             10084d40 f   g_spawn.obj
 0001:00083e40       _spawngrow_think           10084e40 f   g_spawn.obj
 0001:00083f60       _SpawnGrow_Spawn           10084f60 f   g_spawn.obj
 0001:000840f0       _widowlegs_think           100850f0 f   g_spawn.obj
 0001:000845f0       _Widowlegs_Spawn           100855f0 f   g_spawn.obj
 0001:000846c0       _Hud_On                    100856c0 f   g_spawn.obj
 0001:00084710       _Hud_Off                   10085710 f   g_spawn.obj
 0001:00084730       _Cmd_ToggleHud             10085730 f   g_spawn.obj
 0001:000855c0       _sphere_think_explode      100865c0 f   g_sphere.obj
 0001:00085620       _sphere_explode            10086620 f   g_sphere.obj
 0001:00085640       _sphere_if_idle_die        10086640 f   g_sphere.obj
 0001:00085660       _sphere_fly                10086660 f   g_sphere.obj
 0001:00085780       _sphere_chase              10086780 f   g_sphere.obj
 0001:00085b60       _sphere_fire               10086b60 f   g_sphere.obj
 0001:00085c60       _sphere_touch              10086c60 f   g_sphere.obj
 0001:00085da0       _vengeance_touch           10086da0 f   g_sphere.obj
 0001:00085df0       _hunter_touch              10086df0 f   g_sphere.obj
 0001:00085ec0       _defender_shoot            10086ec0 f   g_sphere.obj
 0001:00085ff0       _body_gib                  10086ff0 f   g_sphere.obj
 0001:00086070       _hunter_pain               10087070 f   g_sphere.obj
 0001:000863f0       _defender_pain             100873f0 f   g_sphere.obj
 0001:00086420       _vengeance_pain            10087420 f   g_sphere.obj
 0001:000864f0       _defender_think            100874f0 f   g_sphere.obj
 0001:000865f0       _hunter_think              100875f0 f   g_sphere.obj
 0001:00086890       _vengeance_think           10087890 f   g_sphere.obj
 0001:00086930       _Sphere_Spawn              10087930 f   g_sphere.obj
 0001:00086c10       _Own_Sphere                10087c10 f   g_sphere.obj
 0001:00086c90       _Defender_Launch           10087c90 f   g_sphere.obj
 0001:00086cc0       _Hunter_Launch             10087cc0 f   g_sphere.obj
 0001:00086cf0       _Vengeance_Launch          10087cf0 f   g_sphere.obj
 0001:000872f0       _Svcmd_Test_f              100882f0 f   g_svcmds.obj
 0001:00087310       _SV_FilterPacket           10088310 f   g_svcmds.obj
 0001:00087420       _SVCmd_AddIP_f             10088420 f   g_svcmds.obj
 0001:00087660       _SVCmd_RemoveIP_f          10088660 f   g_svcmds.obj
 0001:00087780       _SVCmd_ListIP_f            10088780 f   g_svcmds.obj
 0001:000877f0       _SVCmd_WriteIP_f           100887f0 f   g_svcmds.obj
 0001:00087960       _ServerCommand             10088960 f   g_svcmds.obj
 0001:00087bf0       _Use_Target_Tent           10088bf0 f   g_target.obj
 0001:00087c40       _SP_target_temp_entity     10088c40 f   g_target.obj
 0001:00087c60       _Use_Target_Speaker        10088c60 f   g_target.obj
 0001:00087d10       _SP_target_speaker         10088d10 f   g_target.obj
 0001:00087f20       _Use_Target_Help           10088f20 f   g_target.obj
 0001:00087f80       _SP_target_help            10088f80 f   g_target.obj
 0001:00088000       _use_target_secret         10089000 f   g_target.obj
 0001:00088060       _SP_target_secret          10089060 f   g_target.obj
 0001:00088140       _use_target_goal           10089140 f   g_target.obj
 0001:000881c0       _SP_target_goal            100891c0 f   g_target.obj
 0001:00088240       _target_explosion_explode  10089240 f   g_target.obj
 0001:00088360       _use_target_explosion      10089360 f   g_target.obj
 0001:000883c0       _SP_target_explosion       100893c0 f   g_target.obj
 0001:000883e0       _use_target_changelevel    100893e0 f   g_target.obj
 0001:00088c20       _SP_target_changelevel     10089c20 f   g_target.obj
 0001:00088d30       _use_target_splash         10089d30 f   g_target.obj
 0001:00088df0       _SP_target_splash          10089df0 f   g_target.obj
 0001:00088e50       _use_target_spawner        10089e50 f   g_target.obj
 0001:00088fb0       _SP_target_spawner         10089fb0 f   g_target.obj
 0001:00089030       _use_target_blaster        1008a030 f   g_target.obj
 0001:00089580       _target_blaster_think      1008a580 f   g_target.obj
 0001:00089b00       _find_target_blaster_target 1008ab00 f   g_target.obj
 0001:00089b20       _toggle_target_blaster     1008ab20 f   g_target.obj
 0001:00089bd0       _target_blaster_init       1008abd0 f   g_target.obj
 0001:00089c50       _SP_target_blaster         1008ac50 f   g_target.obj
 0001:00089de0       _trigger_crosslevel_trigger_use 1008ade0 f   g_target.obj
 0001:00089e10       _SP_target_crosslevel_trigger 1008ae10 f   g_target.obj
 0001:00089e30       _target_crosslevel_target_think 1008ae30 f   g_target.obj
 0001:00089e70       _SP_target_crosslevel_target 1008ae70 f   g_target.obj
 0001:00089ed0       _target_laser_ps_think     1008aed0 f   g_target.obj
 0001:0008a560       _target_laser_ps_on        1008b560 f   g_target.obj
 0001:0008a5f0       _target_laser_ps_off       1008b5f0 f   g_target.obj
 0001:0008a630       _target_laser_ps_use       1008b630 f   g_target.obj
 0001:0008a6b0       _target_laser_think        1008b6b0 f   g_target.obj
 0001:0008ab80       _target_laser_on           1008bb80 f   g_target.obj
 0001:0008ac20       _target_laser_off          1008bc20 f   g_target.obj
 0001:0008ac60       _target_laser_use          1008bc60 f   g_target.obj
 0001:0008ace0       _target_laser_start        1008bce0 f   g_target.obj
 0001:0008b1b0       _SP_target_laser           1008c1b0 f   g_target.obj
 0001:0008b1f0       _old_target_laser_think    1008c1f0 f   g_target.obj
 0001:0008b510       _target_mal_laser_on       1008c510 f   g_target.obj
 0001:0008b580       _target_mal_laser_off      1008c580 f   g_target.obj
 0001:0008b5c0       _target_mal_laser_use      1008c5c0 f   g_target.obj
 0001:0008b640       _mal_laser_think           1008c640 f   g_target.obj
 0001:0008b690       _target_mal_laser_start    1008c690 f   g_target.obj
 0001:0008b8d0       _SP_target_mal_laser       1008c8d0 f   g_target.obj
 0001:0008b910       _target_lightramp_think    1008c910 f   g_target.obj
 0001:0008bc90       _target_lightramp_use      1008cc90 f   g_target.obj
 0001:0008be40       _SP_target_lightramp       1008ce40 f   g_target.obj
 0001:0008c0d0       _target_earthquake_think   1008d0d0 f   g_target.obj
 0001:0008c3c0       _target_earthquake_use     1008d3c0 f   g_target.obj
 0001:0008c410       _SP_target_earthquake      1008d410 f   g_target.obj
 0001:0008d720       _SpawnThing                1008e720 f   g_thing.obj
 0001:0008d770       _thing_restore_leader      1008e770 f   g_thing.obj
 0001:0008d8a0       _thing_think               1008e8a0 f   g_thing.obj
 0001:0008dc00       _thing_think_pause         1008ec00 f   g_thing.obj
 0001:0008dd40       _thing_grenade_boom        1008ed40 f   g_thing.obj
 0001:0008ddc0       _thing_touch               1008edc0 f   g_thing.obj
 0001:0008e1b0       _SP_thing                  1008f1b0 f   g_thing.obj
 0001:0008e5e0       _UTIL_AngleMod             1008f5e0 f   g_tracktrain.obj
 0001:0008e660       _UTIL_ApproachAngle        1008f660 f   g_tracktrain.obj
 0001:0008e730       _UTIL_AngleDistance        1008f730 f   g_tracktrain.obj
 0001:0008e780       _path_track_use            1008f780 f   g_tracktrain.obj
 0001:0008e7e0       _SP_path_track             1008f7e0 f   g_tracktrain.obj
 0001:0008e8f0       _trackchange_done          1008f8f0 f   g_tracktrain.obj
 0001:0008ebb0       _trackchange_use           1008fbb0 f   g_tracktrain.obj
 0001:0008f020       _SP_func_trackchange       10090020 f   g_tracktrain.obj
 0001:0008f480       _tracktrain_drive          10090480 f   g_tracktrain.obj
 0001:0008f8b0       _tracktrain_die            100908b0 f   g_tracktrain.obj
 0001:0008f8f0       _tracktrain_disengage      100908f0 f   g_tracktrain.obj
 0001:0008fbf0       _tracktrain_hide           10090bf0 f   g_tracktrain.obj
 0001:0008fc30       _tracktrain_think          10090c30 f   g_tracktrain.obj
 0001:000916a0       _tracktrain_blocked        100926a0 f   g_tracktrain.obj
 0001:00091a40       _tracktrain_reach_dest     10092a40 f   g_tracktrain.obj
 0001:00091c20       _is_backing_up             10092c20 f   g_tracktrain.obj
 0001:00091cb0       _NextPathTrack             10092cb0 f   g_tracktrain.obj
 0001:000926f0       _LookAhead                 100936f0 f   g_tracktrain.obj
 0001:00092830       _train_angles              10093830 f   g_tracktrain.obj
 0001:00092a50       _tracktrain_turn           10093a50 f   g_tracktrain.obj
 0001:00093000       _tracktrain_next           10094000 f   g_tracktrain.obj
 0001:00093350       _func_tracktrain_find      10094350 f   g_tracktrain.obj
 0001:00093780       _tracktrain_use            10094780 f   g_tracktrain.obj
 0001:000938d0       _SP_func_tracktrain        100948d0 f   g_tracktrain.obj
 0001:00093ea0       _find_tracktrain           10094ea0 f   g_tracktrain.obj
 0001:00094470       _SP_info_train_start       10095470 f   g_tracktrain.obj
 0001:00095c90       _InitTrigger               10096c90 f   g_trigger.obj
 0001:00095d10       _InitTriggerBbox           10096d10 f   g_trigger.obj
 0001:00095e70       _multi_wait                10096e70 f   g_trigger.obj
 0001:00095e80       _multi_trigger             10096e80 f   g_trigger.obj
 0001:00095f80       _Use_Multi                 10096f80 f   g_trigger.obj
 0001:00095ff0       _Touch_Multi               10096ff0 f   g_trigger.obj
 0001:000960f0       _trigger_enable            100970f0 f   g_trigger.obj
 0001:00096120       _SP_trigger_multiple       10097120 f   g_trigger.obj
 0001:000962a0       _SP_trigger_once           100972a0 f   g_trigger.obj
 0001:00096350       _SP_trigger_bbox           10097350 f   g_trigger.obj
 0001:00096460       _trigger_relay_use         10097460 f   g_trigger.obj
 0001:000964d0       _SP_trigger_relay          100974d0 f   g_trigger.obj
 0001:00096560       _trigger_key_use           10097560 f   g_trigger.obj
 0001:000968f0       _SP_trigger_key            100978f0 f   g_trigger.obj
 0001:000969e0       _trigger_counter_use       100979e0 f   g_trigger.obj
 0001:00096ae0       _SP_trigger_counter        10097ae0 f   g_trigger.obj
 0001:00096b20       _SP_trigger_always         10097b20 f   g_trigger.obj
 0001:00096b60       _trigger_push_touch        10097b60 f   g_trigger.obj
 0001:00096da0       _trigger_push_use          10097da0 f   g_trigger.obj
 0001:00096de0       _SP_trigger_push           10097de0 f   g_trigger.obj
 0001:00096f50       _SP_trigger_push_bbox      10097f50 f   g_trigger.obj
 0001:000970c0       _hurt_use                  100980c0 f   g_trigger.obj
 0001:00097120       _hurt_touch                10098120 f   g_trigger.obj
 0001:00097240       _SP_trigger_hurt           10098240 f   g_trigger.obj
 0001:000972e0       _SP_trigger_hurt_bbox      100982e0 f   g_trigger.obj
 0001:00097380       _trigger_gravity_use       10098380 f   g_trigger.obj
 0001:000973c0       _trigger_gravity_touch     100983c0 f   g_trigger.obj
 0001:000973e0       _SP_trigger_gravity        100983e0 f   g_trigger.obj
 0001:000974a0       _SP_trigger_gravity_bbox   100984a0 f   g_trigger.obj
 0001:00097560       _trigger_monsterjump_touch 10098560 f   g_trigger.obj
 0001:00097600       _SP_trigger_monsterjump    10098600 f   g_trigger.obj
 0001:000976a0       _SP_trigger_monsterjump_bbox 100986a0 f   g_trigger.obj
 0001:00097740       _trigger_mass_touch        10098740 f   g_trigger.obj
 0001:00097780       _SP_trigger_mass           10098780 f   g_trigger.obj
 0001:000978c0       _SP_trigger_mass_bbox      100988c0 f   g_trigger.obj
 0001:000979d0       _trigger_inside_think      100989d0 f   g_trigger.obj
 0001:00097bd0       _SP_trigger_inside         10098bd0 f   g_trigger.obj
 0001:00097d10       _SP_trigger_inside_bbox    10098d10 f   g_trigger.obj
 0001:00097e20       _weight_on_top             10098e20 f   g_trigger.obj
 0001:00097eb0       _trigger_scales_think      10098eb0 f   g_trigger.obj
 0001:000981e0       _SP_trigger_scales         100991e0 f   g_trigger.obj
 0001:000982d0       _SP_trigger_scales_bbox    100992d0 f   g_trigger.obj
 0001:00098390       _trigger_look_touch        10099390 f   g_trigger.obj
 0001:00098890       _trigger_look_disable      10099890 f   g_trigger.obj
 0001:00098910       _trigger_look_enable       10099910 f   g_trigger.obj
 0001:00098940       _SP_trigger_look           10099940 f   g_trigger.obj
 0001:00098a70       _trigger_speaker_think     10099a70 f   g_trigger.obj
 0001:00098c00       _trigger_speaker_disable   10099c00 f   g_trigger.obj
 0001:00098c30       _trigger_speaker_enable    10099c30 f   g_trigger.obj
 0001:00098c70       _SP_trigger_speaker        10099c70 f   g_trigger.obj
 0001:00098e00       _HasSpawnFunction          10099e00 f   g_trigger.obj
 0001:00098ec0       _WriteTransitionEdict      10099ec0 f   g_trigger.obj
 0001:00099300       _trans_ent_filename        1009a300 f   g_trigger.obj
 0001:00099320       _trigger_transition_ents   1009a320 f   g_trigger.obj
 0001:00099f20       _SP_trigger_transition     1009af20 f   g_trigger.obj
 0001:00099f90       _SP_trigger_transition_bbox 1009af90 f   g_trigger.obj
 0001:0009a0f0       _trigger_switch_delay      1009b0f0 f   g_trigger.obj
 0001:0009a120       _trigger_switch_usetargets 1009b120 f   g_trigger.obj
 0001:0009a6b0       _trigger_switch            1009b6b0 f   g_trigger.obj
 0001:0009a760       _touch_trigger_switch      1009b760 f   g_trigger.obj
 0001:0009a860       _use_trigger_switch        1009b860 f   g_trigger.obj
 0001:0009a880       _SP_trigger_switch         1009b880 f   g_trigger.obj
 0001:0009bd70       _TurretTarget              1009cd70 f   g_turret.obj
 0001:0009c020       _turret_blocked            1009d020 f   g_turret.obj
 0001:0009c200       _turret_breach_fire        1009d200 f   g_turret.obj
 0001:0009cb70       _turret_disengage          1009db70 f   g_turret.obj
 0001:0009cca0       _turret_turn               1009dca0 f   g_turret.obj
 0001:0009d340       _turret_breach_think       1009e340 f   g_turret.obj
 0001:0009ec50       _turret_breach_finish_init 1009fc50 f   g_turret.obj
 0001:0009ee50       _turret_breach_die_temp_think 1009fe50 f   g_turret.obj
 0001:0009eee0       _turret_breach_die         1009fee0 f   g_turret.obj
 0001:0009f350       _toggle_turret_breach      100a0350 f   g_turret.obj
 0001:0009f460       _turret_breach_use         100a0460 f   g_turret.obj
 0001:0009f4f0       _turret_breach_touch       100a04f0 f   g_turret.obj
 0001:0009f630       _SP_turret_breach          100a0630 f   g_turret.obj
 0001:0009fbd0       _SP_model_turret           100a0bd0 f   g_turret.obj
 0001:0009fc10       _turret_base_finish        100a0c10 f   g_turret.obj
 0001:0009fcd0       _turret_base_use           100a0cd0 f   g_turret.obj
 0001:0009fd20       _SP_turret_base            100a0d20 f   g_turret.obj
 0001:0009fe20       _turret_driver_die         100a0e20 f   g_turret.obj
 0001:0009ff40       _turret_driver_think       100a0f40 f   g_turret.obj
 0001:000a0170       _turret_driver_link        100a1170 f   g_turret.obj
 0001:000a03f0       _SP_turret_driver          100a13f0 f   g_turret.obj
 0001:000a0700       _turret_brain_think        100a1700 f   g_turret.obj
 0001:000a0a30       _turret_brain_link         100a1a30 f   g_turret.obj
 0001:000a0c30       _turret_brain_deactivate   100a1c30 f   g_turret.obj
 0001:000a0c70       _turret_brain_activate     100a1c70 f   g_turret.obj
 0001:000a0ce0       _SP_turret_invisible_brain 100a1ce0 f   g_turret.obj
 0001:000a21b0       _G_ProjectSource           100a31b0 f   g_utils.obj
 0001:000a2230       _G_ProjectSource2          100a3230 f   g_utils.obj
 0001:000a22d0       _G_Find                    100a32d0 f   g_utils.obj
 0001:000a2360       _findradius                100a3360 f   g_utils.obj
 0001:000a2450       _findradius2               100a3450 f   g_utils.obj
 0001:000a2560       _G_PickTarget              100a3560 f   g_utils.obj
 0001:000a2600       _Think_Delay               100a3600 f   g_utils.obj
 0001:000a2630       _G_UseTargets              100a3630 f   g_utils.obj
 0001:000a2a90       _tv                        100a3a90 f   g_utils.obj
 0001:000a2ae0       _vtos                      100a3ae0 f   g_utils.obj
 0001:000a2b50       _G_SetMovedir              100a3b50 f   g_utils.obj
 0001:000a2c00       _G_SetMovedir2             100a3c00 f   g_utils.obj
 0001:000a2c90       _vectoyaw                  100a3c90 f   g_utils.obj
 0001:000a2d50       _vectoyaw2                 100a3d50 f   g_utils.obj
 0001:000a2e00       _vectopitch                100a3e00 f   g_utils.obj
 0001:000a2f00       _vectoangles               100a3f00 f   g_utils.obj
 0001:000a3090       _vectoangles2              100a4090 f   g_utils.obj
 0001:000a3210       _G_CopyString              100a4210 f   g_utils.obj
 0001:000a3250       _G_InitEdict               100a4250 f   g_utils.obj
 0001:000a32e0       _G_Spawn                   100a42e0 f   g_utils.obj
 0001:000a33d0       _G_FreeEdict               100a43d0 f   g_utils.obj
 0001:000a34c0       _G_TouchTriggers           100a44c0 f   g_utils.obj
 0001:000a35c0       _G_TouchSolids             100a45c0 f   g_utils.obj
 0001:000a3670       _KillBox                   100a4670 f   g_utils.obj
 0001:000a3740       _AnglesNormalize           100a4740 f   g_utils.obj
 0001:000a37e0       _SnapToEights              100a47e0 f   g_utils.obj
 0001:000a3840       _stuffcmd                  100a4840 f   g_utils.obj
 0001:000a3870       _point_infront             100a4870 f   g_utils.obj
 0001:000a3900       _AtLeast                   100a4900 f   g_utils.obj
 0001:000a3960       _LookingAt                 100a4960 f   g_utils.obj
 0001:000a4000       _GameDirRelativePath       100a5000 f   g_utils.obj
 0001:000a4090       _Think_Delay_Single        100a5090 f   g_utils.obj
 0001:000a40d0       _G_UseTarget               100a50d0 f   g_utils.obj
 0001:000a43f0       _IsIdMap                   100a53f0 f   g_utils.obj
 0001:000a4a30       _IsXatrixMap               100a5a30 f   g_utils.obj
 0001:000a4d50       _IsRogueMap                100a5d50 f   g_utils.obj
 0001:000a50f0       _UseSpecialGoodGuyFlag     100a60f0 f   g_utils.obj
 0001:000a5160       _UseRegularGoodGuyFlag     100a6160 f   g_utils.obj
 0001:000a5e10       _func_vehicle_explode      100a6e10 f   g_vehicle.obj
 0001:000a61a0       _vehicle_blocked           100a71a0 f   g_vehicle.obj
 0001:000a6360       _vehicle_touch             100a7360 f   g_vehicle.obj
 0001:000a6890       _vehicle_disengage         100a7890 f   g_vehicle.obj
 0001:000a6a20       _vehicle_think             100a7a20 f   g_vehicle.obj
 0001:000a7440       _turn_vehicle              100a8440 f   g_vehicle.obj
 0001:000a7470       _SP_func_vehicle           100a8470 f   g_vehicle.obj
 0001:000a7de0       _check_dodge               100a8de0 f   g_weapon.obj
 0001:000a7f40       _fire_hit                  100a8f40 f   g_weapon.obj
 0001:000a82c0       _fire_bullet               100a92c0 f   g_weapon.obj
 0001:000a8960       _fire_shotgun              100a9960 f   g_weapon.obj
 0001:000a89b0       _blaster_touch             100a99b0 f   g_weapon.obj
 0001:000a8b50       _fire_blaster              100a9b50 f   g_weapon.obj
 0001:000a8e50       _fire_blueblaster          100a9e50 f   g_weapon.obj
 0001:000a90f0       _bolt_delayed_start        100aa0f0 f   g_weapon.obj
 0001:000a9180       _SP_bolt                   100aa180 f   g_weapon.obj
 0001:000a92c0       _Grenade_Evade             100aa2c0 f   g_weapon.obj
 0001:000a9630       _Grenade_Explode           100aa630 f   g_weapon.obj
 0001:000a9920       _fire_grenade              100aa920 f   g_weapon.obj
 0001:000a9e60       _fire_grenade2             100aae60 f   g_weapon.obj
 0001:000aa220       _grenade_delayed_start     100ab220 f   g_weapon.obj
 0001:000aa2b0       _SP_grenade                100ab2b0 f   g_weapon.obj
 0001:000aa3e0       _handgrenade_delayed_start 100ab3e0 f   g_weapon.obj
 0001:000aa4c0       _SP_handgrenade            100ab4c0 f   g_weapon.obj
 0001:000aa5f0       _shock_effect_think        100ab5f0 f   g_weapon.obj
 0001:000aa6f0       _shock_effect_center_think 100ab6f0 f   g_weapon.obj
 0001:000aa830       _ShockEffect               100ab830 f   g_weapon.obj
 0001:000aab10       _ShockSplash               100abb10 f   g_weapon.obj
 0001:000aaba0       _shock_sphere_touch        100abba0 f   g_weapon.obj
 0001:000aaf30       _shock_sphere_think        100abf30 f   g_weapon.obj
 0001:000aaf70       _fire_shock_sphere         100abf70 f   g_weapon.obj
 0001:000ab1c0       _shocksphere_delayed_start 100ac1c0 f   g_weapon.obj
 0001:000ab270       _SP_shocksphere            100ac270 f   g_weapon.obj
 0001:000ab3c0       _missile_touch             100ac3c0 f   g_weapon.obj
 0001:000ab690       _fire_missile              100ac690 f   g_weapon.obj
 0001:000abc40       _missile_delayed_start     100acc40 f   g_weapon.obj
 0001:000abcd0       _SP_missile                100accd0 f   g_weapon.obj
 0001:000abe10       _homing_think              100ace10 f   g_weapon.obj
 0001:000ac150       _Rocket_Evade              100ad150 f   g_weapon.obj
 0001:000ac5e0       _rocket_touch              100ad5e0 f   g_weapon.obj
 0001:000ac8b0       _fire_rocket               100ad8b0 f   g_weapon.obj
 0001:000ace60       _rocket_delayed_start      100ade60 f   g_weapon.obj
 0001:000acef0       _SP_rocket                 100adef0 f   g_weapon.obj
 0001:000ad060       _fire_rail                 100ae060 f   g_weapon.obj
 0001:000ad2a0       _bfg_explode               100ae2a0 f   g_weapon.obj
 0001:000ad4c0       _bfg_touch                 100ae4c0 f   g_weapon.obj
 0001:000ad6e0       _bfg_think                 100ae6e0 f   g_weapon.obj
 0001:000ada20       _fire_bfg                  100aea20 f   g_weapon.obj
 0001:000adc30       _ionripper_sparks          100aec30 f   g_weapon.obj
 0001:000adcf0       _ionripper_touch           100aecf0 f   g_weapon.obj
 0001:000adea0       _fire_ionripper            100aeea0 f   g_weapon.obj
 0001:000ae120       _ion_delayed_start         100af120 f   g_weapon.obj
 0001:000ae1b0       _SP_ion                    100af1b0 f   g_weapon.obj
 0001:000ae2a0       _heat_think                100af2a0 f   g_weapon.obj
 0001:000ae4a0       _rocket_heat_think         100af4a0 f   g_weapon.obj
 0001:000ae6c0       _fire_rocket_heat          100af6c0 f   g_weapon.obj
 0001:000ae8a0       _plasma_touch              100af8a0 f   g_weapon.obj
 0001:000aea00       _fire_plasma               100afa00 f   g_weapon.obj
 0001:000aebf0       _plasma_delayed_start      100afbf0 f   g_weapon.obj
 0001:000aec80       _SP_plasma                 100afc80 f   g_weapon.obj
 0001:000aedd0       _fire_trap                 100afdd0 f   g_weapon.obj
 0001:000af780       _trap_delayed_start        100b0780 f   g_weapon.obj
 0001:000af810       _SP_trap                   100b0810 f   g_weapon.obj
 0001:000af940       _Trap_Die                  100b0940 f   g_weapon.obj
 0001:000af960       _Cmd_KillTrap_f            100b0960 f   g_weapon.obj
 0001:000af9f0       _Trap_Explode              100b09f0 f   g_weapon.obj
 0001:000b1990       _AimGrenade                100b2990 f   grenade.obj
 0001:000b2590       _lithium_defaults          100b3590 f   km_cvar.obj
 0001:000b3bf0       _actor_stand               100b4bf0 f   m_actor.obj
 0001:000b3c80       _actor_walk                100b4c80 f   m_actor.obj
 0001:000b3ea0       _actor_walk_back           100b4ea0 f   m_actor.obj
 0001:000b4020       _actor_run                 100b5020 f   m_actor.obj
 0001:000b4180       _actor_run_back            100b5180 f   m_actor.obj
 0001:000b42c0       _actor_ideal_range         100b52c0 f   m_actor.obj
 0001:000b44e0       _actor_switch              100b54e0 f   m_actor.obj
 0001:000b4530       _actor_pain                100b5530 f   m_actor.obj
 0001:000b4730       _actor_dead                100b5730 f   m_actor.obj
 0001:000b4810       _actor_die                 100b5810 f   m_actor.obj
 0001:000b4a50       _actor_fire                100b5a50 f   m_actor.obj
 0001:000b4dd0       _actor_no_weapon_sound     100b5dd0 f   m_actor.obj
 0001:000b4df0       _actor_seekcover           100b5df0 f   m_actor.obj
 0001:000b54d0       _actor_attack              100b64d0 f   m_actor.obj
 0001:000b5970       _actor_use                 100b6970 f   m_actor.obj
 0001:000b5b00       _actor_checkattack         100b6b00 f   m_actor.obj
 0001:000b6040       _actor_end_jump            100b7040 f   m_actor.obj
 0001:000b60c0       _actor_jump                100b70c0 f   m_actor.obj
 0001:000b6100       _actor_blocked             100b7100 f   m_actor.obj
 0001:000b61a0       _actor_salute              100b71a0 f   m_actor.obj
 0001:000b61c0       _SP_misc_actor             100b71c0 f   m_actor.obj
 0001:000b7ad0       _target_actor_touch        100b8ad0 f   m_actor.obj
 0001:000b7f60       _SP_target_actor           100b8f60 f   m_actor.obj
 0001:000b8100       _InPak                     100b9100 f   m_actor.obj
 0001:000b8300       _actor_files               100b9300 f   m_actor.obj
 0001:000b94e0       _actor_moveit              100ba4e0 f   m_actor.obj
 0001:000bb0c0       _muzzleflash_think         100bc0c0 f   m_actor_weap.obj
 0001:000bb180       _TraceAimPoint             100bc180 f   m_actor_weap.obj
 0001:000bb1d0       _ActorTarget               100bc1d0 f   m_actor_weap.obj
 0001:000bb7b0       _actorBlaster              100bc7b0 f   m_actor_weap.obj
 0001:000bb9d0       _actorShotgun              100bc9d0 f   m_actor_weap.obj
 0001:000bbc90       _actorSuperShotgun         100bcc90 f   m_actor_weap.obj
 0001:000bbfc0       _actorMachineGun           100bcfc0 f   m_actor_weap.obj
 0001:000bc2c0       _actorChaingun             100bd2c0 f   m_actor_weap.obj
 0001:000bc720       _actorGrenadeLauncher      100bd720 f   m_actor_weap.obj
 0001:000bd170       _actorRocket               100be170 f   m_actor_weap.obj
 0001:000bd390       _actorHyperblaster         100be390 f   m_actor_weap.obj
 0001:000bd7e0       _actorRailGun              100be7e0 f   m_actor_weap.obj
 0001:000bd9c0       _actorBFG                  100be9c0 f   m_actor_weap.obj
 0001:000bdc00       _actorIonripper            100bec00 f   m_actor_weap.obj
 0001:000bde10       _actorPhalanx              100bee10 f   m_actor_weap.obj
 0001:000be0c0       _actorETF_Rifle            100bf0c0 f   m_actor_weap.obj
 0001:000be2e0       _actorPlasmaBeam           100bf2e0 f   m_actor_weap.obj
 0001:000be4f0       _actorDisintegrator        100bf4f0 f   m_actor_weap.obj
 0001:000bf460       _berserk_sight             100c0460 f   m_berserk.obj
 0001:000bf490       _berserk_search            100c0490 f   m_berserk.obj
 0001:000bf4c0       _berserk_stand             100c04c0 f   m_berserk.obj
 0001:000bf4e0       _berserk_fidget            100c04e0 f   m_berserk.obj
 0001:000bf570       _berserk_walk              100c0570 f   m_berserk.obj
 0001:000bf590       _berserk_run               100c0590 f   m_berserk.obj
 0001:000bf5d0       _berserk_attack_spike      100c05d0 f   m_berserk.obj
 0001:000bf600       _berserk_swing             100c0600 f   m_berserk.obj
 0001:000bf630       _berserk_attack_club       100c0630 f   m_berserk.obj
 0001:000bf680       _berserk_strike            100c0680 f   m_berserk.obj
 0001:000bf690       _berserk_melee             100c0690 f   m_berserk.obj
 0001:000bf6e0       _berserk_pain              100c06e0 f   m_berserk.obj
 0001:000bf7e0       _berserk_dead              100c07e0 f   m_berserk.obj
 0001:000bf8c0       _berserk_die               100c08c0 f   m_berserk.obj
 0001:000bfa30       _berserk_jump_now          100c0a30 f   m_berserk.obj
 0001:000bfac0       _berserk_jump2_now         100c0ac0 f   m_berserk.obj
 0001:000bfb50       _berserk_jump_wait_land    100c0b50 f   m_berserk.obj
 0001:000bfbb0       _berserk_jump              100c0bb0 f   m_berserk.obj
 0001:000bfc10       _berserk_blocked           100c0c10 f   m_berserk.obj
 0001:000bfc80       _berserk_sidestep          100c0c80 f   m_berserk.obj
 0001:000bfcd0       _SP_monster_berserk        100c0cd0 f   m_berserk.obj
 0001:000c02b0       _boss2_search              100c12b0 f   m_boss2.obj
 0001:000c0310       _Boss2PredictiveRocket     100c1310 f   m_boss2.obj
 0001:000c0b10       _Boss2Rocket               100c1b10 f   m_boss2.obj
 0001:000c12a0       _boss2_firebullet_right    100c22a0 f   m_boss2.obj
 0001:000c1460       _boss2_firebullet_left     100c2460 f   m_boss2.obj
 0001:000c1610       _Boss2MachineGun           100c2610 f   m_boss2.obj
 0001:000c1630       _boss2_stand               100c2630 f   m_boss2.obj
 0001:000c1650       _boss2_run                 100c2650 f   m_boss2.obj
 0001:000c1680       _boss2_walk                100c2680 f   m_boss2.obj
 0001:000c16a0       _boss2_attack              100c26a0 f   m_boss2.obj
 0001:000c1760       _boss2_attack_mg           100c2760 f   m_boss2.obj
 0001:000c1780       _boss2_reattack_mg         100c2780 f   m_boss2.obj
 0001:000c17f0       _boss2_pain                100c27f0 f   m_boss2.obj
 0001:000c1920       _boss2_dead                100c2920 f   m_boss2.obj
 0001:000c19c0       _boss2_die                 100c29c0 f   m_boss2.obj
 0001:000c1aa0       _Boss2_CheckAttack         100c2aa0 f   m_boss2.obj
 0001:000c1de0       _SP_monster_boss2          100c2de0 f   m_boss2.obj
 0001:000c2850       _Use_Boss3                 100c3850 f   m_boss3.obj
 0001:000c28a0       _Think_Boss3Stand          100c38a0 f   m_boss3.obj
 0001:000c28f0       _SP_monster_boss3_stand    100c38f0 f   m_boss3.obj
 0001:000c2a80       _jorg_search               100c3a80 f   m_boss31.obj
 0001:000c2b40       _jorg_idle                 100c3b40 f   m_boss31.obj
 0001:000c2b70       _jorg_death_hit            100c3b70 f   m_boss31.obj
 0001:000c2ba0       _jorg_step_left            100c3ba0 f   m_boss31.obj
 0001:000c2bd0       _jorg_step_right           100c3bd0 f   m_boss31.obj
 0001:000c2c00       _jorg_stand                100c3c00 f   m_boss31.obj
 0001:000c2c20       _jorg_walk                 100c3c20 f   m_boss31.obj
 0001:000c2c40       _jorg_run                  100c3c40 f   m_boss31.obj
 0001:000c2c70       _jorg_reattack1            100c3c70 f   m_boss31.obj
 0001:000c2d00       _jorg_attack1              100c3d00 f   m_boss31.obj
 0001:000c2d20       _jorg_pain                 100c3d20 f   m_boss31.obj
 0001:000c2f80       _jorgBFG                   100c3f80 f   m_boss31.obj
 0001:000c3160       _jorg_firebullet_right     100c4160 f   m_boss31.obj
 0001:000c3310       _jorg_firebullet_left      100c4310 f   m_boss31.obj
 0001:000c34c0       _jorg_firebullet           100c44c0 f   m_boss31.obj
 0001:000c34e0       _jorg_attack               100c44e0 f   m_boss31.obj
 0001:000c35f0       _JorgExplode               100c45f0 f   m_boss31.obj
 0001:000c38c0       _jorg_dead                 100c48c0 f   m_boss31.obj
 0001:000c39c0       _jorg_die                  100c49c0 f   m_boss31.obj
 0001:000c3b50       _Jorg_CheckAttack          100c4b50 f   m_boss31.obj
 0001:000c3e60       _SP_monster_jorg           100c4e60 f   m_boss31.obj
 0001:000c4870       _makron_taunt              100c5870 f   m_boss32.obj
 0001:000c4930       _makron_stand              100c5930 f   m_boss32.obj
 0001:000c4950       _makron_hit                100c5950 f   m_boss32.obj
 0001:000c4980       _makron_popup              100c5980 f   m_boss32.obj
 0001:000c49b0       _makron_step_left          100c59b0 f   m_boss32.obj
 0001:000c49e0       _makron_step_right         100c59e0 f   m_boss32.obj
 0001:000c4a10       _makron_brainsplorch       100c5a10 f   m_boss32.obj
 0001:000c4a40       _makron_prerailgun         100c5a40 f   m_boss32.obj
 0001:000c4a70       _makron_walk               100c5a70 f   m_boss32.obj
 0001:000c4a90       _makron_run                100c5a90 f   m_boss32.obj
 0001:000c4ac0       _makronBFG                 100c5ac0 f   m_boss32.obj
 0001:000c4ca0       _MakronSaveloc             100c5ca0 f   m_boss32.obj
 0001:000c4d10       _MakronRailgun             100c5d10 f   m_boss32.obj
 0001:000c4eb0       _MakronHyperblaster        100c5eb0 f   m_boss32.obj
 0001:000c50f0       _makron_pain               100c60f0 f   m_boss32.obj
 0001:000c5300       _makron_sight              100c6300 f   m_boss32.obj
 0001:000c5320       _makron_attack             100c6320 f   m_boss32.obj
 0001:000c5420       _makron_torso_think        100c6420 f   m_boss32.obj
 0001:000c5480       _makron_torso              100c6480 f   m_boss32.obj
 0001:000c5560       _makron_dead               100c6560 f   m_boss32.obj
 0001:000c5610       _makron_die                100c6610 f   m_boss32.obj
 0001:000c5830       _Makron_CheckAttack        100c6830 f   m_boss32.obj
 0001:000c5b40       _MakronPrecache            100c6b40 f   m_boss32.obj
 0001:000c5c60       _Makron_blocked            100c6c60 f   m_boss32.obj
 0001:000c5cc0       _SP_monster_makron         100c6cc0 f   m_boss32.obj
 0001:000c5cf0       _SP_monster_makron_put     100c6cf0 f   m_boss32.obj
 0001:000c5ff0       _MakronSpawn               100c6ff0 f   m_boss32.obj
 0001:000c60d0       _MakronToss                100c70d0 f   m_boss32.obj
 0001:000c6800       _TreadSound2               100c7800 f   m_boss5.obj
 0001:000c6830       _boss5_search              100c7830 f   m_boss5.obj
 0001:000c68b0       _boss5_stand               100c78b0 f   m_boss5.obj
 0001:000c68d0       _boss5_forward             100c78d0 f   m_boss5.obj
 0001:000c68f0       _boss5_walk                100c78f0 f   m_boss5.obj
 0001:000c6910       _boss5_run                 100c7910 f   m_boss5.obj
 0001:000c6940       _boss5_reattack1           100c7940 f   m_boss5.obj
 0001:000c69b0       _boss5_pain                100c79b0 f   m_boss5.obj
 0001:000c6b40       _boss5Rocket               100c7b40 f   m_boss5.obj
 0001:000c6d40       _boss5MachineGun           100c7d40 f   m_boss5.obj
 0001:000c6f50       _boss5_attack              100c7f50 f   m_boss5.obj
 0001:000c7010       _boss5_dead                100c8010 f   m_boss5.obj
 0001:000c70b0       _boss5_die                 100c80b0 f   m_boss5.obj
 0001:000c7190       _boss5_blocked             100c8190 f   m_boss5.obj
 0001:000c71f0       _SP_monster_boss5          100c81f0 f   m_boss5.obj
 0001:000c7840       _brain_sight               100c8840 f   m_brain.obj
 0001:000c7870       _brain_search              100c8870 f   m_brain.obj
 0001:000c78a0       _brain_stand               100c88a0 f   m_brain.obj
 0001:000c78c0       _brain_idle                100c88c0 f   m_brain.obj
 0001:000c79b0       _brain_walk                100c89b0 f   m_brain.obj
 0001:000c79d0       _brain_swing_right         100c89d0 f   m_brain.obj
 0001:000c7a00       _brain_hit_right           100c8a00 f   m_brain.obj
 0001:000c7a80       _brain_swing_left          100c8a80 f   m_brain.obj
 0001:000c7ab0       _brain_hit_left            100c8ab0 f   m_brain.obj
 0001:000c7b30       _brain_chest_open          100c8b30 f   m_brain.obj
 0001:000c7b90       _brain_tentacle_attack     100c8b90 f   m_brain.obj
 0001:000c7c30       _brain_chest_closed        100c8c30 f   m_brain.obj
 0001:000c7c80       _brain_melee               100c8c80 f   m_brain.obj
 0001:000c7cd0       _brain_run                 100c8cd0 f   m_brain.obj
 0001:000c7d10       _brain_pain                100c8d10 f   m_brain.obj
 0001:000c7e90       _brain_dead                100c8e90 f   m_brain.obj
 0001:000c7f80       _brain_die                 100c8f80 f   m_brain.obj
 0001:000c8130       _brain_duck                100c9130 f   m_brain.obj
 0001:000c81c0       _SP_monster_brain          100c91c0 f   m_brain.obj
 0001:000c88c0       _brainbeta_sight           100c98c0 f   m_brainbeta.obj
 0001:000c88f0       _brainbeta_search          100c98f0 f   m_brainbeta.obj
 0001:000c8920       _brainbeta_stand           100c9920 f   m_brainbeta.obj
 0001:000c8940       _brainbeta_idle            100c9940 f   m_brainbeta.obj
 0001:000c8a30       _brainbeta_walk            100c9a30 f   m_brainbeta.obj
 0001:000c8a50       _brainbeta_swing_right     100c9a50 f   m_brainbeta.obj
 0001:000c8a80       _brainbeta_hit_right       100c9a80 f   m_brainbeta.obj
 0001:000c8b00       _brainbeta_swing_left      100c9b00 f   m_brainbeta.obj
 0001:000c8b30       _brainbeta_hit_left        100c9b30 f   m_brainbeta.obj
 0001:000c8bb0       _brainbeta_chest_open      100c9bb0 f   m_brainbeta.obj
 0001:000c8c10       _brainbeta_tentacle_attack 100c9c10 f   m_brainbeta.obj
 0001:000c8cb0       _brainbeta_chest_closed    100c9cb0 f   m_brainbeta.obj
 0001:000c8d00       _brainbeta_tounge_attack   100c9d00 f   m_brainbeta.obj
 0001:000c9090       _brainbeta_laserbeam       100ca090 f   m_brainbeta.obj
 0001:000c9410       _brainbeta_laserbeam_reattack 100ca410 f   m_brainbeta.obj
 0001:000c9480       _brainbeta_attack          100ca480 f   m_brainbeta.obj
 0001:000c9580       _brainbeta_run             100ca580 f   m_brainbeta.obj
 0001:000c95c0       _brainbeta_pain            100ca5c0 f   m_brainbeta.obj
 0001:000c9740       _brainbeta_dead            100ca740 f   m_brainbeta.obj
 0001:000c9830       _brainbeta_die             100ca830 f   m_brainbeta.obj
 0001:000c99e0       _brainbeta_duck            100ca9e0 f   m_brainbeta.obj
 0001:000c9a70       _SP_monster_brain_beta     100caa70 f   m_brainbeta.obj
 0001:000ca390       _carrier_sight             100cb390 f   m_carrier.obj
 0001:000ca3c0       _CarrierCoopCheck          100cb3c0 f   m_carrier.obj
 0001:000ca5a0       _CarrierGrenade            100cb5a0 f   m_carrier.obj
 0001:000ca8a0       _CarrierPredictiveRocket   100cb8a0 f   m_carrier.obj
 0001:000cab30       _CarrierRocket             100cbb30 f   m_carrier.obj
 0001:000cb2d0       _carrier_firebullet_right  100cc2d0 f   m_carrier.obj
 0001:000cb4b0       _carrier_firebullet_left   100cc4b0 f   m_carrier.obj
 0001:000cb690       _CarrierMachineGun         100cc690 f   m_carrier.obj
 0001:000cb6e0       _CarrierSpawn              100cc6e0 f   m_carrier.obj
 0001:000cb960       _carrier_prep_spawn        100cc960 f   m_carrier.obj
 0001:000cb9c0       _carrier_spawn_check       100cc9c0 f   m_carrier.obj
 0001:000cba40       _carrier_ready_spawn       100cca40 f   m_carrier.obj
 0001:000cbb70       _carrier_start_spawn       100ccb70 f   m_carrier.obj
 0001:000cbcb0       _CarrierRail               100cccb0 f   m_carrier.obj
 0001:000cbe70       _CarrierSaveLoc            100cce70 f   m_carrier.obj
 0001:000cbef0       _carrier_stand             100ccef0 f   m_carrier.obj
 0001:000cbf10       _carrier_run               100ccf10 f   m_carrier.obj
 0001:000cbf60       _carrier_walk              100ccf60 f   m_carrier.obj
 0001:000cbf80       _CarrierMachineGunHold     100ccf80 f   m_carrier.obj
 0001:000cbfa0       _carrier_attack            100ccfa0 f   m_carrier.obj
 0001:000cc5c0       _carrier_attack_mg         100cd5c0 f   m_carrier.obj
 0001:000cc5e0       _carrier_reattack_mg       100cd5e0 f   m_carrier.obj
 0001:000cc6a0       _carrier_attack_gren       100cd6a0 f   m_carrier.obj
 0001:000cc6d0       _carrier_reattack_gren     100cd6d0 f   m_carrier.obj
 0001:000cc740       _carrier_pain              100cd740 f   m_carrier.obj
 0001:000cc900       _carrier_dead              100cd900 f   m_carrier.obj
 0001:000cc9a0       _carrier_die               100cd9a0 f   m_carrier.obj
 0001:000cca40       _Carrier_CheckAttack       100cda40 f   m_carrier.obj
 0001:000cce10       _CarrierPrecache           100cde10 f   m_carrier.obj
 0001:000ccf50       _SP_monster_carrier        100cdf50 f   m_carrier.obj
 0001:000cdfa0       _ChickMoan                 100cefa0 f   m_chick.obj
 0001:000ce040       _chick_fidget              100cf040 f   m_chick.obj
 0001:000ce090       _chick_stand               100cf090 f   m_chick.obj
 0001:000ce0b0       _chick_walk                100cf0b0 f   m_chick.obj
 0001:000ce0d0       _chick_run                 100cf0d0 f   m_chick.obj
 0001:000ce140       _chick_pain                100cf140 f   m_chick.obj
 0001:000ce310       _chick_dead                100cf310 f   m_chick.obj
 0001:000ce3f0       _chick_die                 100cf3f0 f   m_chick.obj
 0001:000ce640       _ChickSlash                100cf640 f   m_chick.obj
 0001:000ce6c0       _ChickRocket               100cf6c0 f   m_chick.obj
 0001:000cee40       _Chick_PreAttack1          100cfe40 f   m_chick.obj
 0001:000cee70       _ChickReload               100cfe70 f   m_chick.obj
 0001:000ceea0       _chick_rerocket            100cfea0 f   m_chick.obj
 0001:000cef80       _chick_attack1             100cff80 f   m_chick.obj
 0001:000cefa0       _chick_reslash             100cffa0 f   m_chick.obj
 0001:000cf030       _chick_slash               100d0030 f   m_chick.obj
 0001:000cf050       _chick_melee               100d0050 f   m_chick.obj
 0001:000cf070       _chick_attack              100d0070 f   m_chick.obj
 0001:000cf1b0       _chick_sight               100d01b0 f   m_chick.obj
 0001:000cf1e0       _chick_blocked             100d01e0 f   m_chick.obj
 0001:000cf240       _chick_duck                100d0240 f   m_chick.obj
 0001:000cf320       _chick_sidestep            100d0320 f   m_chick.obj
 0001:000cf390       _SP_monster_chick          100d0390 f   m_chick.obj
 0001:000cf800       _SP_monster_chick_heat     100d0800 f   m_chick.obj
 0001:000cfeb0       _dog_sight                 100d0eb0 f   m_dog.obj
 0001:000cfee0       _dog_stand                 100d0ee0 f   m_dog.obj
 0001:000cff00       _dog_walk                  100d0f00 f   m_dog.obj
 0001:000cff20       _dog_run                   100d0f20 f   m_dog.obj
 0001:000cff50       _dog_pain                  100d0f50 f   m_dog.obj
 0001:000d01a0       _dog_melee                 100d11a0 f   m_dog.obj
 0001:000d0430       _dog_leap                  100d1430 f   m_dog.obj
 0001:000d0450       _dog_checkattack           100d1450 f   m_dog.obj
 0001:000d06b0       _dog_dead                  100d16b0 f   m_dog.obj
 0001:000d0780       _dog_die                   100d1780 f   m_dog.obj
 0001:000d0910       _SP_monster_dog            100d1910 f   m_dog.obj
 0001:000d0f40       _crand                     100d1f40 f   m_fixbot.obj
 0001:000d0f70       _fixbot_FindDeadMonster    100d1f70 f   m_fixbot.obj
 0001:000d1070       _fixbot_search             100d2070 f   m_fixbot.obj
 0001:000d1100       _landing_goal              100d2100 f   m_fixbot.obj
 0001:000d12a0       _takeoff_goal              100d22a0 f   m_fixbot.obj
 0001:000d1440       _change_to_roam            100d2440 f   m_fixbot.obj
 0001:000d1550       _roam_goal                 100d2550 f   m_fixbot.obj
 0001:000d1750       _use_scanner               100d2750 f   m_fixbot.obj
 0001:000d1a80       _blastoff                  100d2a80 f   m_fixbot.obj
 0001:000d2100       _fly_vertical              100d3100 f   m_fixbot.obj
 0001:000d2270       _fly_vertical2             100d3270 f   m_fixbot.obj
 0001:000d2350       _ai_facing                 100d3350 f   m_fixbot.obj
 0001:000d23f0       _go_roam                   100d33f0 f   m_fixbot.obj
 0001:000d2410       _ai_movetogoal             100d3410 f   m_fixbot.obj
 0001:000d2430       _check_telefrag            100d3430 f   m_fixbot.obj
 0001:000d2520       _fixbot_fire_laser         100d3520 f   m_fixbot.obj
 0001:000d2930       _weldstate                 100d3930 f   m_fixbot.obj
 0001:000d29e0       _ai_move2                  100d39e0 f   m_fixbot.obj
 0001:000d2a80       _fixbot_fire_welder        100d3a80 f   m_fixbot.obj
 0001:000d2c90       _fixbot_fire_blaster       100d3c90 f   m_fixbot.obj
 0001:000d2e60       _fixbot_stand              100d3e60 f   m_fixbot.obj
 0001:000d2e80       _fixbot_run                100d3e80 f   m_fixbot.obj
 0001:000d2eb0       _fixbot_walk               100d3eb0 f   m_fixbot.obj
 0001:000d2f50       _fixbot_start_attack       100d3f50 f   m_fixbot.obj
 0001:000d2f70       _fixbot_attack             100d3f70 f   m_fixbot.obj
 0001:000d3030       _fixbot_pain               100d4030 f   m_fixbot.obj
 0001:000d30d0       _fixbot_dead               100d40d0 f   m_fixbot.obj
 0001:000d3170       _fixbot_die                100d4170 f   m_fixbot.obj
 0001:000d3210       _SP_monster_fixbot         100d4210 f   m_fixbot.obj
 0001:000d3de0       _flipper_breathe           100d4de0 f   m_flipper.obj
 0001:000d3e20       _flipper_search            100d4e20 f   m_flipper.obj
 0001:000d3e50       _flipper_stand             100d4e50 f   m_flipper.obj
 0001:000d3ea0       _flipper_run_loop          100d4ea0 f   m_flipper.obj
 0001:000d3ec0       _flipper_run               100d4ec0 f   m_flipper.obj
 0001:000d3ee0       _flipper_walk              100d4ee0 f   m_flipper.obj
 0001:000d3f00       _flipper_start_run         100d4f00 f   m_flipper.obj
 0001:000d3f20       _flipper_bite              100d4f20 f   m_flipper.obj
 0001:000d3f60       _flipper_preattack         100d4f60 f   m_flipper.obj
 0001:000d3f90       _flipper_melee             100d4f90 f   m_flipper.obj
 0001:000d3fb0       _flipper_pain              100d4fb0 f   m_flipper.obj
 0001:000d40c0       _flipper_dead              100d50c0 f   m_flipper.obj
 0001:000d41a0       _flipper_sight             100d51a0 f   m_flipper.obj
 0001:000d41d0       _flipper_die               100d51d0 f   m_flipper.obj
 0001:000d4340       _SP_monster_flipper        100d5340 f   m_flipper.obj
 0001:000d4820       _floater_sight             100d5820 f   m_float.obj
 0001:000d4850       _floater_idle              100d5850 f   m_float.obj
 0001:000d4890       _floater_fire_blaster      100d5890 f   m_float.obj
 0001:000d4a70       _floater_stand             100d5a70 f   m_float.obj
 0001:000d4ac0       _floater_run               100d5ac0 f   m_float.obj
 0001:000d4af0       _floater_walk              100d5af0 f   m_float.obj
 0001:000d4b10       _floater_wham              100d5b10 f   m_float.obj
 0001:000d4b60       _floater_zap               100d5b60 f   m_float.obj
 0001:000d4cc0       _floater_attack            100d5cc0 f   m_float.obj
 0001:000d4d90       _floater_melee             100d5d90 f   m_float.obj
 0001:000d4de0       _floater_pain              100d5de0 f   m_float.obj
 0001:000d4f00       _floater_dead              100d5f00 f   m_float.obj
 0001:000d4fa0       _floater_die               100d5fa0 f   m_float.obj
 0001:000d5070       _floater_blocked           100d6070 f   m_float.obj
 0001:000d50b0       _SP_monster_floater        100d60b0 f   m_float.obj
 0001:000d56f0       _flyer_sight               100d66f0 f   m_flyer.obj
 0001:000d5720       _flyer_idle                100d6720 f   m_flyer.obj
 0001:000d5750       _flyer_pop_blades          100d6750 f   m_flyer.obj
 0001:000d5780       _flyer_run                 100d6780 f   m_flyer.obj
 0001:000d57e0       _flyer_walk                100d67e0 f   m_flyer.obj
 0001:000d5820       _flyer_stand               100d6820 f   m_flyer.obj
 0001:000d5860       _flyer_kamikaze_explode    100d6860 f   m_flyer.obj
 0001:000d5960       _flyer_kamikaze            100d6960 f   m_flyer.obj
 0001:000d5980       _flyer_kamikaze_check      100d6980 f   m_flyer.obj
 0001:000d5a10       _flyer_stop                100d6a10 f   m_flyer.obj
 0001:000d5a30       _flyer_start               100d6a30 f   m_flyer.obj
 0001:000d5a50       _flyer_fire                100d6a50 f   m_flyer.obj
 0001:000d5c40       _flyer_fireleft            100d6c40 f   m_flyer.obj
 0001:000d5c60       _flyer_fireright           100d6c60 f   m_flyer.obj
 0001:000d5c80       _flyer_slash_left          100d6c80 f   m_flyer.obj
 0001:000d5ce0       _flyer_slash_right         100d6ce0 f   m_flyer.obj
 0001:000d5d40       _flyer_loop_melee          100d6d40 f   m_flyer.obj
 0001:000d5d60       _flyer_attack              100d6d60 f   m_flyer.obj
 0001:000d5e60       _flyer_setstart            100d6e60 f   m_flyer.obj
 0001:000d5e80       _flyer_nextmove            100d6e80 f   m_flyer.obj
 0001:000d5ed0       _flyer_melee               100d6ed0 f   m_flyer.obj
 0001:000d5f10       _flyer_check_melee         100d6f10 f   m_flyer.obj
 0001:000d5f80       _flyer_pain                100d6f80 f   m_flyer.obj
 0001:000d60e0       _flyer_die                 100d70e0 f   m_flyer.obj
 0001:000d6180       _flyer_blocked             100d7180 f   m_flyer.obj
 0001:000d62d0       _SP_monster_flyer          100d72d0 f   m_flyer.obj
 0001:000d6660       _SP_monster_kamikaze       100d7660 f   m_flyer.obj
 0001:000d6de0       _gekk_check_melee          100d7de0 f   m_gekk.obj
 0001:000d6e30       _gekk_check_jump_hazard    100d7e30 f   m_gekk.obj
 0001:000d70b0       _gekk_check_jump           100d80b0 f   m_gekk.obj
 0001:000d71d0       _gekk_check_jump_close     100d81d0 f   m_gekk.obj
 0001:000d7260       _gekk_checkattack          100d8260 f   m_gekk.obj
 0001:000d7310       _gekk_step                 100d8310 f   m_gekk.obj
 0001:000d73c0       _gekk_sight                100d83c0 f   m_gekk.obj
 0001:000d73f0       _gekk_search               100d83f0 f   m_gekk.obj
 0001:000d7610       _gekk_swing                100d8610 f   m_gekk.obj
 0001:000d7640       _gekk_face                 100d8640 f   m_gekk.obj
 0001:000d7660       _ai_stand2                 100d8660 f   m_gekk.obj
 0001:000d7770       _gekk_swim_loop            100d8770 f   m_gekk.obj
 0001:000d77a0       _gekk_swim                 100d87a0 f   m_gekk.obj
 0001:000d7830       _gekk_stand                100d8830 f   m_gekk.obj
 0001:000d7860       _gekk_chant                100d8860 f   m_gekk.obj
 0001:000d7880       _gekk_idle_loop            100d8880 f   m_gekk.obj
 0001:000d78d0       _gekk_idle                 100d88d0 f   m_gekk.obj
 0001:000d7900       _gekk_walk                 100d8900 f   m_gekk.obj
 0001:000d7920       _gekk_run_start            100d8920 f   m_gekk.obj
 0001:000d7950       _gekk_run                  100d8950 f   m_gekk.obj
 0001:000d79a0       _gekk_hit_left             100d89a0 f   m_gekk.obj
 0001:000d7a40       _gekk_hit_right            100d8a40 f   m_gekk.obj
 0001:000d7ae0       _gekk_check_refire         100d8ae0 f   m_gekk.obj
 0001:000d7b90       _loogie_touch              100d8b90 f   m_gekk.obj
 0001:000d7c50       _fire_loogie               100d8c50 f   m_gekk.obj
 0001:000d7e60       _gekk_loogie_delayed_start 100d8e60 f   m_gekk.obj
 0001:000d7ef0       _SP_gekk_loogie            100d8ef0 f   m_gekk.obj
 0001:000d7fd0       _loogie                    100d8fd0 f   m_gekk.obj
 0001:000d81c0       _reloogie                  100d91c0 f   m_gekk.obj
 0001:000d8270       _gekk_check_underwater     100d9270 f   m_gekk.obj
 0001:000d8290       _gekk_bite                 100d9290 f   m_gekk.obj
 0001:000d82d0       _gekk_preattack            100d92d0 f   m_gekk.obj
 0001:000d82e0       _gekk_melee                100d92e0 f   m_gekk.obj
 0001:000d8350       _gekk_jump_touch           100d9350 f   m_gekk.obj
 0001:000d84b0       _gekk_jump_takeoff         100d94b0 f   m_gekk.obj
 0001:000d85c0       _gekk_jump_takeoff2        100d95c0 f   m_gekk.obj
 0001:000d86e0       _gekk_stop_skid            100d96e0 f   m_gekk.obj
 0001:000d8720       _gekk_check_landing        100d9720 f   m_gekk.obj
 0001:000d87e0       _gekk_jump                 100d97e0 f   m_gekk.obj
 0001:000d88d0       _gekk_pain                 100d98d0 f   m_gekk.obj
 0001:000d8a80       _gekk_dead                 100d9a80 f   m_gekk.obj
 0001:000d8b80       _gekk_gibfest              100d9b80 f   m_gekk.obj
 0001:000d8c90       _isgibfest                 100d9c90 f   m_gekk.obj
 0001:000d8cd0       _gekk_die                  100d9cd0 f   m_gekk.obj
 0001:000d8f10       _gekk_duck_down            100d9f10 f   m_gekk.obj
 0001:000d8f90       _gekk_duck_up              100d9f90 f   m_gekk.obj
 0001:000d8fe0       _gekk_duck_hold            100d9fe0 f   m_gekk.obj
 0001:000d9030       _gekk_dodge                100da030 f   m_gekk.obj
 0001:000d92f0       _SP_monster_gekk           100da2f0 f   m_gekk.obj
 0001:000d9720       _water_to_land             100da720 f   m_gekk.obj
 0001:000d97c0       _land_to_water             100da7c0 f   m_gekk.obj
 0001:000da300       _gladb_idle                100db300 f   m_gladb.obj
 0001:000da340       _gladb_sight               100db340 f   m_gladb.obj
 0001:000da370       _gladb_search              100db370 f   m_gladb.obj
 0001:000da3a0       _gladb_cleaver_swing       100db3a0 f   m_gladb.obj
 0001:000da3d0       _gladb_stand               100db3d0 f   m_gladb.obj
 0001:000da3f0       _gladb_walk                100db3f0 f   m_gladb.obj
 0001:000da410       _gladb_run                 100db410 f   m_gladb.obj
 0001:000da440       _GladbMelee                100db440 f   m_gladb.obj
 0001:000da4f0       _gladb_melee               100db4f0 f   m_gladb.obj
 0001:000da510       _gladbGun                  100db510 f   m_gladb.obj
 0001:000da6b0       _gladbGun_check            100db6b0 f   m_gladb.obj
 0001:000da6e0       _gladb_attack              100db6e0 f   m_gladb.obj
 0001:000da7f0       _gladb_pain                100db7f0 f   m_gladb.obj
 0001:000da930       _gladb_dead                100db930 f   m_gladb.obj
 0001:000daa10       _gladb_die                 100dba10 f   m_gladb.obj
 0001:000dab80       _gladb_blocked             100dbb80 f   m_gladb.obj
 0001:000dabe0       _SP_monster_gladb          100dbbe0 f   m_gladb.obj
 0001:000db250       _gladiator_idle            100dc250 f   m_gladiator.obj
 0001:000db290       _gladiator_sight           100dc290 f   m_gladiator.obj
 0001:000db2c0       _gladiator_search          100dc2c0 f   m_gladiator.obj
 0001:000db2f0       _gladiator_cleaver_swing   100dc2f0 f   m_gladiator.obj
 0001:000db320       _gladiator_stand           100dc320 f   m_gladiator.obj
 0001:000db340       _gladiator_walk            100dc340 f   m_gladiator.obj
 0001:000db360       _gladiator_run             100dc360 f   m_gladiator.obj
 0001:000db390       _GaldiatorMelee            100dc390 f   m_gladiator.obj
 0001:000db440       _gladiator_melee           100dc440 f   m_gladiator.obj
 0001:000db460       _GladiatorGun              100dc460 f   m_gladiator.obj
 0001:000db600       _gladiator_attack          100dc600 f   m_gladiator.obj
 0001:000db710       _gladiator_pain            100dc710 f   m_gladiator.obj
 0001:000db870       _gladiator_dead            100dc870 f   m_gladiator.obj
 0001:000db950       _gladiator_die             100dc950 f   m_gladiator.obj
 0001:000dbac0       _gladiator_blocked         100dcac0 f   m_gladiator.obj
 0001:000dbb20       _SP_monster_gladiator      100dcb20 f   m_gladiator.obj
 0001:000dc170       _gunner_idlesound          100dd170 f   m_gunner.obj
 0001:000dc1b0       _gunner_sight              100dd1b0 f   m_gunner.obj
 0001:000dc1e0       _gunner_search             100dd1e0 f   m_gunner.obj
 0001:000dc210       _gunner_fidget             100dd210 f   m_gunner.obj
 0001:000dc260       _gunner_stand              100dd260 f   m_gunner.obj
 0001:000dc280       _gunner_walk               100dd280 f   m_gunner.obj
 0001:000dc2a0       _gunner_run                100dd2a0 f   m_gunner.obj
 0001:000dc2e0       _gunner_runandshoot        100dd2e0 f   m_gunner.obj
 0001:000dc300       _gunner_pain               100dd300 f   m_gunner.obj
 0001:000dc460       _gunner_dead               100dd460 f   m_gunner.obj
 0001:000dc540       _gunner_die                100dd540 f   m_gunner.obj
 0001:000dc6c0       _gunner_grenade_check      100dd6c0 f   m_gunner.obj
 0001:000dc930       _gunner_duck_down          100dd930 f   m_gunner.obj
 0001:000dca00       _gunner_opengun            100dda00 f   m_gunner.obj
 0001:000dca30       _GunnerFire                100dda30 f   m_gunner.obj
 0001:000dcc40       _GunnerGrenade             100ddc40 f   m_gunner.obj
 0001:000dd0e0       _gunner_blind_check        100de0e0 f   m_gunner.obj
 0001:000dd150       _gunner_attack             100de150 f   m_gunner.obj
 0001:000dd340       _gunner_fire_chain         100de340 f   m_gunner.obj
 0001:000dd360       _gunner_refire_chain       100de360 f   m_gunner.obj
 0001:000dd3e0       _gunner_jump_now           100de3e0 f   m_gunner.obj
 0001:000dd470       _gunner_jump2_now          100de470 f   m_gunner.obj
 0001:000dd500       _gunner_jump_wait_land     100de500 f   m_gunner.obj
 0001:000dd560       _gunner_jump               100de560 f   m_gunner.obj
 0001:000dd5c0       _gunner_blocked            100de5c0 f   m_gunner.obj
 0001:000dd660       _gunner_duck               100de660 f   m_gunner.obj
 0001:000dd770       _gunner_sidestep           100de770 f   m_gunner.obj
 0001:000dd810       _SP_monster_gunner         100de810 f   m_gunner.obj
 0001:000de250       _hover_sight               100df250 f   m_hover.obj
 0001:000de2d0       _hover_search              100df2d0 f   m_hover.obj
 0001:000de3e0       _hover_reattack            100df3e0 f   m_hover.obj
 0001:000de4a0       _hover_fire_blaster        100df4a0 f   m_hover.obj
 0001:000de6d0       _hover_stand               100df6d0 f   m_hover.obj
 0001:000de6f0       _hover_run                 100df6f0 f   m_hover.obj
 0001:000de720       _hover_walk                100df720 f   m_hover.obj
 0001:000de740       _hover_start_attack        100df740 f   m_hover.obj
 0001:000de760       _hover_attack              100df760 f   m_hover.obj
 0001:000de860       _hover_pain                100df860 f   m_hover.obj
 0001:000deb30       _hover_deadthink           100dfb30 f   m_hover.obj
 0001:000deca0       _hover_dead                100dfca0 f   m_hover.obj
 0001:000ded50       _hover_die                 100dfd50 f   m_hover.obj
 0001:000df000       _hover_blocked             100e0000 f   m_hover.obj
 0001:000df040       _SP_monster_hover          100e0040 f   m_hover.obj
 0001:000dfa10       _infantry_stand            100e0a10 f   m_infantry.obj
 0001:000dfa30       _infantry_fidget           100e0a30 f   m_infantry.obj
 0001:000dfa80       _infantry_walk             100e0a80 f   m_infantry.obj
 0001:000dfaa0       _infantry_run              100e0aa0 f   m_infantry.obj
 0001:000dfae0       _infantry_pain             100e0ae0 f   m_infantry.obj
 0001:000dfc20       _InfantryMachineGun        100e0c20 f   m_infantry.obj
 0001:000dfef0       _infantry_sight            100e0ef0 f   m_infantry.obj
 0001:000dff20       _infantry_search           100e0f20 f   m_infantry.obj
 0001:000dff50       _infantry_dead             100e0f50 f   m_infantry.obj
 0001:000e0030       _infantry_die              100e1030 f   m_infantry.obj
 0001:000e0220       _infantry_cock_gun         100e1220 f   m_infantry.obj
 0001:000e0250       _infantry_fire             100e1250 f   m_infantry.obj
 0001:000e02b0       _infantry_fire_prep        100e12b0 f   m_infantry.obj
 0001:000e02e0       _infantry_swing            100e12e0 f   m_infantry.obj
 0001:000e0310       _infantry_smack            100e1310 f   m_infantry.obj
 0001:000e0380       _infantry_attack           100e1380 f   m_infantry.obj
 0001:000e03d0       _infantry_jump_now         100e13d0 f   m_infantry.obj
 0001:000e0460       _infantry_jump2_now        100e1460 f   m_infantry.obj
 0001:000e04f0       _infantry_jump_wait_land   100e14f0 f   m_infantry.obj
 0001:000e0550       _infantry_jump             100e1550 f   m_infantry.obj
 0001:000e05b0       _infantry_blocked          100e15b0 f   m_infantry.obj
 0001:000e0650       _infantry_duck             100e1650 f   m_infantry.obj
 0001:000e0750       _infantry_sidestep         100e1750 f   m_infantry.obj
 0001:000e07e0       _SP_monster_infantry       100e17e0 f   m_infantry.obj
 0001:000e0fe0       _insane_fist               100e1fe0 f   m_insane.obj
 0001:000e1010       _insane_shake              100e2010 f   m_insane.obj
 0001:000e1040       _insane_moan               100e2040 f   m_insane.obj
 0001:000e1070       _insane_scream             100e2070 f   m_insane.obj
 0001:000e10c0       _insane_cross              100e20c0 f   m_insane.obj
 0001:000e1110       _insane_walk               100e2110 f   m_insane.obj
 0001:000e11a0       _insane_run                100e21a0 f   m_insane.obj
 0001:000e1230       _insane_pain               100e2230 f   m_insane.obj
 0001:000e1390       _insane_onground           100e2390 f   m_insane.obj
 0001:000e13b0       _insane_checkdown          100e23b0 f   m_insane.obj
 0001:000e1430       _insane_checkup            100e2430 f   m_insane.obj
 0001:000e1490       _insane_stand              100e2490 f   m_insane.obj
 0001:000e1540       _insane_dead               100e2540 f   m_insane.obj
 0001:000e1640       _insane_die                100e2640 f   m_insane.obj
 0001:000e1810       _SP_misc_insane            100e2810 f   m_insane.obj
 0001:000e1e80       _cleanupHeal               100e2e80 f   m_medic.obj
 0001:000e1f10       _abortHeal                 100e2f10 f   m_medic.obj
 0001:000e20e0       _embedded                  100e30e0 f   m_medic.obj
 0001:000e2160       _medic_FindDeadMonster     100e3160 f   m_medic.obj
 0001:000e24d0       _medic_StopPatrolling      100e34d0 f   m_medic.obj
 0001:000e2590       _medic_NextPatrolPoint     100e3590 f   m_medic.obj
 0001:000e28f0       _medic_idle                100e38f0 f   m_medic.obj
 0001:000e2bd0       _medic_search              100e3bd0 f   m_medic.obj
 0001:000e2cd0       _medic_sight               100e3cd0 f   m_medic.obj
 0001:000e2d50       _medic_stand               100e3d50 f   m_medic.obj
 0001:000e2d70       _medic_walk                100e3d70 f   m_medic.obj
 0001:000e2d90       _medic_run                 100e3d90 f   m_medic.obj
 0001:000e2e80       _medic_pain                100e3e80 f   m_medic.obj
 0001:000e30f0       _medic_fire_blaster        100e40f0 f   m_medic.obj
 0001:000e3380       _medic_dead                100e4380 f   m_medic.obj
 0001:000e3460       _medic_die                 100e4460 f   m_medic.obj
 0001:000e3610       _medic_continue            100e4610 f   m_medic.obj
 0001:000e3670       _medic_hook_launch         100e4670 f   m_medic.obj
 0001:000e36f0       _medic_cable_attack        100e46f0 f   m_medic.obj
 0001:000e42c0       _medic_hook_retract        100e52c0 f   m_medic.obj
 0001:000e4460       _medic_start_spawn         100e5460 f   m_medic.obj
 0001:000e44a0       _medic_determine_spawn     100e54a0 f   m_medic.obj
 0001:000e48c0       _medic_spawngrows          100e58c0 f   m_medic.obj
 0001:000e4b20       _medic_finish_spawn        100e5b20 f   m_medic.obj
 0001:000e4e70       _medic_attack              100e5e70 f   m_medic.obj
 0001:000e4fd0       _medic_checkattack         100e5fd0 f   m_medic.obj
 0001:000e51c0       _MedicCommanderCache       100e61c0 f   m_medic.obj
 0001:000e51f0       _medic_duck                100e61f0 f   m_medic.obj
 0001:000e52e0       _medic_sidestep            100e62e0 f   m_medic.obj
 0001:000e5370       _medic_blocked             100e6370 f   m_medic.obj
 0001:000e53d0       _SP_monster_medic          100e63d0 f   m_medic.obj
 0001:000e6910       _M_CheckBottom             100e7910 f   m_move.obj
 0001:000e6cf0       _IsBadAhead                100e7cf0 f   m_move.obj
 0001:000e6e10       _SV_movestep               100e7e10 f   m_move.obj
 0001:000e8520       _M_ChangeYaw               100e9520 f   m_move.obj
 0001:000e8620       _SV_StepDirection          100e9620 f   m_move.obj
 0001:000e87a0       _SV_FixCheckBottom         100e97a0 f   m_move.obj
 0001:000e87c0       _SV_NewChaseDir            100e97c0 f   m_move.obj
 0001:000e8bd0       _SV_CloseEnough            100e9bd0 f   m_move.obj
 0001:000e8c50       _M_MoveToGoal              100e9c50 f   m_move.obj
 0001:000e8e40       _M_walkmove                100e9e40 f   m_move.obj
 0001:000e9860       _mutant_step               100ea860 f   m_mutant.obj
 0001:000e9910       _mutant_sight              100ea910 f   m_mutant.obj
 0001:000e9940       _mutant_search             100ea940 f   m_mutant.obj
 0001:000e9970       _mutant_swing              100ea970 f   m_mutant.obj
 0001:000e99a0       _mutant_stand              100ea9a0 f   m_mutant.obj
 0001:000e99c0       _mutant_idle_loop          100ea9c0 f   m_mutant.obj
 0001:000e9a00       _mutant_idle               100eaa00 f   m_mutant.obj
 0001:000e9a50       _mutant_walk_loop          100eaa50 f   m_mutant.obj
 0001:000e9a70       _mutant_walk               100eaa70 f   m_mutant.obj
 0001:000e9a90       _mutant_run                100eaa90 f   m_mutant.obj
 0001:000e9ac0       _mutant_hit_left           100eaac0 f   m_mutant.obj
 0001:000e9b60       _mutant_hit_right          100eab60 f   m_mutant.obj
 0001:000e9c00       _mutant_check_refire       100eac00 f   m_mutant.obj
 0001:000e9ca0       _mutant_melee              100eaca0 f   m_mutant.obj
 0001:000e9cc0       _mutant_jump_touch         100eacc0 f   m_mutant.obj
 0001:000e9e20       _mutant_jump_takeoff       100eae20 f   m_mutant.obj
 0001:000e9ef0       _mutant_check_landing      100eaef0 f   m_mutant.obj
 0001:000e9f90       _mutant_jump               100eaf90 f   m_mutant.obj
 0001:000e9fb0       _mutant_check_melee        100eafb0 f   m_mutant.obj
 0001:000e9fe0       _mutant_check_jump         100eafe0 f   m_mutant.obj
 0001:000ea100       _mutant_checkattack        100eb100 f   m_mutant.obj
 0001:000ea180       _mutant_pain               100eb180 f   m_mutant.obj
 0001:000ea2e0       _mutant_dead               100eb2e0 f   m_mutant.obj
 0001:000ea3c0       _mutant_die                100eb3c0 f   m_mutant.obj
 0001:000ea560       _mutant_jump_down          100eb560 f   m_mutant.obj
 0001:000ea5e0       _mutant_jump_up            100eb5e0 f   m_mutant.obj
 0001:000ea660       _mutant_jump_wait_land     100eb660 f   m_mutant.obj
 0001:000ea6a0       _mutant_jump_updown        100eb6a0 f   m_mutant.obj
 0001:000ea6f0       _mutant_blocked            100eb6f0 f   m_mutant.obj
 0001:000ea760       _SP_monster_mutant         100eb760 f   m_mutant.obj
 0001:000eaf70       _parasite_launch           100ebf70 f   m_parasite.obj
 0001:000eafa0       _parasite_reel_in          100ebfa0 f   m_parasite.obj
 0001:000eafd0       _parasite_sight            100ebfd0 f   m_parasite.obj
 0001:000eb000       _parasite_tap              100ec000 f   m_parasite.obj
 0001:000eb030       _parasite_scratch          100ec030 f   m_parasite.obj
 0001:000eb060       _parasite_search           100ec060 f   m_parasite.obj
 0001:000eb090       _parasite_end_fidget       100ec090 f   m_parasite.obj
 0001:000eb0b0       _parasite_do_fidget        100ec0b0 f   m_parasite.obj
 0001:000eb0d0       _parasite_refidget         100ec0d0 f   m_parasite.obj
 0001:000eb120       _parasite_idle             100ec120 f   m_parasite.obj
 0001:000eb140       _parasite_stand            100ec140 f   m_parasite.obj
 0001:000eb160       _parasite_start_run        100ec160 f   m_parasite.obj
 0001:000eb190       _parasite_run              100ec190 f   m_parasite.obj
 0001:000eb1c0       _parasite_start_walk       100ec1c0 f   m_parasite.obj
 0001:000eb1e0       _parasite_walk             100ec1e0 f   m_parasite.obj
 0001:000eb200       _parasite_pain             100ec200 f   m_parasite.obj
 0001:000eb300       _parasite_drain_attack_ok  100ec300 f   m_parasite.obj
 0001:000eb3b0       _parasite_drain_attack     100ec3b0 f   m_parasite.obj
 0001:000eb7b0       _parasite_attack           100ec7b0 f   m_parasite.obj
 0001:000eb7d0       _parasite_jump_down        100ec7d0 f   m_parasite.obj
 0001:000eb860       _parasite_jump_up          100ec860 f   m_parasite.obj
 0001:000eb8f0       _parasite_jump_wait_land   100ec8f0 f   m_parasite.obj
 0001:000eb950       _parasite_jump             100ec950 f   m_parasite.obj
 0001:000eb9a0       _parasite_blocked          100ec9a0 f   m_parasite.obj
 0001:000eba40       _parasite_checkattack      100eca40 f   m_parasite.obj
 0001:000ebc80       _parasite_dead             100ecc80 f   m_parasite.obj
 0001:000ebd60       _parasite_die              100ecd60 f   m_parasite.obj
 0001:000ebed0       _SP_monster_parasite       100eced0 f   m_parasite.obj
 0001:000ec6d0       _soldier_start_charge      100ed6d0 f   m_soldier.obj
 0001:000ec6f0       _soldier_stop_charge       100ed6f0 f   m_soldier.obj
 0001:000ec710       _soldier_idle              100ed710 f   m_soldier.obj
 0001:000ec780       _soldier_cock              100ed780 f   m_soldier.obj
 0001:000ec7f0       _soldier_stand             100ed7f0 f   m_soldier.obj
 0001:000ec850       _soldier_walk1_random      100ed850 f   m_soldier.obj
 0001:000ec890       _soldier_walk              100ed890 f   m_soldier.obj
 0001:000ec8e0       _soldier_fire_run          100ed8e0 f   m_soldier.obj
 0001:000ec930       _soldier_run               100ed930 f   m_soldier.obj
 0001:000ec9b0       _soldier_pain              100ed9b0 f   m_soldier.obj
 0001:000ecc30       _soldier_fire              100edc30 f   m_soldier.obj
 0001:000ed390       _soldier_fire1             100ee390 f   m_soldier.obj
 0001:000ed3b0       _soldier_attack1_refire1   100ee3b0 f   m_soldier.obj
 0001:000ed4a0       _soldier_attack1_refire2   100ee4a0 f   m_soldier.obj
 0001:000ed550       _soldier_fire2             100ee550 f   m_soldier.obj
 0001:000ed570       _soldier_attack2_refire1   100ee570 f   m_soldier.obj
 0001:000ed630       _soldier_attack2_refire2   100ee630 f   m_soldier.obj
 0001:000ed6e0       _soldier_fire3             100ee6e0 f   m_soldier.obj
 0001:000ed700       _soldier_attack3_refire    100ee700 f   m_soldier.obj
 0001:000ed730       _soldier_fire4             100ee730 f   m_soldier.obj
 0001:000ed750       _soldier_fire8             100ee750 f   m_soldier.obj
 0001:000ed770       _soldier_attack6_refire    100ee770 f   m_soldier.obj
 0001:000ed830       _soldier_attack            100ee830 f   m_soldier.obj
 0001:000eda60       _soldier_sight             100eea60 f   m_soldier.obj
 0001:000edb60       _soldier_blocked           100eeb60 f   m_soldier.obj
 0001:000edbf0       _soldier_fire6             100eebf0 f   m_soldier.obj
 0001:000edc10       _soldier_fire7             100eec10 f   m_soldier.obj
 0001:000edc30       _soldier_dead              100eec30 f   m_soldier.obj
 0001:000edd10       _soldier_dead2             100eed10 f   m_soldier.obj
 0001:000edeb0       _soldier_die               100eeeb0 f   m_soldier.obj
 0001:000ee120       _soldier_blind             100ef120 f   m_soldier.obj
 0001:000ee140       _soldierh_idle             100ef140 f   m_soldier.obj
 0001:000ee1b0       _soldierh_cock             100ef1b0 f   m_soldier.obj
 0001:000ee220       _soldierh_stand            100ef220 f   m_soldier.obj
 0001:000ee280       _soldierh_walk1_random     100ef280 f   m_soldier.obj
 0001:000ee2c0       _soldierh_walk             100ef2c0 f   m_soldier.obj
 0001:000ee310       _soldierh_run              100ef310 f   m_soldier.obj
 0001:000ee380       _soldierh_pain             100ef380 f   m_soldier.obj
 0001:000ee570       _soldierh_laserbeam        100ef570 f   m_soldier.obj
 0001:000ee840       _soldierh_fire             100ef840 f   m_soldier.obj
 0001:000eec50       _soldierh_hyper_refire1    100efc50 f   m_soldier.obj
 0001:000eecf0       _soldierh_ripper1          100efcf0 f   m_soldier.obj
 0001:000eed40       _soldierh_fire1            100efd40 f   m_soldier.obj
 0001:000eed60       _soldierh_attack1_refire1  100efd60 f   m_soldier.obj
 0001:000eee10       _soldierh_attack1_refire2  100efe10 f   m_soldier.obj
 0001:000eeeb0       _soldierh_hyper_sound      100efeb0 f   m_soldier.obj
 0001:000eef10       _soldierh_hyper_refire2    100eff10 f   m_soldier.obj
 0001:000eefb0       _soldierh_ripper2          100effb0 f   m_soldier.obj
 0001:000ef000       _soldierh_fire2            100f0000 f   m_soldier.obj
 0001:000ef020       _soldierh_attack2_refire1  100f0020 f   m_soldier.obj
 0001:000ef0d0       _soldierh_attack2_refire2  100f00d0 f   m_soldier.obj
 0001:000ef180       _soldierh_duck_down        100f0180 f   m_soldier.obj
 0001:000ef200       _soldierh_duck_up          100f0200 f   m_soldier.obj
 0001:000ef250       _soldierh_fire3            100f0250 f   m_soldier.obj
 0001:000ef270       _soldierh_attack3_refire   100f0270 f   m_soldier.obj
 0001:000ef2a0       _soldierh_fire4            100f02a0 f   m_soldier.obj
 0001:000ef2c0       _soldierh_fire8            100f02c0 f   m_soldier.obj
 0001:000ef2e0       _soldierh_attack6_refire   100f02e0 f   m_soldier.obj
 0001:000ef340       _soldierh_attack           100f0340 f   m_soldier.obj
 0001:000ef5a0       _soldierh_sight            100f05a0 f   m_soldier.obj
 0001:000ef6b0       _soldierh_duck_hold        100f06b0 f   m_soldier.obj
 0001:000ef700       _soldierh_dodge            100f0700 f   m_soldier.obj
 0001:000ef840       _soldier_sidestep          100f0840 f   m_soldier.obj
 0001:000ef910       _soldier_duck              100f0910 f   m_soldier.obj
 0001:000efa90       _soldierh_fire6            100f0a90 f   m_soldier.obj
 0001:000efac0       _soldierh_fire7            100f0ac0 f   m_soldier.obj
 0001:000efaf0       _soldierh_dead             100f0af0 f   m_soldier.obj
 0001:000efbd0       _soldierh_die              100f0bd0 f   m_soldier.obj
 0001:000efe40       _SP_monster_soldier_x      100f0e40 f   m_soldier.obj
 0001:000f00f0       _SP_monster_soldier_light  100f10f0 f   m_soldier.obj
 0001:000f01e0       _SP_monster_soldier        100f11e0 f   m_soldier.obj
 0001:000f02a0       _SP_monster_soldier_ss     100f12a0 f   m_soldier.obj
 0001:000f0360       _SP_monster_soldier_screen 100f1360 f   m_soldier.obj
 0001:000f0430       _SP_monster_soldier_h      100f1430 f   m_soldier.obj
 0001:000f06e0       _SP_monster_soldier_ripper 100f16e0 f   m_soldier.obj
 0001:000f07d0       _SP_monster_soldier_hypergun 100f17d0 f   m_soldier.obj
 0001:000f08b0       _SP_monster_soldier_lasergun 100f18b0 f   m_soldier.obj
 0001:000f1a20       _stalker_ok_to_transition  100f2a20 f   m_stalker.obj
 0001:000f1eb0       _stalker_sight             100f2eb0 f   m_stalker.obj
 0001:000f1ee0       _stalker_idle_noise        100f2ee0 f   m_stalker.obj
 0001:000f1f20       _stalker_idle              100f2f20 f   m_stalker.obj
 0001:000f1f70       _stalker_stand             100f2f70 f   m_stalker.obj
 0001:000f1fc0       _stalker_run               100f2fc0 f   m_stalker.obj
 0001:000f1ff0       _stalker_walk              100f2ff0 f   m_stalker.obj
 0001:000f2010       _stalker_reactivate        100f3010 f   m_stalker.obj
 0001:000f2040       _stalker_heal              100f3040 f   m_stalker.obj
 0001:000f2110       _stalker_false_death       100f3110 f   m_stalker.obj
 0001:000f2130       _stalker_false_death_start 100f3130 f   m_stalker.obj
 0001:000f2190       _stalker_pain              100f3190 f   m_stalker.obj
 0001:000f23a0       _stalker_shoot_attack      100f33a0 f   m_stalker.obj
 0001:000f29a0       _stalker_shoot_attack2     100f39a0 f   m_stalker.obj
 0001:000f29f0       _stalker_attack_ranged     100f39f0 f   m_stalker.obj
 0001:000f2ab0       _stalker_swing_attack      100f3ab0 f   m_stalker.obj
 0001:000f2b50       _stalker_attack_melee      100f3b50 f   m_stalker.obj
 0001:000f2bb0       _calcJumpAngle             100f3bb0 f   m_stalker.obj
 0001:000f2e70       _stalker_check_lz          100f3e70 f   m_stalker.obj
 0001:000f2fc0       _stalker_do_pounce         100f3fc0 f   m_stalker.obj
 0001:000f33e0       _stalker_jump_straightup   100f43e0 f   m_stalker.obj
 0001:000f3560       _stalker_dodge_jump        100f4560 f   m_stalker.obj
 0001:000f3580       _stalker_dodge             100f4580 f   m_stalker.obj
 0001:000f3600       _stalker_jump_down         100f4600 f   m_stalker.obj
 0001:000f3690       _stalker_jump_up           100f4690 f   m_stalker.obj
 0001:000f3720       _stalker_jump_wait_land    100f4720 f   m_stalker.obj
 0001:000f3810       _stalker_jump              100f4810 f   m_stalker.obj
 0001:000f3860       _stalker_blocked           100f4860 f   m_stalker.obj
 0001:000f3a30       _stalker_dead              100f4a30 f   m_stalker.obj
 0001:000f3b10       _stalker_die               100f4b10 f   m_stalker.obj
 0001:000f3cb0       _SP_monster_stalker        100f4cb0 f   m_stalker.obj
 0001:000f4960       _TreadSound                100f5960 f   m_supertank.obj
 0001:000f4990       _supertank_search          100f5990 f   m_supertank.obj
 0001:000f4a10       _supertank_stand           100f5a10 f   m_supertank.obj
 0001:000f4a30       _supertank_forward         100f5a30 f   m_supertank.obj
 0001:000f4a50       _supertank_walk            100f5a50 f   m_supertank.obj
 0001:000f4a70       _supertank_run             100f5a70 f   m_supertank.obj
 0001:000f4aa0       _supertank_reattack1       100f5aa0 f   m_supertank.obj
 0001:000f4b10       _supertank_pain            100f5b10 f   m_supertank.obj
 0001:000f4cc0       _supertankRocket           100f5cc0 f   m_supertank.obj
 0001:000f4ee0       _supertankMachineGun       100f5ee0 f   m_supertank.obj
 0001:000f5110       _supertank_attack          100f6110 f   m_supertank.obj
 0001:000f51d0       _supertank_dead            100f61d0 f   m_supertank.obj
 0001:000f5270       _BossExplode               100f6270 f   m_supertank.obj
 0001:000f55f0       _supertank_die             100f65f0 f   m_supertank.obj
 0001:000f56d0       _supertank_blocked         100f66d0 f   m_supertank.obj
 0001:000f5730       _SP_monster_supertank      100f6730 f   m_supertank.obj
 0001:000f5e50       _tank_sight                100f6e50 f   m_tank.obj
 0001:000f5e80       _tank_footstep             100f6e80 f   m_tank.obj
 0001:000f5eb0       _tank_thud                 100f6eb0 f   m_tank.obj
 0001:000f5ee0       _tank_windup               100f6ee0 f   m_tank.obj
 0001:000f5f10       _tank_idle                 100f6f10 f   m_tank.obj
 0001:000f5f40       _tank_stand                100f6f40 f   m_tank.obj
 0001:000f5f60       _tank_walk                 100f6f60 f   m_tank.obj
 0001:000f5f80       _tank_run                  100f6f80 f   m_tank.obj
 0001:000f6030       _tank_pain                 100f7030 f   m_tank.obj
 0001:000f61c0       _TankBlaster               100f71c0 f   m_tank.obj
 0001:000f63b0       _TankStrike                100f73b0 f   m_tank.obj
 0001:000f63e0       _TankRocket                100f73e0 f   m_tank.obj
 0001:000f6bc0       _TankMachineGun            100f7bc0 f   m_tank.obj
 0001:000f6e20       _tank_reattack_blaster     100f7e20 f   m_tank.obj
 0001:000f6eb0       _tank_poststrike           100f7eb0 f   m_tank.obj
 0001:000f6ed0       _tank_refire_rocket        100f7ed0 f   m_tank.obj
 0001:000f6fa0       _tank_doattack_rocket      100f7fa0 f   m_tank.obj
 0001:000f6fc0       _tank_attack               100f7fc0 f   m_tank.obj
 0001:000f72c0       _tank_dead                 100f82c0 f   m_tank.obj
 0001:000f7360       _tank_die                  100f8360 f   m_tank.obj
 0001:000f7530       _tank_blocked              100f8530 f   m_tank.obj
 0001:000f7590       _SP_monster_tank           100f8590 f   m_tank.obj
 0001:000f8090       _TurretAim                 100f9090 f   m_turret.obj
 0001:000f86c0       _turret_sight              100f96c0 f   m_turret.obj
 0001:000f86d0       _turret_search             100f96d0 f   m_turret.obj
 0001:000f86e0       _turret_stand              100f96e0 f   m_turret.obj
 0001:000f8700       _turret_ready_gun          100f9700 f   m_turret.obj
 0001:000f8720       _turret_walk               100f9720 f   m_turret.obj
 0001:000f8750       _turret_run                100f9750 f   m_turret.obj
 0001:000f8780       _Turret_Railgun_Fire       100f9780 f   m_turret.obj
 0001:000f8830       _Turret_Railgun_Aim        100f9830 f   m_turret.obj
 0001:000f8920       _TurretFire                100f9920 f   m_turret.obj
 0001:000f9030       _TurretFireBlind           100fa030 f   m_turret.obj
 0001:000f92c0       _turret_attack             100fa2c0 f   m_turret.obj
 0001:000f93f0       _turret_pain               100fa3f0 f   m_turret.obj
 0001:000f9400       _turret_die                100fa400 f   m_turret.obj
 0001:000f95b0       _turret_wall_spawn         100fa5b0 f   m_turret.obj
 0001:000f9cc0       _turret_wake               100facc0 f   m_turret.obj
 0001:000f9df0       _turret_activate           100fadf0 f   m_turret.obj
 0001:000f9f70       _turret_checkattack        100faf70 f   m_turret.obj
 0001:000fa3c0       _SP_monster_turret         100fb3c0 f   m_turret.obj
 0001:000fb670       _showme                    100fc670 f   m_widow.obj
 0001:000fb690       _widow_search              100fc690 f   m_widow.obj
 0001:000fb6a0       _widow_sight               100fc6a0 f   m_widow.obj
 0001:000fb6b0       _target_angle              100fc6b0 f   m_widow.obj
 0001:000fb740       _WidowTorso                100fc740 f   m_widow.obj
 0001:000fb9e0       _WidowBlaster              100fc9e0 f   m_widow.obj
 0001:000fc030       _WidowSpawn                100fd030 f   m_widow.obj
 0001:000fc260       _widow_spawn_check         100fd260 f   m_widow.obj
 0001:000fc280       _widow_ready_spawn         100fd280 f   m_widow.obj
 0001:000fc360       _widow_step                100fd360 f   m_widow.obj
 0001:000fc3a0       _widow_stepshoot           100fd3a0 f   m_widow.obj
 0001:000fc3f0       _widow_start_run_5         100fd3f0 f   m_widow.obj
 0001:000fc410       _widow_start_run_10        100fd410 f   m_widow.obj
 0001:000fc430       _widow_start_run_12        100fd430 f   m_widow.obj
 0001:000fc450       _WidowRail                 100fd450 f   m_widow.obj
 0001:000fc650       _WidowSaveLoc              100fd650 f   m_widow.obj
 0001:000fc6c0       _widow_start_rail          100fd6c0 f   m_widow.obj
 0001:000fc6e0       _widow_rail_done           100fd6e0 f   m_widow.obj
 0001:000fc700       _widow_attack_rail         100fd700 f   m_widow.obj
 0001:000fc770       _widow_start_spawn         100fd770 f   m_widow.obj
 0001:000fc790       _widow_done_spawn          100fd790 f   m_widow.obj
 0001:000fc7b0       _spawn_out_start           100fd7b0 f   m_widow.obj
 0001:000fc8f0       _spawn_out_do              100fd8f0 f   m_widow.obj
 0001:000fca40       _widow_attack_kick         100fda40 f   m_widow.obj
 0001:000fcad0       _widow_stand               100fdad0 f   m_widow.obj
 0001:000fcb20       _widow_run                 100fdb20 f   m_widow.obj
 0001:000fcb70       _widow_walk                100fdb70 f   m_widow.obj
 0001:000fcb90       _widow_attack              100fdb90 f   m_widow.obj
 0001:000fd030       _widow_attack_blaster      100fe030 f   m_widow.obj
 0001:000fd0a0       _widow_reattack_blaster    100fe0a0 f   m_widow.obj
 0001:000fd110       _widow_pain                100fe110 f   m_widow.obj
 0001:000fd320       _widow_dead                100fe320 f   m_widow.obj
 0001:000fd3d0       _widow_die                 100fe3d0 f   m_widow.obj
 0001:000fd450       _widow_melee               100fe450 f   m_widow.obj
 0001:000fd470       _WidowGoinQuad             100fe470 f   m_widow.obj
 0001:000fd490       _WidowDouble               100fe490 f   m_widow.obj
 0001:000fd4b0       _WidowPent                 100fe4b0 f   m_widow.obj
 0001:000fd4d0       _WidowPowerArmor           100fe4d0 f   m_widow.obj
 0001:000fd530       _WidowRespondPowerup       100fe530 f   m_widow.obj
 0001:000fd730       _WidowPowerups             100fe730 f   m_widow.obj
 0001:000fd8b0       _Widow_CheckAttack         100fe8b0 f   m_widow.obj
 0001:000fdcd0       _widow_blocked             100fecd0 f   m_widow.obj
 0001:000fdd80       _WidowCalcSlots            100fed80 f   m_widow.obj
 0001:000fdeb0       _WidowPrecache             100feeb0 f   m_widow.obj
 0001:000fe010       _SP_monster_widow          100ff010 f   m_widow.obj
 0001:000feef0       _pauseme                   100ffef0 f   m_widow2.obj
 0001:000fef10       _widow2_search             100fff10 f   m_widow2.obj
 0001:000fef70       _Widow2Beam                100fff70 f   m_widow2.obj
 0001:000ff500       _Widow2Spawn               10100500 f   m_widow2.obj
 0001:000ff730       _widow2_spawn_check        10100730 f   m_widow2.obj
 0001:000ff750       _widow2_ready_spawn        10100750 f   m_widow2.obj
 0001:000ff830       _WidowDisrupt              10100830 f   m_widow2.obj
 0001:000ffa90       _Widow2SaveDisruptLoc      10100a90 f   m_widow2.obj
 0001:000ffb40       _widow2_disrupt_reattack   10100b40 f   m_widow2.obj
 0001:000ffb90       _Widow2SaveBeamTarget      10100b90 f   m_widow2.obj
 0001:000ffc90       _Widow2BeamTargetRemove    10100c90 f   m_widow2.obj
 0001:000ffcf0       _Widow2StartSweep          10100cf0 f   m_widow2.obj
 0001:000ffd10       _Widow2Tongue              10100d10 f   m_widow2.obj
 0001:00100060       _Widow2TonguePull          10101060 f   m_widow2.obj
 0001:00100270       _Widow2Crunch              10101270 f   m_widow2.obj
 0001:00100360       _Widow2Toss                10101360 f   m_widow2.obj
 0001:00100380       _widow2_start_searching    10101380 f   m_widow2.obj
 0001:001003a0       _widow2_keep_searching     101013a0 f   m_widow2.obj
 0001:001003f0       _widow2_finaldeath         101013f0 f   m_widow2.obj
 0001:00100490       _widow2_stand              10101490 f   m_widow2.obj
 0001:001004b0       _widow2_run                101014b0 f   m_widow2.obj
 0001:00100500       _widow2_walk               10101500 f   m_widow2.obj
 0001:00100520       _widow2_melee              10101520 f   m_widow2.obj
 0001:00100540       _widow2_attack             10101540 f   m_widow2.obj
 0001:00100850       _widow2_attack_beam        10101850 f   m_widow2.obj
 0001:00100870       _widow2_reattack_beam      10101870 f   m_widow2.obj
 0001:00100950       _widow2_pain               10101950 f   m_widow2.obj
 0001:00100b60       _widow2_dead               10101b60 f   m_widow2.obj
 0001:00100b70       _KillChildren              10101b70 f   m_widow2.obj
 0001:00100c10       _widow2_die                10101c10 f   m_widow2.obj
 0001:00100ec0       _Widow2_CheckAttack        10101ec0 f   m_widow2.obj
 0001:00101350       _Widow2Precache            10102350 f   m_widow2.obj
 0001:00101450       _SP_monster_widow2         10102450 f   m_widow2.obj
 0001:001017f0       _WidowVelocityForDamage    101027f0 f   m_widow2.obj
 0001:001018a0       _widow_gib_touch           101028a0 f   m_widow2.obj
 0001:00101930       _ThrowWidowGib             10102930 f   m_widow2.obj
 0001:00101960       _ThrowWidowGibLoc          10102960 f   m_widow2.obj
 0001:00101990       _ThrowWidowGibSized        10102990 f   m_widow2.obj
 0001:001019c0       _ThrowWidowGibReal         101029c0 f   m_widow2.obj
 0001:00101fa0       _BloodFountain             10102fa0 f   m_widow2.obj
 0001:00102120       _ThrowSmallStuff           10103120 f   m_widow2.obj
 0001:001021a0       _ThrowMoreStuff            101031a0 f   m_widow2.obj
 0001:00102280       _WidowExplode              10103280 f   m_widow2.obj
 0001:001026f0       _WidowExplosion1           101036f0 f   m_widow2.obj
 0001:00102830       _WidowExplosion2           10103830 f   m_widow2.obj
 0001:00102970       _WidowExplosion3           10103970 f   m_widow2.obj
 0001:00102ab0       _WidowExplosion4           10103ab0 f   m_widow2.obj
 0001:00102bf0       _WidowExplosion5           10103bf0 f   m_widow2.obj
 0001:00102d30       _WidowExplosion6           10103d30 f   m_widow2.obj
 0001:00102e70       _WidowExplosion7           10103e70 f   m_widow2.obj
 0001:00102fb0       _WidowExplosionLeg         10103fb0 f   m_widow2.obj
 0001:00103190       _ThrowArm1                 10104190 f   m_widow2.obj
 0001:00103260       _ThrowArm2                 10104260 f   m_widow2.obj
 0001:00104420       _ChasecamStart             10105420 f   p_chasecam.obj
 0001:001045e0       _ChasecamRemove            101055e0 f   p_chasecam.obj
 0001:00104740       _ChasecamTrack             10105740 f   p_chasecam.obj
 0001:00104d50       _Cmd_Chasecam_Toggle       10105d50 f   p_chasecam.obj
 0001:00104eb0       _CheckChasecam_Viewent     10105eb0 f   p_chasecam.obj
 0001:00105380       _SP_info_player_start      10106380 f   p_client.obj
 0001:00105500       _SP_info_player_deathmatch 10106500 f   p_client.obj
 0001:00105570       _SP_info_player_coop       10106570 f   p_client.obj
 0001:00105800       _SP_info_player_coop_lava  10106800 f   p_client.obj
 0001:00105830       _SP_info_player_intermission 10106830 f   p_client.obj
 0001:00105870       _player_pain               10106870 f   p_client.obj
 0001:00105880       _IsFemale                  10106880 f   p_client.obj
 0001:001058f0       _IsNeutral                 101068f0 f   p_client.obj
 0001:00105970       _ClientObituary            10106970 f   p_client.obj
 0001:00106dd0       _TossClientWeapon          10107dd0 f   p_client.obj
 0001:00107030       _LookAtKiller              10108030 f   p_client.obj
 0001:00107180       _player_die                10108180 f   p_client.obj
 0001:001078d0       _SelectStartWeapon         101088d0 f   p_client.obj
 0001:00107dc0       _InitClientPersistant      10108dc0 f   p_client.obj
 0001:00108000       _InitClientResp            10109000 f   p_client.obj
 0001:00108050       _SaveClientData            10109050 f   p_client.obj
 0001:00108140       _FetchClientEntData        10109140 f   p_client.obj
 0001:001081d0       _PlayersRangeFromSpot      101091d0 f   p_client.obj
 0001:001082a0       _SelectRandomDeathmatchSpawnPoint 101092a0 f   p_client.obj
 0001:001083d0       _SelectFarthestDeathmatchSpawnPoint 101093d0 f   p_client.obj
 0001:00108460       _SelectDeathmatchSpawnPoint 10109460 f   p_client.obj
 0001:00108490       _SelectLavaCoopSpawnPoint  10109490 f   p_client.obj
 0001:001086f0       _SelectCoopSpawnPoint      101096f0 f   p_client.obj
 0001:001087e0       _SelectSpawnPoint          101097e0 f   p_client.obj
 0001:00108970       _InitBodyQue               10109970 f   p_client.obj
 0001:001089c0       _body_die                  101099c0 f   p_client.obj
 0001:00108b20       _CopyToBodyQue             10109b20 f   p_client.obj
 0001:00108d40       _respawn                   10109d40 f   p_client.obj
 0001:00108e80       _spectator_respawn         10109e80 f   p_client.obj
 0001:001091e0       _PutClientInServer         1010a1e0 f   p_client.obj
 0001:00109fc0       _ClientBeginDeathmatch     1010afc0 f   p_client.obj
 0001:0010a0d0       _ClientBegin               1010b0d0 f   p_client.obj
 0001:0010a320       _ClientUserinfoChanged     1010b320 f   p_client.obj
 0001:0010a590       _ClientConnect             1010b590 f   p_client.obj
 0001:0010a880       _ClientDisconnect          1010b880 f   p_client.obj
 0001:0010aa80       _PM_trace                  1010ba80 f   p_client.obj
 0001:0010ab10       _CheckBlock                1010bb10 f   p_client.obj
 0001:0010ab50       _PrintPmove                1010bb50 f   p_client.obj
 0001:0010aba0       _RemovePush                1010bba0 f   p_client.obj
 0001:0010ac70       _ClientPushPushable        1010bc70 f   p_client.obj
 0001:0010adf0       _ClientSpycam              1010bdf0 f   p_client.obj
 0001:0010c5e0       _ClientThink               1010d5e0 f   p_client.obj
 0001:0010e650       _ClientBeginServerFrame    1010f650 f   p_client.obj
 0001:0010e820       _RemoveAttackingPainDaemons 1010f820 f   p_client.obj
 0001:00110de0       _MoveClientToIntermission  10111de0 f   p_hud.obj
 0001:001110a0       _BeginIntermission         101120a0 f   p_hud.obj
 0001:00111400       _DeathmatchScoreboardMessage 10112400 f   p_hud.obj
 0001:00111880       _DeathmatchScoreboard      10112880 f   p_hud.obj
 0001:001118b0       _Cmd_Score_f               101128b0 f   p_hud.obj
 0001:00111980       _HelpComputer              10112980 f   p_hud.obj
 0001:00111aa0       _Cmd_Help_f                10112aa0 f   p_hud.obj
 0001:00111b50       _WhatIsIt                  10112b50 f   p_hud.obj
 0001:00111ef0       _G_SetStats                10112ef0 f   p_hud.obj
 0001:00112af0       _G_CheckChaseStats         10113af0 f   p_hud.obj
 0001:00112ba0       _G_SetSpectatorStats       10113ba0 f   p_hud.obj
 0001:00113460       _PMenu_Open                10114460 f   p_menu.obj
 0001:00113580       _PMenu_Close               10114580 f   p_menu.obj
 0001:001135d0       _PMenu_Update              101145d0 f   p_menu.obj
 0001:00113840       _PMenu_Next                10114840 f   p_menu.obj
 0001:00113910       _PMenu_Prev                10114910 f   p_menu.obj
 0001:001139f0       _PMenu_Select              101149f0 f   p_menu.obj
 0001:00113be0       _Text_Open                 10114be0 f   p_text.obj
 0001:00113c30       _Text_Close                10114c30 f   p_text.obj
 0001:00113cd0       _Text_BuildDisplay         10114cd0 f   p_text.obj
 0001:00113e30       _Text_Update               10114e30 f   p_text.obj
 0001:001141b0       _Text_Next                 101151b0 f   p_text.obj
 0001:00114270       _Text_Prev                 10115270 f   p_text.obj
 0001:00114300       _Do_Text_Display           10115300 f   p_text.obj
 0001:00115020       _Use_Target_Text           10116020 f   p_text.obj
 0001:001150a0       _SP_target_text            101160a0 f   p_text.obj
 0001:00115640       _PlayerTrail_Init          10116640 f   p_trail.obj
 0001:001156b0       _PlayerTrail_Add           101166b0 f   p_trail.obj
 0001:001157b0       _PlayerTrail_New           101167b0 f   p_trail.obj
 0001:001157e0       _PlayerTrail_PickFirst     101167e0 f   p_trail.obj
 0001:001158c0       _PlayerTrail_PickNext      101168c0 f   p_trail.obj
 0001:00115940       _PlayerTrail_LastSpot      10116940 f   p_trail.obj
 0001:00115a20       _SV_CalcRoll               10116a20 f   p_view.obj
 0001:00115ae0       _P_DamageFeedback          10116ae0 f   p_view.obj
 0001:00116070       _SV_CalcViewOffset         10117070 f   p_view.obj
 0001:00116690       _SV_CalcGunOffset          10117690 f   p_view.obj
 0001:00116940       _SV_AddBlend               10117940 f   p_view.obj
 0001:001169e0       _SV_CalcBlend              101179e0 f   p_view.obj
 0001:001176c0       _P_SlamDamage              101186c0 f   p_view.obj
 0001:001178d0       _P_FallingDamage           101188d0 f   p_view.obj
 0001:00117c80       _P_WorldEffects            10118c80 f   p_view.obj
 0001:00118660       _G_SetClientEffects        10119660 f   p_view.obj
 0001:00118b70       _G_SetClientEvent          10119b70 f   p_view.obj
 0001:00118e60       _G_SetClientSound          10119e60 f   p_view.obj
 0001:001190c0       _PlayerOnFloor             1011a0c0 f   p_view.obj
 0001:001191b0       _G_SetClientFrame          1011a1b0 f   p_view.obj
 0001:001194b0       _WhatsIt                   1011a4b0 f   p_view.obj
 0001:00119530       _ClientEndServerFrame      1011a530 f   p_view.obj
 0001:0011ab00       _P_DamageModifier          1011bb00 f   p_weapon.obj
 0001:0011abc0       _PlayerNoise               1011bbc0 f   p_weapon.obj
 0001:0011aec0       _Pickup_Weapon             1011bec0 f   p_weapon.obj
 0001:0011b140       _ShowGun                   1011c140 f   p_weapon.obj
 0001:0011b1b0       _ChangeWeapon              1011c1b0 f   p_weapon.obj
 0001:0011b420       _NoAmmoWeaponChange        1011c420 f   p_weapon.obj
 0001:0011b900       _Think_Weapon              1011c900 f   p_weapon.obj
 0001:0011b9e0       _Use_Weapon                1011c9e0 f   p_weapon.obj
 0001:0011bc50       _Use_Weapon2               1011cc50 f   p_weapon.obj
 0001:0011beb0       _Drop_Weapon               1011ceb0 f   p_weapon.obj
 0001:0011bfe0       _Weapon_Generic            1011cfe0 f   p_weapon.obj
 0001:0011c8e0       _weapon_grenade_fire       1011d8e0 f   p_weapon.obj
 0001:0011cc10       _Throw_Generic             1011dc10 f   p_weapon.obj
 0001:0011d060       _Weapon_Grenade            1011e060 f   p_weapon.obj
 0001:0011d090       _Weapon_Prox               1011e090 f   p_weapon.obj
 0001:0011d0c0       _Weapon_Tesla              1011e0c0 f   p_weapon.obj
 0001:0011d160       _weapon_grenadelauncher_fire 1011e160 f   p_weapon.obj
 0001:0011d4c0       _Weapon_GrenadeLauncher    1011e4c0 f   p_weapon.obj
 0001:0011d520       _Weapon_ProxLauncher       1011e520 f   p_weapon.obj
 0001:0011d580       _rocket_target             1011e580 f   p_weapon.obj
 0001:0011d790       _Weapon_RocketLauncher_Fire 1011e790 f   p_weapon.obj
 0001:0011dad0       _Weapon_RocketLauncher     1011ead0 f   p_weapon.obj
 0001:0011db30       _Weapon_HomingMissileLauncher_Fire 1011eb30 f   p_weapon.obj
 0001:0011db70       _Weapon_HomingMissileLauncher 1011eb70 f   p_weapon.obj
 0001:0011dba0       _Blaster_Fire              1011eba0 f   p_weapon.obj
 0001:0011de50       _Weapon_Blaster_Fire       1011ee50 f   p_weapon.obj
 0001:0011df40       _Weapon_Blaster            1011ef40 f   p_weapon.obj
 0001:0011dfa0       _Weapon_HyperBlaster_Fire  1011efa0 f   p_weapon.obj
 0001:0011e300       _Weapon_HyperBlaster       1011f300 f   p_weapon.obj
 0001:0011e360       _Machinegun_Fire           1011f360 f   p_weapon.obj
 0001:0011e890       _Weapon_Machinegun         1011f890 f   p_weapon.obj
 0001:0011e8f0       _Chaingun_Fire             1011f8f0 f   p_weapon.obj
 0001:0011ef10       _Weapon_Chaingun           1011ff10 f   p_weapon.obj
 0001:0011ef70       _weapon_shotgun_fire       1011ff70 f   p_weapon.obj
 0001:0011f270       _Weapon_Shotgun            10120270 f   p_weapon.obj
 0001:0011f2d0       _weapon_supershotgun_fire  101202d0 f   p_weapon.obj
 0001:0011f610       _Weapon_SuperShotgun       10120610 f   p_weapon.obj
 0001:0011f670       _weapon_railgun_fire       10120670 f   p_weapon.obj
 0001:0011f8f0       _Weapon_Railgun            101208f0 f   p_weapon.obj
 0001:0011f950       _weapon_bfg_fire           10120950 f   p_weapon.obj
 0001:0011fc60       _Weapon_BFG                10120c60 f   p_weapon.obj
 0001:0011fcc0       _weapon_ionripper_fire     10120cc0 f   p_weapon.obj
 0001:0011ffe0       _Weapon_Ionripper          10120fe0 f   p_weapon.obj
 0001:00120040       _weapon_phalanx_fire       10121040 f   p_weapon.obj
 0001:001203c0       _Weapon_Phalanx            101213c0 f   p_weapon.obj
 0001:00120420       _weapon_trap_fire          10121420 f   p_weapon.obj
 0001:00120580       _Weapon_Trap               10121580 f   p_weapon.obj
 0001:001209c0       _weapon_chainfist_fire     101219c0 f   p_weapon.obj
 0001:00120b50       _chainfist_smoke           10121b50 f   p_weapon.obj
 0001:00120c00       _Weapon_ChainFist          10121c00 f   p_weapon.obj
 0001:00120e70       _weapon_tracker_fire       10121e70 f   p_weapon.obj
 0001:00121270       _Weapon_Disintegrator      10122270 f   p_weapon.obj
 0001:001212d0       _weapon_etf_rifle_fire     101222d0 f   p_weapon.obj
 0001:001217b0       _Weapon_ETF_Rifle          101227b0 f   p_weapon.obj
 0001:00121890       _Heatbeam_Fire             10122890 f   p_weapon.obj
 0001:00121be0       _Weapon_Heatbeam           10122be0 f   p_weapon.obj
 0001:00121d90       _Shockwave_Fire            10122d90 f   p_weapon.obj
 0001:001220c0       _Weapon_Shockwave          101230c0 f   p_weapon.obj
 0001:00122120       _Weapon_Null               10123120 f   p_weapon.obj
 0001:00122140       _kick_attack               10123140 f   p_weapon.obj
 0001:001243c0       _RotatePointAroundVector   101253c0 f   q_shared.obj
 0001:00124610       _AngleVectors              10125610 f   q_shared.obj
 0001:00124800       _ProjectPointOnPlane       10125800 f   q_shared.obj
 0001:001248c0       _PerpendicularVector       101258c0 f   q_shared.obj
 0001:00124970       _R_ConcatRotations         10125970 f   q_shared.obj
 0001:00124b10       _R_ConcatTransforms        10125b10 f   q_shared.obj
 0001:00124d50       _Q_fabs                    10125d50 f   q_shared.obj
 0001:00124d70       _LerpAngle                 10125d70 f   q_shared.obj
 0001:00124dd0       _anglemod                  10125dd0 f   q_shared.obj
 0001:00124e00       _BoxOnPlaneSide2           10125e00 f   q_shared.obj
 0001:00124f10       _BoxOnPlaneSide            10125f10 f   q_shared.obj
 0001:001252f0       _ClearBounds               101262f0 f   q_shared.obj
 0001:00125340       _AddPointToBounds          10126340 f   q_shared.obj
 0001:001253c0       _VectorCompare             101263c0 f   q_shared.obj
 0001:00125410       _VectorNormalize           10126410 f   q_shared.obj
 0001:001254a0       _VectorNormalize2          101264a0 f   q_shared.obj
 0001:00125530       _VectorMA                  10126530 f   q_shared.obj
 0001:00125580       __DotProduct               10126580 f   q_shared.obj
 0001:001255c0       __VectorSubtract           101265c0 f   q_shared.obj
 0001:00125600       __VectorAdd                10126600 f   q_shared.obj
 0001:00125640       __VectorCopy               10126640 f   q_shared.obj
 0001:00125670       _CrossProduct              10126670 f   q_shared.obj
 0001:001256d0       _VectorLength              101266d0 f   q_shared.obj
 0001:00125730       _VectorInverse             10126730 f   q_shared.obj
 0001:00125760       _VectorScale               10126760 f   q_shared.obj
 0001:00125790       _Q_log2                    10126790 f   q_shared.obj
 0001:001257c0       _COM_SkipPath              101267c0 f   q_shared.obj
 0001:00125800       _COM_StripExtension        10126800 f   q_shared.obj
 0001:00125840       _COM_FileExtension         10126840 f   q_shared.obj
 0001:001258d0       _COM_FileBase              101268d0 f   q_shared.obj
 0001:00125980       _COM_FilePath              10126980 f   q_shared.obj
 0001:001259e0       _COM_DefaultExtension      101269e0 f   q_shared.obj
 0001:00125a40       _BigShort                  10126a40 f   q_shared.obj
 0001:00125a60       _LittleShort               10126a60 f   q_shared.obj
 0001:00125a80       _BigLong                   10126a80 f   q_shared.obj
 0001:00125aa0       _LittleLong                10126aa0 f   q_shared.obj
 0001:00125ac0       _BigFloat                  10126ac0 f   q_shared.obj
 0001:00125ae0       _LittleFloat               10126ae0 f   q_shared.obj
 0001:00125b00       _ShortSwap                 10126b00 f   q_shared.obj
 0001:00125b40       _ShortNoSwap               10126b40 f   q_shared.obj
 0001:00125b50       _LongSwap                  10126b50 f   q_shared.obj
 0001:00125bb0       _LongNoSwap                10126bb0 f   q_shared.obj
 0001:00125bc0       _FloatSwap                 10126bc0 f   q_shared.obj
 0001:00125bf0       _FloatNoSwap               10126bf0 f   q_shared.obj
 0001:00125c00       _Swap_Init                 10126c00 f   q_shared.obj
 0001:00125cb0       _va                        10126cb0 f   q_shared.obj
 0001:00125ce0       _COM_Parse                 10126ce0 f   q_shared.obj
 0001:00125e50       _Com_PageInMemory          10126e50 f   q_shared.obj
 0001:00125e90       _Q_stricmp                 10126e90 f   q_shared.obj
 0001:00125eb0       _Q_strncasecmp             10126eb0 f   q_shared.obj
 0001:00125f40       _Q_strcasecmp              10126f40 f   q_shared.obj
 0001:00125f60       _Com_sprintf               10126f60 f   q_shared.obj
 0001:00125ff0       _Info_ValueForKey          10126ff0 f   q_shared.obj
 0001:00126160       _Info_RemoveKey            10127160 f   q_shared.obj
 0001:001262c0       _Info_Validate             101272c0 f   q_shared.obj
 0001:00126300       _Info_SetValueForKey       10127300 f   q_shared.obj
 0001:00126d40       _sentien_laser_think       10127d40 f   z_sentien.obj
 0001:00127050       _sentien_laser_on          10128050 f   z_sentien.obj
 0001:001270b0       _sentien_laser_off         101280b0 f   z_sentien.obj
 0001:001270f0       _sentien_sound_footstep    101280f0 f   z_sentien.obj
 0001:00127120       _sentien_sound_idle1       10128120 f   z_sentien.obj
 0001:00127150       _sentien_sound_idle2       10128150 f   z_sentien.obj
 0001:00127180       _sentien_sound_idle3       10128180 f   z_sentien.obj
 0001:001271b0       _sentian_sound_att1        101281b0 f   z_sentien.obj
 0001:001271e0       _sentian_sound_att2        101281e0 f   z_sentien.obj
 0001:00127210       _sentian_sound_att3        10128210 f   z_sentien.obj
 0001:00127240       _sentian_sound_fend        10128240 f   z_sentien.obj
 0001:00127270       _sentian_sound_pain1       10128270 f   z_sentien.obj
 0001:001272a0       _sentian_sound_pain2       101282a0 f   z_sentien.obj
 0001:001272d0       _sentian_sound_pain3       101282d0 f   z_sentien.obj
 0001:00127300       _sentian_sound_die1        10128300 f   z_sentien.obj
 0001:00127330       _sentian_sound_die2        10128330 f   z_sentien.obj
 0001:00127360       _sentien_stand             10128360 f   z_sentien.obj
 0001:00127390       _sentien_stand_whatnow     10128390 f   z_sentien.obj
 0001:00127440       _sentien_stand_earwax      10128440 f   z_sentien.obj
 0001:00127490       _sentien_walk              10128490 f   z_sentien.obj
 0001:00127510       _sentien_run               10128510 f   z_sentien.obj
 0001:00127590       _sentien_blast_attack      10128590 f   z_sentien.obj
 0001:00127610       _sentien_post_blast_attack 10128610 f   z_sentien.obj
 0001:00127700       _sentien_fire_bullet       10128700 f   z_sentien.obj
 0001:00127740       _sentien_do_blast          10128740 f   z_sentien.obj
 0001:00127830       _sentien_laser_attack      10128830 f   z_sentien.obj
 0001:001278a0       _sentien_post_laser_attack 101288a0 f   z_sentien.obj
 0001:001278d0       _sentien_do_laser          101288d0 f   z_sentien.obj
 0001:00127ae0       _sentien_attack            10128ae0 f   z_sentien.obj
 0001:00127bf0       _sentien_fend_ready        10128bf0 f   z_sentien.obj
 0001:00127c10       _sentien_fend_hold         10128c10 f   z_sentien.obj
 0001:00127c60       _sentien_fend              10128c60 f   z_sentien.obj
 0001:00127d60       _sentien_pain              10128d60 f   z_sentien.obj
 0001:00127f40       _sentien_dead              10128f40 f   z_sentien.obj
 0001:001280f0       _sentien_die               101290f0 f   z_sentien.obj
 0001:001282b0       _create_sentien_laser      101292b0 f   z_sentien.obj
 0001:00128460       _SP_monster_sentien_precache 10129460 f   z_sentien.obj
 0001:00128530       _SP_monster_sentien        10129530 f   z_sentien.obj
 0001:00128f80       _GetProcAddress@8          10129f80 f   kernel32:KERNEL32.dll
 0001:00128f86       _LoadLibraryA@4            10129f86 f   kernel32:KERNEL32.dll
 0001:00128f8c       _FreeLibrary@4             10129f8c f   kernel32:KERNEL32.dll
 0001:00128fa0       __fpmath                   10129fa0 f   LIBCMTD:_fpinit_.obj
 0001:00128fd0       __fpclear                  10129fd0 f   LIBCMTD:_fpinit_.obj
 0001:00128fe0       __cfltcvt_init             10129fe0 f   LIBCMTD:_fpinit_.obj
 0001:00129050       ___setfflag                1012a050 f   LIBCMTD:_fpinit_.obj
 0001:00129070       _strcmp                    1012a070 f   LIBCMTD:strcmp.obj
 0001:00129110       _strchr                    1012a110 f   LIBCMTD:strchr.obj
 0001:00129116       ___from_strstr_to_strchr   1012a116     LIBCMTD:strchr.obj
 0001:001291d0       _strcpy                    1012a1d0 f   LIBCMTD:strcat.obj
 0001:001291e0       _strcat                    1012a1e0 f   LIBCMTD:strcat.obj
 0001:001292d0       @__security_check_cookie@4 1012a2d0 f   LIBCMTD:secchk.obj
 0001:001292e0       __ftol2_sse                1012a2e0 f   LIBCMTD:ftol2.obj
 0001:001292e9       __ftol2_pentium4           1012a2e9 f   LIBCMTD:ftol2.obj
 0001:001292fc       __ftol2_sse_excpt          1012a2fc f   LIBCMTD:ftol2.obj
 0001:00129316       __ftol2                    1012a316 f   LIBCMTD:ftol2.obj
 0001:00129390       _ceil                      1012a390 f   LIBCMTD:_ceil_pentium4_.obj
 0001:001293d0       __ceil_pentium4            1012a3d0 f   LIBCMTD:_ceil_pentium4_.obj
 0001:001294b0       _srand                     1012a4b0 f   LIBCMTD:rand.obj
 0001:001294d0       _rand                      1012a4d0 f   LIBCMTD:rand.obj
 0001:00129510       _exp                       1012a510 f   LIBCMTD:_87ctran_.obj
 0001:0012954c       __CIexp                    1012a54c f   LIBCMTD:_87ctran_.obj
 0001:00129587       __exp_default              1012a587 f   LIBCMTD:_87ctran_.obj
 0001:00129591       __CIexp_default            1012a591 f   LIBCMTD:_87ctran_.obj
 0001:001295a0       _sin                       1012a5a0 f   LIBCMTD:_sin_.obj
 0001:001295e0       __CIsin                    1012a5e0 f   LIBCMTD:_sin_.obj
 0001:0012961b       __CIsin_default            1012a61b f   LIBCMTD:_sin_.obj
 0001:0012962f       __sin_default              1012a62f     LIBCMTD:_sin_.obj
 0001:001296d0       _cos                       1012a6d0 f   LIBCMTD:_cos_.obj
 0001:00129710       __CIcos                    1012a710 f   LIBCMTD:_cos_.obj
 0001:0012974b       __CIcos_default            1012a74b f   LIBCMTD:_cos_.obj
 0001:0012975f       __cos_default              1012a75f     LIBCMTD:_cos_.obj
 0001:00129800       _free                      1012a800 f   LIBCMTD:dbgfree.obj
 0001:00129820       _memset                    1012a820 f   LIBCMTD:memset.obj
 0001:001298a0       _malloc                    1012a8a0 f   LIBCMTD:dbgmalloc.obj
 0001:001298d0       _atol                      1012a8d0 f   LIBCMTD:atox.obj
 0001:001298f0       __atol_l                   1012a8f0 f   LIBCMTD:atox.obj
 0001:00129910       _atoi                      1012a910 f   LIBCMTD:atox.obj
 0001:00129930       __atoi_l                   1012a930 f   LIBCMTD:atox.obj
 0001:00129950       __atoi64                   1012a950 f   LIBCMTD:atox.obj
 0001:00129970       __atoi64_l                 1012a970 f   LIBCMTD:atox.obj
 0001:00129990       _strlen                    1012a990 f   LIBCMTD:strlen.obj
 0001:00129a20       _qsort                     1012aa20 f   LIBCMTD:qsort.obj
 0001:00129fd0       _sprintf                   1012afd0 f   LIBCMTD:sprintf.obj
 0001:0012a150       __sprintf_l                1012b150 f   LIBCMTD:sprintf.obj
 0001:0012a180       _sprintf_s                 1012b180 f   LIBCMTD:sprintf.obj
 0001:0012a1b0       __sprintf_s_l              1012b1b0 f   LIBCMTD:sprintf.obj
 0001:0012a1e0       __snprintf_s               1012b1e0 f   LIBCMTD:sprintf.obj
 0001:0012a210       __snprintf_s_l             1012b210 f   LIBCMTD:sprintf.obj
 0001:0012a240       __sprintf_p                1012b240 f   LIBCMTD:sprintf.obj
 0001:0012a270       __sprintf_p_l              1012b270 f   LIBCMTD:sprintf.obj
 0001:0012a2a0       __scprintf                 1012b2a0 f   LIBCMTD:sprintf.obj
 0001:0012a2c0       __scprintf_p               1012b2c0 f   LIBCMTD:sprintf.obj
 0001:0012a2e0       __scprintf_l               1012b2e0 f   LIBCMTD:sprintf.obj
 0001:0012a310       __scprintf_p_l             1012b310 f   LIBCMTD:sprintf.obj
 0001:0012a340       _fabs                      1012b340 f   LIBCMTD:_fabs_.obj
 0001:0012a440       _strstr                    1012b440 f   LIBCMTD:strstr.obj
 0001:0012a4d0       _strncmp                   1012b4d0 f   LIBCMTD:strncmp.obj
 0001:0012a650       _floor                     1012b650 f   LIBCMTD:_floor_pentium4_.obj
 0001:0012a690       __floor_pentium4           1012b690 f   LIBCMTD:_floor_pentium4_.obj
 0001:0012a780       _memcpy                    1012b780 f   LIBCMTD:memcpy.obj
 0001:0012aaf0       __atof_l                   1012baf0 f   LIBCMTD:atof.obj
 0001:0012ac20       ??0_LocaleUpdate@@QAE@PAUlocaleinfo_struct@@@Z 1012bc20 f i LIBCMTD:atof.obj
 0001:0012ad00       ??1_LocaleUpdate@@QAE@XZ   1012bd00 f i LIBCMTD:atof.obj
 0001:0012ad30       ?GetLocaleT@_LocaleUpdate@@QAEPAUlocaleinfo_struct@@XZ 1012bd30 f i LIBCMTD:atof.obj
 0001:0012ad40       _atof                      1012bd40 f   LIBCMTD:atof.obj
 0001:0012ad60       ___strgtold12              1012bd60 f   LIBCMTD:atof.obj
 0001:0012adc0       ___STRINGTOLD              1012bdc0 f   LIBCMTD:atof.obj
 0001:0012ae10       __CIsqrt                   1012be10 f   LIBCMTD:_sqrt_.obj
 0001:0012ae24       _sqrt                      1012be24     LIBCMTD:_sqrt_.obj
 0001:0012aed0       _asin                      1012bed0 f   LIBCMTD:_asin_.obj
 0001:0012af10       __CIasin                   1012bf10 f   LIBCMTD:_asin_.obj
 0001:0012af4b       __CIasin_default           1012bf4b f   LIBCMTD:_asin_.obj
 0001:0012af5f       __asin_default             1012bf5f     LIBCMTD:_asin_.obj
 0001:0012b020       __time64                   1012c020 f   LIBCMTD:time64.obj
 0001:0012b0a0       __vsprintf_l               1012c0a0 f   LIBCMTD:vsprintf.obj
 0001:0012b220       _vsprintf                  1012c220 f   LIBCMTD:vsprintf.obj
 0001:0012b240       __vscprintf_helper         1012c240 f   LIBCMTD:vsprintf.obj
 0001:0012b300       __vscprintf                1012c300 f   LIBCMTD:vsprintf.obj
 0001:0012b320       __vscprintf_l              1012c320 f   LIBCMTD:vsprintf.obj
 0001:0012b340       __vscprintf_p              1012c340 f   LIBCMTD:vsprintf.obj
 0001:0012b360       __vscprintf_p_l            1012c360 f   LIBCMTD:vsprintf.obj
 0001:0012b380       _strtok                    1012c380 f   LIBCMTD:strtok.obj
 0001:0012b4d0       __localtime64_s            1012c4d0 f   LIBCMTD:loctim64.obj
 0001:0012b9f0       __invoke_watson_if_error   1012c9f0 f i LIBCMTD:loctim64.obj
 0001:0012ba20       __localtime64              1012ca20 f   LIBCMTD:loctim64.obj
 0001:0012ba60       _fwrite                    1012ca60 f   LIBCMTD:fwrite.obj
 0001:0012bb70       __fwrite_nolock            1012cb70 f   LIBCMTD:fwrite.obj
 0001:0012bf40       __mkdir                    1012cf40 f   LIBCMTD:mkdir.obj
 0001:0012bf90       _fseek                     1012cf90 f   LIBCMTD:fseek.obj
 0001:0012c100       __fseek_nolock             1012d100 f   LIBCMTD:fseek.obj
 0001:0012c1e0       _fread_s                   1012d1e0 f   LIBCMTD:fread.obj
 0001:0012c310       __fread_nolock_s           1012d310 f   LIBCMTD:fread.obj
 0001:0012c8f0       _fread                     1012d8f0 f   LIBCMTD:fread.obj
 0001:0012c920       __fread_nolock             1012d920 f   LIBCMTD:fread.obj
 0001:0012c950       _fclose                    1012d950 f   LIBCMTD:fclose.obj
 0001:0012ca60       __fclose_nolock            1012da60 f   LIBCMTD:fclose.obj
 0001:0012cb60       __fsopen                   1012db60 f   LIBCMTD:fopen.obj
 0001:0012cd70       _fopen                     1012dd70 f   LIBCMTD:fopen.obj
 0001:0012cd90       _fopen_s                   1012dd90 f   LIBCMTD:fopen.obj
 0001:0012ce30       __alloca_probe             1012de30     LIBCMTD:chkstk.obj
 0001:0012ce30       __chkstk                   1012de30 f   LIBCMTD:chkstk.obj
 0001:0012ce60       _abs                       1012de60 f   LIBCMTD:abs.obj
 0001:0012ce90       __abs64                    1012de90 f   LIBCMTD:abs.obj
 0001:0012cee0       _strncpy                   1012dee0 f   LIBCMTD:strncpy.obj
 0001:0012d010       _atan                      1012e010 f   LIBCMTD:_atan_.obj
 0001:0012d050       __CIatan                   1012e050 f   LIBCMTD:_atan_.obj
 0001:0012d08b       __CIatan_default           1012e08b f   LIBCMTD:_atan_.obj
 0001:0012d09f       __atan_default             1012e09f     LIBCMTD:_atan_.obj
 0001:0012d130       _acos                      1012e130 f   LIBCMTD:_acos_.obj
 0001:0012d170       __CIacos                   1012e170 f   LIBCMTD:_acos_.obj
 0001:0012d1ab       __CIacos_default           1012e1ab f   LIBCMTD:_acos_.obj
 0001:0012d1bf       __acos_default             1012e1bf     LIBCMTD:_acos_.obj
 0001:0012d280       _sscanf                    1012e280 f   LIBCMTD:sscanf.obj
 0001:0012d3f0       __sscanf_l                 1012e3f0 f   LIBCMTD:sscanf.obj
 0001:0012d420       _sscanf_s                  1012e420 f   LIBCMTD:sscanf.obj
 0001:0012d450       __sscanf_s_l               1012e450 f   LIBCMTD:sscanf.obj
 0001:0012d480       _fprintf                   1012e480 f   LIBCMTD:fprintf.obj
 0001:0012d720       __fprintf_l                1012e720 f   LIBCMTD:fprintf.obj
 0001:0012d750       __fprintf_s_l              1012e750 f   LIBCMTD:fprintf.obj
 0001:0012d780       _fprintf_s                 1012e780 f   LIBCMTD:fprintf.obj
 0001:0012d7b0       __fprintf_p_l              1012e7b0 f   LIBCMTD:fprintf.obj
 0001:0012d7e0       __fprintf_p                1012e7e0 f   LIBCMTD:fprintf.obj
 0001:0012d810       _pow                       1012e810 f   LIBCMTD:_pow_.obj
 0001:0012d850       __CIpow                    1012e850 f   LIBCMTD:_pow_.obj
 0001:0012d88b       __CIpow_default            1012e88b f   LIBCMTD:_pow_.obj
 0001:0012d8a4       __pow_default              1012e8a4     LIBCMTD:_pow_.obj
 0001:0012daa0       _fflush                    1012eaa0 f   LIBCMTD:fflush.obj
 0001:0012db40       __fflush_nolock            1012eb40 f   LIBCMTD:fflush.obj
 0001:0012dba0       __flush                    1012eba0 f   LIBCMTD:fflush.obj
 0001:0012dc60       __flushall                 1012ec60 f   LIBCMTD:fflush.obj
 0001:0012de30       _tan                       1012ee30 f   LIBCMTD:_tan_.obj
 0001:0012de70       __CItan                    1012ee70 f   LIBCMTD:_tan_.obj
 0001:0012deab       __CItan_default            1012eeab f   LIBCMTD:_tan_.obj
 0001:0012debf       __tan_default              1012eebf     LIBCMTD:_tan_.obj
 0001:0012df60       _atan2                     1012ef60 f   LIBCMTD:_87ctriga_.obj
 0001:0012df6a       __CIatan2                  1012ef6a f   LIBCMTD:_87ctriga_.obj
 0001:0012df80       __copysign                 1012ef80 f   LIBCMTD:_ieeemisc_.obj
 0001:0012dfc0       __chgsign                  1012efc0 f   LIBCMTD:_ieeemisc_.obj
 0001:0012e000       __scalb                    1012f000 f   LIBCMTD:_ieeemisc_.obj
 0001:0012e020       __logb                     1012f020 f   LIBCMTD:_ieeemisc_.obj
 0001:0012e150       __nextafter                1012f150 f   LIBCMTD:_ieeemisc_.obj
 0001:0012e470       __finite                   1012f470 f   LIBCMTD:_ieeemisc_.obj
 0001:0012e490       __isnan                    1012f490 f   LIBCMTD:_ieeemisc_.obj
 0001:0012e4e0       __fpclass                  1012f4e0 f   LIBCMTD:_ieeemisc_.obj
 0001:0012e5b0       _memcmp                    1012f5b0 f   LIBCMTD:memcmp.obj
 0001:0012f020       __wassert                  10130020 f   LIBCMTD:wassert.obj
 0001:0012fbf0       __stricmp_l                10130bf0 f   LIBCMTD:stricmp.obj
 0001:0012fda0       ___ascii_stricmp           10130da0 f   LIBCMTD:stricmp.obj
 0001:0012fe20       _stricmp                   10130e20 f   LIBCMTD:stricmp.obj
 0001:0012fe20       __stricmp                  10130e20 f   LIBCMTD:stricmp.obj
 0001:0012ff30       __CRT_INIT@12              10130f30 f   LIBCMTD:dllcrt0.obj
 0001:00130100       __DllMainCRTStartup@12     10131100 f   LIBCMTD:dllcrt0.obj
 0001:001302f0       __setdefaultprecision      101312f0 f   LIBCMTD:fp8.obj
 0001:00130330       __ms_p5_test_fdiv          10131330 f   LIBCMTD:_testfdiv_.obj
 0001:00130380       __ms_p5_mp_test_fdiv       10131380 f   LIBCMTD:_testfdiv_.obj
 0001:001303d0       __forcdecpt                101313d0 f   LIBCMTD:cvt.obj
 0001:001303f0       __forcdecpt_l              101313f0 f   LIBCMTD:cvt.obj
 0001:001304b0       __cropzeros                101314b0 f   LIBCMTD:cvt.obj
 0001:001304d0       __cropzeros_l              101314d0 f   LIBCMTD:cvt.obj
 0001:001305e0       __positive                 101315e0 f   LIBCMTD:cvt.obj
 0001:00130610       __fassign_l                10131610 f   LIBCMTD:cvt.obj
 0001:00130670       __fassign                  10131670 f   LIBCMTD:cvt.obj
 0001:00130690       __cftoe_l                  10131690 f   LIBCMTD:cvt.obj
 0001:00130be0       __cftoe                    10131be0 f   LIBCMTD:cvt.obj
 0001:00130c10       __cftoa_l                  10131c10 f   LIBCMTD:cvt.obj
 0001:001313f0       ?strrchr@@YAPADPADH@Z      101323f0 f i LIBCMTD:cvt.obj
 0001:00131410       __cftoa                    10132410 f   LIBCMTD:cvt.obj
 0001:00131440       __cftof_l                  10132440 f   LIBCMTD:cvt.obj
 0001:00131850       __cftof                    10132850 f   LIBCMTD:cvt.obj
 0001:00131880       __cftog_l                  10132880 f   LIBCMTD:cvt.obj
 0001:00131ab0       __cftog                    10132ab0 f   LIBCMTD:cvt.obj
 0001:00131ae0       __cfltcvt_l                10132ae0 f   LIBCMTD:cvt.obj
 0001:00131ba0       __cfltcvt                  10132ba0 f   LIBCMTD:cvt.obj
 0001:00131c00       __initp_misc_cfltcvt_tab   10132c00 f   LIBCMTD:cmiscdat.obj
 0001:00131c50       ___report_gsfailure        10132c50 f   LIBCMTD:gs_report.obj
 0001:00131d60       __get_sse2_info            10132d60 f   LIBCMTD:cpu_disp.obj
 0001:00131e90       ___sse2_available_init     10132e90 f   LIBCMTD:cpu_disp.obj
 0001:00131eb0       ___libm_setusermatherr     10132eb0 f   LIBCMTD:_libm_error_.obj
 0001:00131ef0       ___libm_error_support      10132ef0 f   LIBCMTD:_libm_error_.obj
 0001:00132a30       __sse2_mathfcns_init       10133a30 f   LIBCMTD:_mathfcns_.obj
 0001:00132a50       __set_SSE2_enable          10133a50 f   LIBCMTD:_mathfcns_.obj
 0001:00132a70       __ceil_default             10133a70 f   LIBCMTD:_ceil_.obj
 0001:00132bb0       __encode_pointer           10133bb0 f   LIBCMTD:tidtable.obj
 0001:00132c50       __crt_wait_module_handle   10133c50 f i LIBCMTD:tidtable.obj
 0001:00132c80       __encoded_null             10133c80 f   LIBCMTD:tidtable.obj
 0001:00132ca0       __decode_pointer           10133ca0 f   LIBCMTD:tidtable.obj
 0001:00132d40       ___crtTlsAlloc@4           10133d40 f   LIBCMTD:tidtable.obj
 0001:00132d50       ___fls_getvalue@4          10133d50 f   LIBCMTD:tidtable.obj
 0001:00132d70       ___get_flsindex            10133d70 f   LIBCMTD:tidtable.obj
 0001:00132d80       ___set_flsgetvalue         10133d80 f   LIBCMTD:tidtable.obj
 0001:00132dd0       ___fls_setvalue@8          10133dd0 f   LIBCMTD:tidtable.obj
 0001:00132e00       __mtinit                   10133e00 f   LIBCMTD:tidtable.obj
 0001:00133010       __mtterm                   10134010 f   LIBCMTD:tidtable.obj
 0001:00133070       __initptd                  10134070 f   LIBCMTD:tidtable.obj
 0001:001331d0       __getptd_noexit            101341d0 f   LIBCMTD:tidtable.obj
 0001:00133290       __getptd                   10134290 f   LIBCMTD:tidtable.obj
 0001:001332c0       __freefls@4                101342c0 f   LIBCMTD:tidtable.obj
 0001:001334d0       __freeptd                  101344d0 f   LIBCMTD:tidtable.obj
 0001:00133550       ___threadid                10134550 f   LIBCMTD:tidtable.obj
 0001:00133560       ___threadhandle            10134560 f   LIBCMTD:tidtable.obj
 0001:00133570       __CIexp_pentium4           10134570 f   LIBCMTD:_exp_pentium4_.obj
 0001:00133588       __exp_pentium4             10134588     LIBCMTD:_exp_pentium4_.obj
 0001:00133841       __fFEXP                    10134841     LIBCMTD:_87tran_.obj
 0001:001338a8       __rtinfpopse               101348a8     LIBCMTD:_87tran_.obj
 0001:001338aa       __rtinfnpopse              101348aa     LIBCMTD:_87tran_.obj
 0001:001338ba       __fFLN                     101348ba     LIBCMTD:_87tran_.obj
 0001:0013396f       __rtinfpop                 1013496f     LIBCMTD:_87tran_.obj
 0001:00133971       __rtinfnpop                10134971     LIBCMTD:_87tran_.obj
 0001:0013398e       __ffexpm1                  1013498e     LIBCMTD:_87tran_.obj
 0001:00133a40       __cintrindisp2             10134a40 f   LIBCMTD:_87cdisp_.obj
 0001:00133a7e       __cintrindisp1             10134a7e f   LIBCMTD:_87cdisp_.obj
 0001:00133abb       __ctrandisp2               10134abb f   LIBCMTD:_87cdisp_.obj
 0001:00133c51       __ctrandisp1               10134c51 f   LIBCMTD:_87cdisp_.obj
 0001:00133c84       __fload                    10134c84 f   LIBCMTD:_87cdisp_.obj
 0001:00133cc0       __CIsin_pentium4           10134cc0 f   LIBCMTD:_sin_pentium4_.obj
 0001:00133cd8       __sin_pentium4             10134cd8     LIBCMTD:_sin_pentium4_.obj
 0001:00133e90       __trandisp1                10134e90 f   LIBCMTD:_87disp_.obj
 0001:00133ef7       __trandisp2                10134ef7 f   LIBCMTD:_87disp_.obj
 0001:00133f83       __rttospopde               10134f83     LIBCMTD:_87disp_.obj
 0001:00133f88       __rttospop                 10134f88     LIBCMTD:_87disp_.obj
 0001:00133f8a       __rtnospop                 10134f8a     LIBCMTD:_87disp_.obj
 0001:00133f8c       __rttosnpop                10134f8c     LIBCMTD:_87disp_.obj
 0001:00133f8d       __rtnospopde               10134f8d     LIBCMTD:_87disp_.obj
 0001:00133f94       __rtzeropop                10134f94     LIBCMTD:_87disp_.obj
 0001:00133f96       __rtzeronpop               10134f96     LIBCMTD:_87disp_.obj
 0001:00133f9b       __rtonepop                 10134f9b     LIBCMTD:_87disp_.obj
 0001:00133f9d       __rtonenpop                10134f9d     LIBCMTD:_87disp_.obj
 0001:00133fa2       __tosnan1                  10134fa2     LIBCMTD:_87disp_.obj
 0001:00133fcd       __nosnan2                  10134fcd     LIBCMTD:_87disp_.obj
 0001:00133fcf       __tosnan2                  10134fcf     LIBCMTD:_87disp_.obj
 0001:00133ff7       __nan2                     10134ff7     LIBCMTD:_87disp_.obj
 0001:00134036       __rtindfpop                10135036     LIBCMTD:_87disp_.obj
 0001:00134038       __rtindfnpop               10135038     LIBCMTD:_87disp_.obj
 0001:00134049       __rttosnpopde              10135049     LIBCMTD:_87disp_.obj
 0001:00134053       __rtchsifneg               10135053     LIBCMTD:_87disp_.obj
 0001:00134060       __twoToTOS                 10135060 f   LIBCMTD:_common_.obj
 0001:00134075       __load_CW                  10135075 f   LIBCMTD:_common_.obj
 0001:0013408c       __convertTOStoQNaN         1013508c f   LIBCMTD:_common_.obj
 0001:001340a5       __fload_withFB             101350a5 f   LIBCMTD:_common_.obj
 0001:001340e8       __checkTOS_withFB          101350e8 f   LIBCMTD:_common_.obj
 0001:001340fe       __fast_exit                101350fe f   LIBCMTD:_common_.obj
 0001:0013410b       __math_exit                1013510b f   LIBCMTD:_common_.obj
 0001:00134135       __check_overflow_exit      10135135 f   LIBCMTD:_common_.obj
 0001:00134149       __check_range_exit         10135149 f   LIBCMTD:_common_.obj
 0001:001341f0       __startTwoArgErrorHandling 101351f0 f   LIBCMTD:_genexcep_.obj
 0001:00134207       __startOneArgErrorHandling 10135207 f   LIBCMTD:_genexcep_.obj
 0001:00134250       __CIcos_pentium4           10135250 f   LIBCMTD:_cos_pentium4_.obj
 0001:00134268       __cos_pentium4             10135268     LIBCMTD:_cos_pentium4_.obj
 0001:00134400       __malloc_dbg               10135400 f   LIBCMTD:dbgheap.obj
 0001:00134430       __nh_malloc                10135430 f   LIBCMTD:dbgheap.obj
 0001:00134450       __nh_malloc_dbg            10135450 f   LIBCMTD:dbgheap.obj
 0001:00134520       __heap_alloc               10135520 f   LIBCMTD:dbgheap.obj
 0001:001348f0       __heap_alloc_dbg           101358f0 f   LIBCMTD:dbgheap.obj
 0001:00134950       __calloc_dbg_impl          10135950 f   LIBCMTD:dbgheap.obj
 0001:00134a20       __calloc_dbg               10135a20 f   LIBCMTD:dbgheap.obj
 0001:00134a80       __recalloc                 10135a80 f   LIBCMTD:dbgheap.obj
 0001:00134ab0       __realloc_dbg              10135ab0 f   LIBCMTD:dbgheap.obj
 0001:00135150       __recalloc_dbg             10136150 f   LIBCMTD:dbgheap.obj
 0001:00135250       __expand                   10136250 f   LIBCMTD:dbgheap.obj
 0001:00135280       __expand_dbg               10136280 f   LIBCMTD:dbgheap.obj
 0001:00135390       __free_nolock              10136390 f   LIBCMTD:dbgheap.obj
 0001:001353b0       __free_dbg                 101363b0 f   LIBCMTD:dbgheap.obj
 0001:00135430       __free_dbg_nolock          10136430 f   LIBCMTD:dbgheap.obj
 0001:00135910       __msize                    10136910 f   LIBCMTD:dbgheap.obj
 0001:00135930       __msize_dbg                10136930 f   LIBCMTD:dbgheap.obj
 0001:00135b20       __CrtSetBreakAlloc         10136b20 f   LIBCMTD:dbgheap.obj
 0001:00135b40       __CrtSetDbgBlockType       10136b40 f   LIBCMTD:dbgheap.obj
 0001:00135c30       __CrtSetAllocHook          10136c30 f   LIBCMTD:dbgheap.obj
 0001:00135c50       __CrtGetAllocHook          10136c50 f   LIBCMTD:dbgheap.obj
 0001:00135cb0       __CrtCheckMemory           10136cb0 f   LIBCMTD:dbgheap.obj
 0001:00136110       __CrtSetDbgFlag            10137110 f   LIBCMTD:dbgheap.obj
 0001:00136260       __CrtDoForAllClientObjects 10137260 f   LIBCMTD:dbgheap.obj
 0001:00136380       __CrtIsValidPointer        10137380 f   LIBCMTD:dbgheap.obj
 0001:00136390       __CrtIsValidHeapPointer    10137390 f   LIBCMTD:dbgheap.obj
 0001:00136430       __CrtIsMemoryBlock         10137430 f   LIBCMTD:dbgheap.obj
 0001:001365a0       __CrtReportBlockType       101375a0 f   LIBCMTD:dbgheap.obj
 0001:001365d0       __CrtSetDumpClient         101375d0 f   LIBCMTD:dbgheap.obj
 0001:001365f0       __CrtGetDumpClient         101375f0 f   LIBCMTD:dbgheap.obj
 0001:00136600       __CrtMemCheckpoint         10137600 f   LIBCMTD:dbgheap.obj
 0001:00136820       __CrtMemDifference         10137820 f   LIBCMTD:dbgheap.obj
 0001:00136a40       __CrtMemDumpAllObjectsSince 10137a40 f   LIBCMTD:dbgheap.obj
 0001:00136f30       __invoke_watson_if_oneof   10137f30 f i LIBCMTD:dbgheap.obj
 0001:00136f80       __CrtDumpMemoryLeaks       10137f80 f   LIBCMTD:dbgheap.obj
 0001:00136ff0       __CrtMemDumpStatistics     10137ff0 f   LIBCMTD:dbgheap.obj
 0001:00137100       __aligned_malloc           10138100 f   LIBCMTD:dbgheap.obj
 0001:00137120       __aligned_malloc_dbg       10138120 f   LIBCMTD:dbgheap.obj
 0001:00137150       __aligned_realloc          10138150 f   LIBCMTD:dbgheap.obj
 0001:00137180       __aligned_recalloc         10138180 f   LIBCMTD:dbgheap.obj
 0001:001371b0       __aligned_realloc_dbg      101381b0 f   LIBCMTD:dbgheap.obj
 0001:001371e0       __aligned_recalloc_dbg     101381e0 f   LIBCMTD:dbgheap.obj
 0001:00137210       __aligned_offset_malloc    10138210 f   LIBCMTD:dbgheap.obj
 0001:00137230       __aligned_offset_malloc_dbg 10138230 f   LIBCMTD:dbgheap.obj
 0001:001373d0       __aligned_offset_realloc   101383d0 f   LIBCMTD:dbgheap.obj
 0001:00137400       __aligned_offset_recalloc  10138400 f   LIBCMTD:dbgheap.obj
 0001:00137430       __aligned_offset_realloc_dbg 10138430 f   LIBCMTD:dbgheap.obj
 0001:00137700       __aligned_offset_recalloc_dbg 10138700 f   LIBCMTD:dbgheap.obj
 0001:00137810       __aligned_free             10138810 f   LIBCMTD:dbgheap.obj
 0001:00137830       __aligned_free_dbg         10138830 f   LIBCMTD:dbgheap.obj
 0001:001378e0       __CrtSetDebugFillThreshold 101388e0 f   LIBCMTD:dbgheap.obj
 0001:00137900       __CrtSetCheckCount         10138900 f   LIBCMTD:dbgheap.obj
 0001:00137920       __CrtGetCheckCount         10138920 f   LIBCMTD:dbgheap.obj
 0001:00137930       __aligned_msize            10138930 f   LIBCMTD:dbgheap.obj
 0001:00137950       __aligned_msize_dbg        10138950 f   LIBCMTD:dbgheap.obj
 0001:00137a60       __VEC_memzero              10138a60 f   LIBCMTD:p4_memset.obj
 0001:00137b50       _strtol                    10138b50 f   LIBCMTD:strtol.obj
 0001:00138080       __strtol_l                 10139080 f   LIBCMTD:strtol.obj
 0001:001380b0       _strtoul                   101390b0 f   LIBCMTD:strtol.obj
 0001:00138100       __strtoul_l                10139100 f   LIBCMTD:strtol.obj
 0001:00138130       __strtoi64                 10139130 f   LIBCMTD:strtoq.obj
 0001:001386a0       __strtoi64_l               101396a0 f   LIBCMTD:strtoq.obj
 0001:001386d0       __strtoui64                101396d0 f   LIBCMTD:strtoq.obj
 0001:00138720       __strtoui64_l              10139720 f   LIBCMTD:strtoq.obj
 0001:00138750       __initp_misc_invarg        10139750 f   LIBCMTD:invarg.obj
 0001:00138760       __invalid_parameter        10139760 f   LIBCMTD:invarg.obj
 0001:001387d0       __invoke_watson            101397d0 f   LIBCMTD:invarg.obj
 0001:00138920       __set_invalid_parameter_handler 10139920 f   LIBCMTD:invarg.obj
 0001:00138970       __get_invalid_parameter_handler 10139970 f   LIBCMTD:invarg.obj
 0001:001389a0       ?_invalid_parameter@@YAXPBG00II@Z 101399a0 f   LIBCMTD:invarg.obj
 0001:001389d0       ?_invoke_watson@@YAXPBG00II@Z 101399d0 f   LIBCMTD:invarg.obj
 0001:00138a00       __dosmaperr                10139a00 f   LIBCMTD:dosmap.obj
 0001:00138a30       __get_errno_from_oserr     10139a30 f   LIBCMTD:dosmap.obj
 0001:00138ab0       __set_errno                10139ab0 f   LIBCMTD:dosmap.obj
 0001:00138ae0       __get_errno                10139ae0 f   LIBCMTD:dosmap.obj
 0001:00138b60       __set_doserrno             10139b60 f   LIBCMTD:dosmap.obj
 0001:00138b90       __get_doserrno             10139b90 f   LIBCMTD:dosmap.obj
 0001:00138c10       __errno                    10139c10 f   LIBCMTD:dosmap.obj
 0001:00138c40       ___doserrno                10139c40 f   LIBCMTD:dosmap.obj
 0001:00138c70       __CrtSetReportHookW2       10139c70 f   LIBCMTD:dbgrptw.obj
 0001:00138f90       __CrtDbgReportW            10139f90 f   LIBCMTD:dbgrptw.obj
 0001:00138fd0       __CrtDbgReportWV           10139fd0 f i LIBCMTD:dbgrptw.obj
 0001:00139000       ___crtMessageWindowW       1013a000 f   LIBCMTD:dbgrptw.obj
 0001:00139400       ?_CrtDbgReportW@@YAHHPBGH00ZZ 1013a400 f   LIBCMTD:dbgrptw.obj
 0001:00139440       __flsbuf                   1013a440 f   LIBCMTD:_flsbuf.obj
 0001:00139700       __output_l                 1013a700 f   LIBCMTD:output.obj
 0001:0013ab30       _get_int_arg               1013bb30 f i LIBCMTD:output.obj
 0001:0013ab50       _get_int64_arg             1013bb50 f i LIBCMTD:output.obj
 0001:0013ab70       _get_short_arg             1013bb70 f i LIBCMTD:output.obj
 0001:0013ab90       __vsnprintf_helper         1013bb90 f   LIBCMTD:vsnprnc.obj
 0001:0013ad60       __vsnprintf_c              1013bd60 f   LIBCMTD:vsnprnc.obj
 0001:0013adb0       __vsnprintf_c_l            1013bdb0 f   LIBCMTD:vsnprnc.obj
 0001:0013ae00       __vsprintf_s_l             1013be00 f   LIBCMTD:vsnprnc.obj
 0001:0013b070       _vsprintf_s                1013c070 f   LIBCMTD:vsnprnc.obj
 0001:0013b0a0       __vsnprintf_s_l            1013c0a0 f   LIBCMTD:vsnprnc.obj
 0001:0013b440       __vsnprintf_s              1013c440 f   LIBCMTD:vsnprnc.obj
 0001:0013b470       __vsprintf_p               1013c470 f   LIBCMTD:vsnprnc.obj
 0001:0013b4c0       __vsprintf_p_l             1013c4c0 f   LIBCMTD:vsnprnc.obj
 0001:0013b510       __handle_qnan1             1013c510 f   LIBCMTD:_fpexcept_.obj
 0001:0013b570       __handle_qnan2             1013c570 f   LIBCMTD:_fpexcept_.obj
 0001:0013b5e0       __except1                  1013c5e0 f   LIBCMTD:_fpexcept_.obj
 0001:0013b6e0       __except2                  1013c6e0 f   LIBCMTD:_fpexcept_.obj
 0001:0013b7f0       __raise_exc_ex             1013c7f0 f   LIBCMTD:_fpexcept_.obj
 0001:0013bd20       __raise_exc                1013cd20 f   LIBCMTD:_fpexcept_.obj
 0001:0013bd50       __raise_excf               1013cd50 f   LIBCMTD:_fpexcept_.obj
 0001:0013bd80       __handle_exc               1013cd80 f   LIBCMTD:_fpexcept_.obj
 0001:0013c090       __umatherr                 1013d090 f   LIBCMTD:_fpexcept_.obj
 0001:0013c130       __set_errno_from_matherr   1013d130 f   LIBCMTD:_fpexcept_.obj
 0001:0013c1c0       __errcode                  1013d1c0 f   LIBCMTD:_fpexcept_.obj
 0001:0013c230       __set_exp                  1013d230 f   LIBCMTD:_util_.obj
 0001:0013c270       __get_exp                  1013d270 f   LIBCMTD:_util_.obj
 0001:0013c2a0       __add_exp                  1013d2a0 f   LIBCMTD:_util_.obj
 0001:0013c2e0       __set_bexp                 1013d2e0 f   LIBCMTD:_util_.obj
 0001:0013c310       __sptype                   1013d310 f   LIBCMTD:_util_.obj
 0001:0013c390       __decomp                   1013d390 f   LIBCMTD:_util_.obj
 0001:0013c4b0       __statfp                   1013d4b0 f   LIBCMTD:_fpctrl_.obj
 0001:0013c4d0       __clrfp                    1013d4d0 f   LIBCMTD:_fpctrl_.obj
 0001:0013c4f0       __ctrlfp                   1013d4f0 f   LIBCMTD:_fpctrl_.obj
 0001:0013c520       __set_statfp               1013d520 f   LIBCMTD:_fpctrl_.obj
 0001:0013c590       ___get_fpsr_sse2           1013d590 f   LIBCMTD:_fpctrl_.obj
 0001:0013c5c0       ___set_fpsr_sse2           1013d5c0 f   LIBCMTD:_fpctrl_.obj
 0001:0013c6a0       ___fclrf_sse2              1013d6a0 f   LIBCMTD:_fpctrl_.obj
 0001:0013c6c0       ___statfp_sse2             1013d6c0 f   LIBCMTD:_fpctrl_.obj
 0001:0013c6f0       ___clrfp_sse2              1013d6f0 f   LIBCMTD:_fpctrl_.obj
 0001:0013c730       ___ctrlfp_sse2             1013d730 f   LIBCMTD:_fpctrl_.obj
 0001:0013c790       ___set_statfp_sse2         1013d790 f   LIBCMTD:_fpctrl_.obj
 0001:0013c7c0       __floor_default            1013d7c0 f   LIBCMTD:_floor_.obj
 0001:0013c900       __VEC_memcpy               1013d900 f   LIBCMTD:p4_memcpy.obj
 0001:0013ca80       __fltin2                   1013da80 f   LIBCMTD:_cfin_.obj
 0001:0013cb60       __chvalidator              1013db60 f   LIBCMTD:isctype.obj
 0001:0013cbb0       __chvalidator_l            1013dbb0 f   LIBCMTD:isctype.obj
 0001:0013cc60       __isctype_l                1013dc60 f   LIBCMTD:isctype.obj
 0001:0013cd80       __isctype                  1013dd80 f   LIBCMTD:isctype.obj
 0001:0013cdc0       ___updatetmbcinfo          1013ddc0 f   LIBCMTD:mbctype.obj
 0001:0013ced0       __setmbcp                  1013ded0 f   LIBCMTD:mbctype.obj
 0001:0013d280       __setmbcp_nolock           1013e280 f   LIBCMTD:mbctype.obj
 0001:0013da70       __getmbcp                  1013ea70 f   LIBCMTD:mbctype.obj
 0001:0013dae0       ___initmbctable            1013eae0 f   LIBCMTD:mbctype.obj
 0001:0013db10       ____setlc_active_func      1013eb10 f   LIBCMTD:setlocal.obj
 0001:0013db20       ____unguarded_readlc_active_add_func 1013eb20 f   LIBCMTD:setlocal.obj
 0001:0013db30       ___freetlocinfo            1013eb30 f   LIBCMTD:setlocal.obj
 0001:0013de10       ___addlocaleref            1013ee10 f   LIBCMTD:setlocal.obj
 0001:0013df30       ___removelocaleref         1013ef30 f   LIBCMTD:setlocal.obj
 0001:0013e060       ___updatetlocinfo          1013f060 f   LIBCMTD:setlocal.obj
 0001:0013e1b0       __configthreadlocale       1013f1b0 f   LIBCMTD:setlocal.obj
 0001:0013e2c0       __locterm                  1013f2c0 f   LIBCMTD:setlocal.obj
 0001:0013e360       __free_locale              1013f360 f   LIBCMTD:setlocal.obj
 0001:0013e4a0       ___free_locale             1013f4a0 f   LIBCMTD:setlocal.obj
 0001:0013e4c0       __create_locale            1013f4c0 f   LIBCMTD:setlocal.obj
 0001:0013e6f0       ___create_locale           1013f6f0 f   LIBCMTD:setlocal.obj
 0001:0013e710       __get_current_locale       1013f710 f   LIBCMTD:setlocal.obj
 0001:0013e830       ___get_current_locale      1013f830 f   LIBCMTD:setlocal.obj
 0001:0013e840       _setlocale                 1013f840 f   LIBCMTD:setlocal.obj
 0001:0013f750       __expandlocale             10140750 f   LIBCMTD:setlocal.obj
 0001:0013fa00       ___init_dummy              10140a00 f   LIBCMTD:setlocal.obj
 0001:0013fa10       __strcats                  10140a10 f   LIBCMTD:setlocal.obj
 0001:0013fa90       ___lc_strtolc              10140a90 f   LIBCMTD:setlocal.obj
 0001:0013fc90       ___lc_lctostr              10140c90 f   LIBCMTD:setlocal.obj
 0001:0013fd30       ___strgtold12_l            10140d30 f   LIBCMTD:_strgtold_.obj
 0001:001407e0       ___multtenpow12            101417e0 f i LIBCMTD:_strgtold_.obj
 0001:001408c0       ___ld12mul                 101418c0 f i LIBCMTD:_strgtold_.obj
 0001:00140cc0       ___addl                    10141cc0 f i LIBCMTD:_strgtold_.obj
 0001:00140d00       ___shl_12                  10141d00 f i LIBCMTD:_strgtold_.obj
 0001:00140d70       ___shr_12                  10141d70 f i LIBCMTD:_strgtold_.obj
 0001:00140de0       ___STRINGTOLD_L            10141de0 f   LIBCMTD:_strgtold_.obj
 0001:00140e50       __CIasin_pentium4          10141e50 f   LIBCMTD:_asin_pentium4_.obj
 0001:00140e68       __asin_pentium4            10141e68     LIBCMTD:_asin_pentium4_.obj
 0001:001413d0       __aulldiv                  101423d0 f   LIBCMTD:ulldiv.obj
 0001:00141440       __validate_param_reuseA    10142440 f   LIBCMTD:outputp.obj
 0001:001416b0       __output_p_l               101426b0 f   LIBCMTD:outputp.obj
 0001:00145270       _get_crtdouble_arg         10146270 f i LIBCMTD:outputp.obj
 0001:00145290       ___tzset                   10146290 f   LIBCMTD:tzset.obj
 0001:00145330       __tzset                    10146330 f   LIBCMTD:tzset.obj
 0001:001458e0       __set_daylight             101468e0 f i LIBCMTD:tzset.obj
 0001:00145900       __set_dstbias              10146900 f i LIBCMTD:tzset.obj
 0001:00145920       __set_timezone             10146920 f i LIBCMTD:tzset.obj
 0001:00145940       __isindst                  10146940 f   LIBCMTD:tzset.obj
 0001:00145ff0       __gmtime64_s               10146ff0 f   LIBCMTD:gmtime64.obj
 0001:001463f0       __gmtime64                 101473f0 f   LIBCMTD:gmtime64.obj
 0001:00146430       __get_daylight             10147430 f   LIBCMTD:timeset.obj
 0001:001464b0       __get_dstbias              101474b0 f   LIBCMTD:timeset.obj
 0001:00146530       __get_timezone             10147530 f   LIBCMTD:timeset.obj
 0001:001465b0       __get_tzname               101475b0 f   LIBCMTD:timeset.obj
 0001:00146780       ___daylight                10147780 f   LIBCMTD:timeset.obj
 0001:00146790       ___dstbias                 10147790 f   LIBCMTD:timeset.obj
 0001:001467a0       ___timezone                101477a0 f   LIBCMTD:timeset.obj
 0001:001467b0       ___tzname                  101477b0 f   LIBCMTD:timeset.obj
 0001:001467c0       __alldiv                   101477c0 f   LIBCMTD:lldiv.obj
 0001:00146870       __allrem                   10147870 f   LIBCMTD:llrem.obj
 0001:00146930       __gmtime32_s               10147930 f   LIBCMTD:gmtime.obj
 0001:00146bf0       ___getgmtimebuf            10147bf0 f   LIBCMTD:gmtime.obj
 0001:00146c70       __gmtime32                 10147c70 f   LIBCMTD:gmtime.obj
 0001:00146cb0       ___iob_func                10147cb0 f   LIBCMTD:_file.obj
 0001:00146cc0       ___initstdio               10147cc0 f   LIBCMTD:_file.obj
 0001:00146e10       ___endstdio                10147e10 f   LIBCMTD:_file.obj
 0001:00146e40       __lock_file                10147e40 f   LIBCMTD:_file.obj
 0001:00146ea0       __lock_file2               10147ea0 f   LIBCMTD:_file.obj
 0001:00146ee0       __unlock_file              10147ee0 f   LIBCMTD:_file.obj
 0001:00146f40       __unlock_file2             10147f40 f   LIBCMTD:_file.obj
 0001:00146f80       __except_handler4          10147f80 f   LIBCMTD:chandler4.obj
 0001:001471a0       __write                    101481a0 f   LIBCMTD:write.obj
 0001:001473d0       __write_nolock             101483d0 f   LIBCMTD:write.obj
 0001:00147f10       __fileno                   10148f10 f   LIBCMTD:fileno.obj
 0001:00147f90       __lseek                    10148f90 f   LIBCMTD:lseek.obj
 0001:001481c0       __lseek_nolock             101491c0 f   LIBCMTD:lseek.obj
 0001:001482a0       _ftell                     101492a0 f   LIBCMTD:ftell.obj
 0001:00148390       __ftell_nolock             10149390 f   LIBCMTD:ftell.obj
 0001:00148660       __filbuf                   10149660 f   LIBCMTD:_filbuf.obj
 0001:001488b0       __read                     101498b0 f   LIBCMTD:read.obj
 0001:00148b40       __read_nolock              10149b40 f   LIBCMTD:read.obj
 0001:00149a90       _memcpy_s                  1014aa90 f   LIBCMTD:memcpy_s.obj
 0001:00149c20       __close                    1014ac20 f   LIBCMTD:close.obj
 0001:00149e30       __close_nolock             1014ae30 f   LIBCMTD:close.obj
 0001:00149f00       __freebuf                  1014af00 f   LIBCMTD:_freebuf.obj
 0001:00149f90       __openfile                 1014af90 f   LIBCMTD:_open.obj
 0001:0014a750       __getstream                1014b750 f   LIBCMTD:stream.obj
 0001:0014a9b0       __local_unwind4            1014b9b0 f   LIBCMTD:exsup4.obj
 0001:0014aa86       __seh_longjmp_unwind4@4    1014ba86 f   LIBCMTD:exsup4.obj
 0001:0014aaa2       @_EH4_CallFilterFunc@8     1014baa2 f   LIBCMTD:exsup4.obj
 0001:0014aab9       @_EH4_TransferToHandler@8  1014bab9 f   LIBCMTD:exsup4.obj
 0001:0014aad2       @_EH4_GlobalUnwind@4       1014bad2 f   LIBCMTD:exsup4.obj
 0001:0014aaec       @_EH4_LocalUnwind@16       1014baec f   LIBCMTD:exsup4.obj
 0001:0014ab10       __CIatan_pentium4          1014bb10 f   LIBCMTD:_atan_pentium4_.obj
 0001:0014ab28       __atan_pentium4            1014bb28     LIBCMTD:_atan_pentium4_.obj
 0001:0014ae00       __CIacos_pentium4          1014be00 f   LIBCMTD:_acos_pentium4_.obj
 0001:0014ae18       __acos_pentium4            1014be18     LIBCMTD:_acos_pentium4_.obj
 0001:0014b360       __input_l                  1014c360 f   LIBCMTD:input.obj
 0001:0014cbb0       __INTRN_LOCALE_CONV        1014dbb0 f i LIBCMTD:input.obj
 0001:0014cce0       __input_s_l                1014dce0 f   LIBCMTD:inputs.obj
 0001:0014e9f0       __stbuf                    1014f9f0 f   LIBCMTD:_sftbuf.obj
 0001:0014eb50       __ftbuf                    1014fb50 f   LIBCMTD:_sftbuf.obj
 0001:0014ebe0       __ioinit                   1014fbe0 f   LIBCMTD:ioinit.obj
 0001:0014f080       __ioterm                   10150080 f   LIBCMTD:ioinit.obj
 0001:0014f120       _vfprintf_helper           10150120 f   LIBCMTD:vfprintf.obj
 0001:0014f3c0       __vfprintf_l               101503c0 f   LIBCMTD:vfprintf.obj
 0001:0014f3f0       __vfprintf_s_l             101503f0 f   LIBCMTD:vfprintf.obj
 0001:0014f420       __vfprintf_p_l             10150420 f   LIBCMTD:vfprintf.obj
 0001:0014f450       _vfprintf                  10150450 f   LIBCMTD:vfprintf.obj
 0001:0014f480       _vfprintf_s                10150480 f   LIBCMTD:vfprintf.obj
 0001:0014f4b0       __vfprintf_p               101504b0 f   LIBCMTD:vfprintf.obj
 0001:0014f4e0       __CIpow_pentium4           101504e0 f   LIBCMTD:_pow_pentium4_.obj
 0001:0014f4f9       __pow_pentium4             101504f9     LIBCMTD:_pow_pentium4_.obj
 0001:00150040       __powhlp                   10151040 f   LIBCMTD:_powhlp_.obj
 0001:001501f0       __d_inttype                101511f0 f   LIBCMTD:_powhlp_.obj
 0001:00150280       __commit                   10151280 f   LIBCMTD:commit.obj
 0001:001504a0       __mtinitlocks              101514a0 f   LIBCMTD:mlock.obj
 0001:00150530       __mtdeletelocks            10151530 f   LIBCMTD:mlock.obj
 0001:001505f0       __mtinitlocknum            101515f0 f   LIBCMTD:mlock.obj
 0001:00150740       __lock                     10151740 f   LIBCMTD:mlock.obj
 0001:00150780       __unlock                   10151780 f   LIBCMTD:mlock.obj
 0001:001507a0       __lockerr_exit             101517a0 f   LIBCMTD:mlock.obj
 0001:001507c0       __CItan_pentium4           101517c0 f   LIBCMTD:_tan_pentium4_.obj
 0001:001507d8       __tan_pentium4             101517d8     LIBCMTD:_tan_pentium4_.obj
 0001:00150a3c       __fFATN2                   10151a3c     LIBCMTD:_87triga_.obj
 0001:00150a8c       __rtpiby2                  10151a8c     LIBCMTD:_87triga_.obj
 0001:00150ad0       _ldexp                     10151ad0 f   LIBCMTD:_ldexp_.obj
 0001:00150d90       __crt_waiting_on_module_handle 10151d90 f   LIBCMTD:crt0dat.obj
 0001:00150df0       __cinit                    10151df0 f   LIBCMTD:crt0dat.obj
 0001:00150e90       _exit                      10151e90 f   LIBCMTD:crt0dat.obj
 0001:00150eb0       __exit                     10151eb0 f   LIBCMTD:crt0dat.obj
 0001:00150ed0       __cexit                    10151ed0 f   LIBCMTD:crt0dat.obj
 0001:00150ef0       __c_exit                   10151ef0 f   LIBCMTD:crt0dat.obj
 0001:00150f10       __amsg_exit                10151f10 f   LIBCMTD:crt0dat.obj
 0001:00150f50       ___freeCrtMemory           10151f50 f   LIBCMTD:crt0dat.obj
 0001:001512a0       ___crtCorExitProcess       101522a0 f   LIBCMTD:crt0dat.obj
 0001:001512e0       ___crtExitProcess          101522e0 f   LIBCMTD:crt0dat.obj
 0001:00151300       __lockexit                 10152300 f   LIBCMTD:crt0dat.obj
 0001:00151320       __unlockexit               10152320 f   LIBCMTD:crt0dat.obj
 0001:00151340       __init_pointers            10152340 f   LIBCMTD:crt0dat.obj
 0001:00151400       __initterm_e               10152400 f   LIBCMTD:crt0dat.obj
 0001:00151440       __get_wpgmptr              10152440 f   LIBCMTD:crt0dat.obj
 0001:00151530       __get_pgmptr               10152530 f   LIBCMTD:crt0dat.obj
 0001:00151620       __initp_misc_winsig        10152620 f   LIBCMTD:winsig.obj
 0001:00151650       _signal                    10152650 f   LIBCMTD:winsig.obj
 0001:00151af0       _raise                     10152af0 f   LIBCMTD:winsig.obj
 0001:00151e60       ___get_sigabrt             10152e60 f   LIBCMTD:winsig.obj
 0001:00151e80       ___fpecode                 10152e80 f   LIBCMTD:winsig.obj
 0001:00151e90       ___pxcptinfoptrs           10152e90 f   LIBCMTD:winsig.obj
 0001:00151ea0       ___crtMessageBoxW          10152ea0 f   LIBCMTD:crtmboxw.obj
 0001:001520c0       __itow_s                   101530c0 f   LIBCMTD:xtows.obj
 0001:001524a0       __ltow_s                   101534a0 f   LIBCMTD:xtows.obj
 0001:001524e0       __ultow_s                  101534e0 f   LIBCMTD:xtows.obj
 0001:00152500       __i64tow_s                 10153500 f   LIBCMTD:xtows.obj
 0001:00152920       __ui64tow_s                10153920 f   LIBCMTD:xtows.obj
 0001:00152940       _wcsncat_s                 10153940 f   LIBCMTD:wcsncat_s.obj
 0001:00152df0       _wcsncpy_s                 10153df0 f   LIBCMTD:wcsncpy_s.obj
 0001:00153200       _wcscat_s                  10154200 f   LIBCMTD:wcscat_s.obj
 0001:001535f0       _wcscpy_s                  101545f0 f   LIBCMTD:wcscpy_s.obj
 0001:001538d0       _fwprintf                  101548d0 f   LIBCMTD:fwprintf.obj
 0001:00153a50       __fwprintf_l               10154a50 f   LIBCMTD:fwprintf.obj
 0001:00153a80       __fwprintf_s_l             10154a80 f   LIBCMTD:fwprintf.obj
 0001:00153ab0       _fwprintf_s                10154ab0 f   LIBCMTD:fwprintf.obj
 0001:00153ae0       __fwprintf_p_l             10154ae0 f   LIBCMTD:fwprintf.obj
 0001:00153b10       __fwprintf_p               10154b10 f   LIBCMTD:fwprintf.obj
 0001:00153b40       _setvbuf                   10154b40 f   LIBCMTD:setvbuf.obj
 0001:00153e10       _abort                     10154e10 f   LIBCMTD:abort.obj
 0001:00153f50       __set_abort_behavior       10154f50 f   LIBCMTD:abort.obj
 0001:00153f80       _wcslen                    10154f80 f   LIBCMTD:wcslen.obj
 0001:00153fb0       __set_error_mode           10154fb0 f   LIBCMTD:errmode.obj
 0001:00154070       ___set_app_type            10155070 f   LIBCMTD:errmode.obj
 0001:00154080       ___get_app_type            10155080 f   LIBCMTD:errmode.obj
 0001:00154090       __vswprintf_helper         10155090 f   LIBCMTD:vswprnc.obj
 0001:001542c0       __vswprintf_c              101552c0 f   LIBCMTD:vswprnc.obj
 0001:00154310       __vswprintf_c_l            10155310 f   LIBCMTD:vswprnc.obj
 0001:00154360       __vswprintf_s_l            10155360 f   LIBCMTD:vswprnc.obj
 0001:001545d0       _vswprintf_s               101555d0 f   LIBCMTD:vswprnc.obj
 0001:00154600       __vsnwprintf_s_l           10155600 f   LIBCMTD:vswprnc.obj
 0001:001549b0       __vsnwprintf_s             101559b0 f   LIBCMTD:vswprnc.obj
 0001:001549e0       __vswprintf_p              101559e0 f   LIBCMTD:vswprnc.obj
 0001:00154a30       __vswprintf_p_l            10155a30 f   LIBCMTD:vswprnc.obj
 0001:00154a80       __tolower                  10155a80 f   LIBCMTD:tolower.obj
 0001:00154a90       __tolower_l                10155a90 f   LIBCMTD:tolower.obj
 0001:00154c70       _tolower                   10155c70 f   LIBCMTD:tolower.obj
 0001:00154cc0       __setenvp                  10155cc0 f   LIBCMTD:stdenvp.obj
 0001:00154e60       __setargv                  10155e60 f   LIBCMTD:stdargv.obj
 0001:00154f80       __set_pgmptr               10155f80 f i LIBCMTD:stdargv.obj
 0001:001552f0       ___crtGetEnvironmentStringsA 101562f0 f   LIBCMTD:a_env.obj
 0001:00155510       __RTC_Initialize           10156510 f   LIBCMTD:_initsect_.obj
 0001:00155540       __RTC_Terminate            10156540 f   LIBCMTD:_initsect_.obj
 0001:00155570       ___heap_select             10156570 f   LIBCMTD:heapinit.obj
 0001:00155590       __heap_init                10156590 f   LIBCMTD:heapinit.obj
 0001:00155610       __heap_term                10156610 f   LIBCMTD:heapinit.obj
 0001:001556b0       __get_heap_handle          101566b0 f   LIBCMTD:heapinit.obj
 0001:001556f0       ___security_init_cookie    101566f0 f   LIBCMTD:gs_support.obj
 0001:001557d0       __initp_misc_winxfltr      101567d0 f   LIBCMTD:winxfltr.obj
 0001:001557e0       ___CppXcptFilter           101567e0 f   LIBCMTD:winxfltr.obj
 0001:00155810       __XcptFilter               10156810 f   LIBCMTD:winxfltr.obj
 0001:00155a40       _DllMain@12                10156a40 f   LIBCMTD:dllmain.obj
 0001:00155a50       __controlfp_s              10156a50 f   LIBCMTD:_contrlfp_.obj
 0001:00155b30       __isalpha_l                10156b30 f i LIBCMTD:_ctype.obj
 0001:00155bc0       _isalpha                   10156bc0 f i LIBCMTD:_ctype.obj
 0001:00155c00       __isupper_l                10156c00 f i LIBCMTD:_ctype.obj
 0001:00155c80       _isupper                   10156c80 f i LIBCMTD:_ctype.obj
 0001:00155cb0       __islower_l                10156cb0 f i LIBCMTD:_ctype.obj
 0001:00155d30       _islower                   10156d30 f i LIBCMTD:_ctype.obj
 0001:00155d60       __isdigit_l                10156d60 f i LIBCMTD:_ctype.obj
 0001:00155de0       _isdigit                   10156de0 f i LIBCMTD:_ctype.obj
 0001:00155e10       __isxdigit_l               10156e10 f i LIBCMTD:_ctype.obj
 0001:00155ea0       _isxdigit                  10156ea0 f i LIBCMTD:_ctype.obj
 0001:00155ee0       __isspace_l                10156ee0 f i LIBCMTD:_ctype.obj
 0001:00155f60       _isspace                   10156f60 f i LIBCMTD:_ctype.obj
 0001:00155f90       __ispunct_l                10156f90 f i LIBCMTD:_ctype.obj
 0001:00156010       _ispunct                   10157010 f i LIBCMTD:_ctype.obj
 0001:00156040       __isalnum_l                10157040 f i LIBCMTD:_ctype.obj
 0001:001560d0       _isalnum                   101570d0 f i LIBCMTD:_ctype.obj
 0001:00156110       __isprint_l                10157110 f i LIBCMTD:_ctype.obj
 0001:001561a0       _isprint                   101571a0 f i LIBCMTD:_ctype.obj
 0001:001561e0       __isgraph_l                101571e0 f i LIBCMTD:_ctype.obj
 0001:00156270       _isgraph                   10157270 f i LIBCMTD:_ctype.obj
 0001:001562b0       __iscntrl_l                101572b0 f i LIBCMTD:_ctype.obj
 0001:00156330       _iscntrl                   10157330 f i LIBCMTD:_ctype.obj
 0001:00156360       ___isascii                 10157360 f i LIBCMTD:_ctype.obj
 0001:00156380       ___toascii                 10157380 f i LIBCMTD:_ctype.obj
 0001:00156390       __iscsymf_l                10157390 f i LIBCMTD:_ctype.obj
 0001:001563d0       ___iscsymf                 101573d0 f i LIBCMTD:_ctype.obj
 0001:00156410       __iscsym_l                 10157410 f i LIBCMTD:_ctype.obj
 0001:00156450       ___iscsym                  10157450 f i LIBCMTD:_ctype.obj
 0001:00156490       __atodbl_l                 10157490 f   LIBCMTD:atodbl.obj
 0001:001565a0       __atodbl                   101575a0 f   LIBCMTD:atodbl.obj
 0001:001565c0       __atoldbl_l                101575c0 f   LIBCMTD:atodbl.obj
 0001:001566d0       __atoldbl                  101576d0 f   LIBCMTD:atodbl.obj
 0001:001566f0       __atoflt_l                 101576f0 f   LIBCMTD:atodbl.obj
 0001:00156800       __atoflt                   10157800 f   LIBCMTD:atodbl.obj
 0001:00156820       __fptostr                  10157820 f   LIBCMTD:_fptostr.obj
 0001:00156ad0       __fltout2                  10157ad0 f   LIBCMTD:_cfout_.obj
 0001:00156b80       ___dtold                   10157b80 f   LIBCMTD:_cfout_.obj
 0001:00156ce0       _memmove                   10157ce0 f   LIBCMTD:memmove.obj
 0001:00157050       __set_output_format        10158050 f   LIBCMTD:outputformat.obj
 0001:001570d0       __get_output_format        101580d0 f   LIBCMTD:outputformat.obj
 0001:001570e0       _strcpy_s                  101580e0 f   LIBCMTD:strcpy_s.obj
 0001:001573c0       __allshl                   101583c0 f   LIBCMTD:llshl.obj
 0001:001573e0       __aullshr                  101583e0 f   LIBCMTD:ullshr.obj
 0001:00157400       _strrchr                   10158400 f   LIBCMTD:strrchr.obj
 0001:00157430       __fptrap                   10158430 f   LIBCMTD:crt0fp.obj
 0001:00157450       __CrtDefaultAllocHook      10158450 f   LIBCMTD:dbghook.obj
 0001:00157460       __crt_debugger_hook        10158460 f   LIBCMTD:dbghook.obj
 0001:00157480       __matherr                  10158480 f   LIBCMTD:_matherr_.obj
 0001:00157490       __frnd                     10158490 f   LIBCMTD:_frnd_.obj
 0001:001574b0       _fdiv_main_routine         101584b0 f   LIBCMTD:_adj_fdiv_.obj
 0001:001575c7       __adj_fdiv_r               101585c7 f   LIBCMTD:_adj_fdiv_.obj
 0001:00157a66       __fdivp_sti_st             10158a66 f   LIBCMTD:_adj_fdiv_.obj
 0001:00157a79       __fdivrp_sti_st            10158a79 f   LIBCMTD:_adj_fdiv_.obj
 0001:00157a8c       __adj_fdiv_m32             10158a8c f   LIBCMTD:_adj_fdiv_.obj
 0001:00157ad8       __adj_fdiv_m64             10158ad8 f   LIBCMTD:_adj_fdiv_.obj
 0001:00157b24       __adj_fdiv_m16i            10158b24 f   LIBCMTD:_adj_fdiv_.obj
 0001:00157b58       __adj_fdiv_m32i            10158b58 f   LIBCMTD:_adj_fdiv_.obj
 0001:00157b8c       __adj_fdivr_m32            10158b8c f   LIBCMTD:_adj_fdiv_.obj
 0001:00157bd8       __adj_fdivr_m64            10158bd8 f   LIBCMTD:_adj_fdiv_.obj
 0001:00157c24       __adj_fdivr_m16i           10158c24 f   LIBCMTD:_adj_fdiv_.obj
 0001:00157c58       __adj_fdivr_m32i           10158c58 f   LIBCMTD:_adj_fdiv_.obj
 0001:00157c8c       __safe_fdiv                10158c8c f   LIBCMTD:_adj_fdiv_.obj
 0001:00157ca1       __safe_fdivr               10158ca1 f   LIBCMTD:_adj_fdiv_.obj
 0001:00157cb6       __fprem_common             10158cb6 f   LIBCMTD:_adj_fdiv_.obj
 0001:00157ebc       __adj_fprem                10158ebc f   LIBCMTD:_adj_fdiv_.obj
 0001:00157f6e       __fprem1_common            10158f6e f   LIBCMTD:_adj_fdiv_.obj
 0001:00158174       __adj_fprem1               10159174 f   LIBCMTD:_adj_fdiv_.obj
 0001:00158229       __safe_fprem               10159229 f   LIBCMTD:_adj_fdiv_.obj
 0001:0015822f       __safe_fprem1              1015922f f   LIBCMTD:_adj_fdiv_.obj
 0001:00158235       __adj_fpatan               10159235 f   LIBCMTD:_adj_fdiv_.obj
 0001:00158238       __adj_fptan                10159238 f   LIBCMTD:_adj_fdiv_.obj
 0001:00158240       __87except                 10159240 f   LIBCMTD:_87except_.obj
 0001:001583f0       __initp_heap_handler       101593f0 f   LIBCMTD:handler.obj
 0001:00158400       ?_set_new_handler@@YAP6AHI@ZP6AHI@Z@Z 10159400 f   LIBCMTD:handler.obj
 0001:00158450       ?_set_new_handler@@YAP6AHI@ZH@Z 10159450 f   LIBCMTD:handler.obj
 0001:00158490       ?_query_new_handler@@YAP6AHI@ZXZ 10159490 f   LIBCMTD:handler.obj
 0001:001584b0       __callnewh                 101594b0 f   LIBCMTD:handler.obj
 0001:001584f0       _V6_HeapAlloc              101594f0 f   LIBCMTD:malloc.obj
 0001:00158590       __malloc_base              10159590 f   LIBCMTD:malloc.obj
 0001:00158620       __heap_alloc_base          10159620 f i LIBCMTD:malloc.obj
 0001:001586e0       __CrtSetReportHook2        101596e0 f   LIBCMTD:dbgrpt.obj
 0001:00158a00       __CrtDbgReport             10159a00 f   LIBCMTD:dbgrpt.obj
 0001:00158a40       __CrtDbgReportV            10159a40 f i LIBCMTD:dbgrpt.obj
 0001:00158a70       ___crtMessageWindowA       10159a70 f   LIBCMTD:dbgrpt.obj
 0001:00158e70       __expand_base              10159e70 f   LIBCMTD:expand.obj
 0001:00159140       __realloc_base             1015a140 f   LIBCMTD:realloc.obj
 0001:001594e0       __free_base                1015a4e0 f   LIBCMTD:free.obj
 0001:00159610       __heapchk                  1015a610 f   LIBCMTD:heapchk.obj
 0001:001596e0       __heapset                  1015a6e0 f   LIBCMTD:heapchk.obj
 0001:001596f0       __get_sbh_threshold        1015a6f0 f   LIBCMTD:sbheap.obj
 0001:00159740       __set_sbh_threshold        1015a740 f   LIBCMTD:sbheap.obj
 0001:001598d0       __set_amblksiz             1015a8d0 f   LIBCMTD:sbheap.obj
 0001:001599e0       __get_amblksiz             1015a9e0 f   LIBCMTD:sbheap.obj
 0001:00159ad0       ___sbh_heap_init           1015aad0 f   LIBCMTD:sbheap.obj
 0001:00159b40       ___sbh_find_block          1015ab40 f   LIBCMTD:sbheap.obj
 0001:00159ba0       ___sbh_verify_block        1015aba0 f   LIBCMTD:sbheap.obj
 0001:00159c00       ___sbh_free_block          1015ac00 f   LIBCMTD:sbheap.obj
 0001:0015a1c0       ___sbh_alloc_block         1015b1c0 f   LIBCMTD:sbheap.obj
 0001:0015a6e0       ___sbh_alloc_new_region    1015b6e0 f   LIBCMTD:sbheap.obj
 0001:0015a7f0       ___sbh_alloc_new_group     1015b7f0 f   LIBCMTD:sbheap.obj
 0001:0015a9e0       ___sbh_resize_block        1015b9e0 f   LIBCMTD:sbheap.obj
 0001:0015afb0       ___sbh_heapmin             1015bfb0 f   LIBCMTD:sbheap.obj
 0001:0015b0e0       ___sbh_heap_check          1015c0e0 f   LIBCMTD:sbheap.obj
 0001:0015b5d0       ?_JumpToContinuation@@YGXPAXPAUEHRegistrationNode@@@Z 1015c5d0 f   LIBCMTD:_trnsctrl_.obj
 0001:0015b610       ?_CallMemberFunction0@@YGXPAX0@Z 1015c610 f   LIBCMTD:_trnsctrl_.obj
 0001:0015b620       ?_CallMemberFunction1@@YGXPAX00@Z 1015c620 f   LIBCMTD:_trnsctrl_.obj
 0001:0015b630       ?_CallMemberFunction2@@YGXPAX00H@Z 1015c630 f   LIBCMTD:_trnsctrl_.obj
 0001:0015b640       ?_UnwindNestedFrames@@YGXPAUEHRegistrationNode@@PAUEHExceptionRecord@@@Z 1015c640 f   LIBCMTD:_trnsctrl_.obj
 0001:0015b6a0       ___CxxFrameHandler         1015c6a0 f   LIBCMTD:_trnsctrl_.obj
 0001:0015b6e0       ___CxxFrameHandler3        1015c6e0 f   LIBCMTD:_trnsctrl_.obj
 0001:0015b720       ___CxxFrameHandler2        1015c720 f   LIBCMTD:_trnsctrl_.obj
 0001:0015b760       ___CxxLongjmpUnwind@4      1015c760 f   LIBCMTD:_trnsctrl_.obj
 0001:0015b790       ?_CallCatchBlock2@@YAPAXPAUEHRegistrationNode@@PBU_s_FuncInfo@@PAXHK@Z 1015c790 f   LIBCMTD:_trnsctrl_.obj
 0001:0015b850       ?_CallSETranslator@@YAHPAUEHExceptionRecord@@PAUEHRegistrationNode@@PAX2PBU_s_FuncInfo@@H1@Z 1015c850 f   LIBCMTD:_trnsctrl_.obj
 0001:0015b9f0       ?_GetRangeOfTrysToCheck@@YAPBU_s_TryBlockMapEntry@@PBU_s_FuncInfo@@HHPAI1@Z 1015c9f0 f   LIBCMTD:_trnsctrl_.obj
 0001:0015ba70       __CreateFrameInfo          1015ca70 f   LIBCMTD:_trnsctrl_.obj
 0001:0015baa0       __IsExceptionObjectToBeDestroyed 1015caa0 f   LIBCMTD:_trnsctrl_.obj
 0001:0015bad0       __FindAndUnlinkFrame       1015cad0 f   LIBCMTD:_trnsctrl_.obj
 0001:0015bb30       __allmul                   1015cb30 f   LIBCMTD:llmul.obj
 0001:0015bb70       __aullrem                  1015cb70 f   LIBCMTD:ullrem.obj
 0001:0015bbf0       __CrtDbgBreak              1015cbf0 f   LIBCMTD:dbgrptt.obj
 0001:0015bc00       __CrtSetReportMode         1015cc00 f   LIBCMTD:dbgrptt.obj
 0001:0015bd40       __CrtSetReportFile         1015cd40 f   LIBCMTD:dbgrptt.obj
 0001:0015be40       __CrtSetReportHook         1015ce40 f   LIBCMTD:dbgrptt.obj
 0001:0015be60       __CrtGetReportHook         1015ce60 f   LIBCMTD:dbgrptt.obj
 0001:0015be70       __VCrtDbgReportA           1015ce70 f   LIBCMTD:dbgrptt.obj
 0001:0015c6a0       __VCrtDbgReportW           1015d6a0 f   LIBCMTD:dbgrptt.obj
 0001:0015cfd0       __swprintf                 1015dfd0 f   LIBCMTD:swprintf.obj
 0001:0015d1a0       ___swprintf_l              1015e1a0 f   LIBCMTD:swprintf.obj
 0001:0015d1d0       _swprintf_s                1015e1d0 f   LIBCMTD:swprintf.obj
 0001:0015d200       __snwprintf_s              1015e200 f   LIBCMTD:swprintf.obj
 0001:0015d230       __swprintf_p               1015e230 f   LIBCMTD:swprintf.obj
 0001:0015d260       __swprintf_s_l             1015e260 f   LIBCMTD:swprintf.obj
 0001:0015d290       __snwprintf_s_l            1015e290 f   LIBCMTD:swprintf.obj
 0001:0015d2c0       __swprintf_p_l             1015e2c0 f   LIBCMTD:swprintf.obj
 0001:0015d2f0       __scwprintf                1015e2f0 f   LIBCMTD:swprintf.obj
 0001:0015d310       __scwprintf_p              1015e310 f   LIBCMTD:swprintf.obj
 0001:0015d330       __scwprintf_l              1015e330 f   LIBCMTD:swprintf.obj
 0001:0015d360       __scwprintf_p_l            1015e360 f   LIBCMTD:swprintf.obj
 0001:0015d390       __lseeki64                 1015e390 f   LIBCMTD:lseeki64.obj
 0001:0015d5e0       __lseeki64_nolock          1015e5e0 f   LIBCMTD:lseeki64.obj
 0001:0015d6d0       __getbuf                   1015e6d0 f   LIBCMTD:_getbuf.obj
 0001:0015d790       __isatty                   1015e790 f   LIBCMTD:isatty.obj
 0001:0015d870       _printf                    1015e870 f   LIBCMTD:printf.obj
 0001:0015d9b0       __printf_l                 1015e9b0 f   LIBCMTD:printf.obj
 0001:0015d9e0       __printf_s_l               1015e9e0 f   LIBCMTD:printf.obj
 0001:0015da10       _printf_s                  1015ea10 f   LIBCMTD:printf.obj
 0001:0015da40       __printf_p_l               1015ea40 f   LIBCMTD:printf.obj
 0001:0015da70       __printf_p                 1015ea70 f   LIBCMTD:printf.obj
 0001:0015daa0       __set_printf_count_output  1015eaa0 f   LIBCMTD:printf.obj
 0001:0015daf0       __get_printf_count_output  1015eaf0 f   LIBCMTD:printf.obj
 0001:0015db10       __wctomb_s_l               1015eb10 f   LIBCMTD:wctomb.obj
 0001:0015de10       _wctomb_s                  1015ee10 f   LIBCMTD:wctomb.obj
 0001:0015de40       __wctomb_l                 1015ee40 f   LIBCMTD:wctomb.obj
 0001:0015dec0       _wctomb                    1015eec0 f   LIBCMTD:wctomb.obj
 0001:0015df10       __isleadbyte_l             1015ef10 f i LIBCMTD:_wctype.obj
 0001:0015df60       _isleadbyte                1015ef60 f i LIBCMTD:_wctype.obj
 0001:0015df80       __iswalpha_l               1015ef80 f i LIBCMTD:_wctype.obj
 0001:0015dfa0       _iswalpha                  1015efa0 f i LIBCMTD:_wctype.obj
 0001:0015dfc0       __iswupper_l               1015efc0 f i LIBCMTD:_wctype.obj
 0001:0015dfe0       _iswupper                  1015efe0 f i LIBCMTD:_wctype.obj
 0001:0015e000       __iswlower_l               1015f000 f i LIBCMTD:_wctype.obj
 0001:0015e020       _iswlower                  1015f020 f i LIBCMTD:_wctype.obj
 0001:0015e040       __iswdigit_l               1015f040 f i LIBCMTD:_wctype.obj
 0001:0015e060       _iswdigit                  1015f060 f i LIBCMTD:_wctype.obj
 0001:0015e080       __iswxdigit_l              1015f080 f i LIBCMTD:_wctype.obj
 0001:0015e0a0       _iswxdigit                 1015f0a0 f i LIBCMTD:_wctype.obj
 0001:0015e0c0       __iswspace_l               1015f0c0 f i LIBCMTD:_wctype.obj
 0001:0015e0e0       _iswspace                  1015f0e0 f i LIBCMTD:_wctype.obj
 0001:0015e100       __iswpunct_l               1015f100 f i LIBCMTD:_wctype.obj
 0001:0015e120       _iswpunct                  1015f120 f i LIBCMTD:_wctype.obj
 0001:0015e140       __iswalnum_l               1015f140 f i LIBCMTD:_wctype.obj
 0001:0015e160       _iswalnum                  1015f160 f i LIBCMTD:_wctype.obj
 0001:0015e180       __iswprint_l               1015f180 f i LIBCMTD:_wctype.obj
 0001:0015e1a0       _iswprint                  1015f1a0 f i LIBCMTD:_wctype.obj
 0001:0015e1c0       __iswgraph_l               1015f1c0 f i LIBCMTD:_wctype.obj
 0001:0015e1e0       _iswgraph                  1015f1e0 f i LIBCMTD:_wctype.obj
 0001:0015e200       __iswcntrl_l               1015f200 f i LIBCMTD:_wctype.obj
 0001:0015e220       _iswcntrl                  1015f220 f i LIBCMTD:_wctype.obj
 0001:0015e240       _iswascii                  1015f240 f i LIBCMTD:_wctype.obj
 0001:0015e260       __iswcsym_l                1015f260 f i LIBCMTD:_wctype.obj
 0001:0015e2a0       ___iswcsym                 1015f2a0 f i LIBCMTD:_wctype.obj
 0001:0015e2e0       __iswcsymf_l               1015f2e0 f i LIBCMTD:_wctype.obj
 0001:0015e320       ___iswcsymf                1015f320 f i LIBCMTD:_wctype.obj
 0001:0015e360       __output_s_l               1015f360 f   LIBCMTD:outputs.obj
 0001:0015f8f0       __ld12tod                  101608f0 f   LIBCMTD:_intrncvt_.obj
 0001:0015f910       __ld12cvt                  10160910 f i LIBCMTD:_intrncvt_.obj
 0001:0015fb60       __RoundMan                 10160b60 f i LIBCMTD:_intrncvt_.obj
 0001:0015fc40       __ZeroTail                 10160c40 f i LIBCMTD:_intrncvt_.obj
 0001:0015fcd0       __IncMan                   10160cd0 f i LIBCMTD:_intrncvt_.obj
 0001:0015fd80       __CopyMan                  10160d80 f i LIBCMTD:_intrncvt_.obj
 0001:0015fdd0       __FillZeroMan              10160dd0 f i LIBCMTD:_intrncvt_.obj
 0001:0015fe10       __IsZeroMan                10160e10 f i LIBCMTD:_intrncvt_.obj
 0001:0015fe50       __ShrMan                   10160e50 f i LIBCMTD:_intrncvt_.obj
 0001:0015ff40       __ld12tof                  10160f40 f   LIBCMTD:_intrncvt_.obj
 0001:0015ff60       __ld12told                 10160f60 f   LIBCMTD:_intrncvt_.obj
 0001:00160010       ___crtGetStringTypeA       10161010 f   LIBCMTD:a_str.obj
 0001:001602a0       __MarkAllocaS              101612a0 f i LIBCMTD:a_str.obj
 0001:001602d0       __freea                    101612d0 f i LIBCMTD:a_str.obj
 0001:00160340       ___crtLCMapStringA         10161340 f   LIBCMTD:a_map.obj
 0001:001608f0       ___pwctype_func            101618f0 f   LIBCMTD:ctype.obj
 0001:00160900       ___pctype_func             10161900 f   LIBCMTD:ctype.obj
 0001:00160950       ___init_time               10161950 f   LIBCMTD:inittime.obj
 0001:00161070       ___free_lc_time            10162070 f   LIBCMTD:inittime.obj
 0001:00161380       ___init_numeric            10162380 f   LIBCMTD:initnum.obj
 0001:001616e0       ___free_lconv_num          101626e0 f   LIBCMTD:initnum.obj
 0001:00161750       ___init_monetary           10162750 f   LIBCMTD:initmon.obj
 0001:00161c50       ___free_lconv_mon          10162c50 f   LIBCMTD:initmon.obj
 0001:00161d40       ___init_ctype              10162d40 f   LIBCMTD:initctyp.obj
 0001:001622f0       ____mb_cur_max_func        101632f0 f   LIBCMTD:initctyp.obj
 0001:00162340       ____mb_cur_max_l_func      10163340 f   LIBCMTD:initctyp.obj
 0001:00162370       ____lc_codepage_func       10163370 f   LIBCMTD:initctyp.obj
 0001:001623c0       ____lc_collate_cp_func     101633c0 f   LIBCMTD:initctyp.obj
 0001:00162410       ____lc_handle_func         10163410 f   LIBCMTD:initctyp.obj
 0001:00162460       ___init_collate            10163460 f   LIBCMTD:initcoll.obj
 0001:00162470       __Getdays_l                10163470 f   LIBCMTD:strftime.obj
 0001:00162630       __Getdays                  10163630 f   LIBCMTD:strftime.obj
 0001:00162650       __Getmonths_l              10163650 f   LIBCMTD:strftime.obj
 0001:00162810       __Getmonths                10163810 f   LIBCMTD:strftime.obj
 0001:00162830       __Gettnames_l              10163830 f   LIBCMTD:strftime.obj
 0001:00162da0       __Gettnames                10163da0 f   LIBCMTD:strftime.obj
 0001:00162dc0       __strftime_l               10163dc0 f   LIBCMTD:strftime.obj
 0001:00162df0       _strftime                  10163df0 f   LIBCMTD:strftime.obj
 0001:00162e20       __Strftime                 10163e20 f   LIBCMTD:strftime.obj
 0001:00162e50       __Strftime_l               10163e50 f   LIBCMTD:strftime.obj
 0001:00164c60       _localeconv                10165c60 f   LIBCMTD:lconv.obj
 0001:00164cb0       _strncpy_s                 10165cb0 f   LIBCMTD:strncpy_s.obj
 0001:001650a0       _strcspn                   101660a0 f   LIBCMTD:strcspn.obj
 0001:001650f0       _strpbrk                   101660f0 f   LIBCMTD:strpbrk.obj
 0001:00165130       _strcat_s                  10166130 f   LIBCMTD:strcat_s.obj
 0001:00165510       ___get_qualified_locale    10166510 f   LIBCMTD:getqloc.obj
 0001:001663b0       ___mtold12                 101673b0 f   LIBCMTD:_mantold_.obj
 0001:00166510       ___add_12                  10167510 f i LIBCMTD:_mantold_.obj
 0001:001665c0       _getenv                    101675c0 f   LIBCMTD:getenv.obj
 0001:00166710       __getenv_helper_nolock     10167710 f   LIBCMTD:getenv.obj
 0001:00166830       _getenv_s                  10167830 f   LIBCMTD:getenv.obj
 0001:00166a60       __dupenv_s                 10167a60 f   LIBCMTD:getenv.obj
 0001:00166a90       __dupenv_s_dbg             10167a90 f   LIBCMTD:getenv.obj
 0001:00166ce0       __fcloseall                10167ce0 f   LIBCMTD:closeall.obj
 0001:00166e10       __ValidateImageBase        10167e10 f   LIBCMTD:pesect.obj
 0001:00166e70       __FindPESection            10167e70 f   LIBCMTD:pesect.obj
 0001:00166ef0       __IsNonwritableInCurrentImage 10167ef0 f   LIBCMTD:pesect.obj
 0001:00167010       __alloc_osfhnd             10168010 f   LIBCMTD:osfinfo.obj
 0001:001672c0       __set_osfhnd               101682c0 f   LIBCMTD:osfinfo.obj
 0001:00167390       __free_osfhnd              10168390 f   LIBCMTD:osfinfo.obj
 0001:00167480       __get_osfhandle            10168480 f   LIBCMTD:osfinfo.obj
 0001:001675f0       __open_osfhandle           101685f0 f   LIBCMTD:osfinfo.obj
 0001:00167820       ___lock_fhandle            10168820 f   LIBCMTD:osfinfo.obj
 0001:00167920       __unlock_fhandle           10168920 f   LIBCMTD:osfinfo.obj
 0001:00167950       __putwch                   10168950 f   LIBCMTD:putwch.obj
 0001:001679e0       __putwch_nolock            101689e0 f   LIBCMTD:putwch.obj
 0001:00167ae0       __cputws                   10168ae0 f   LIBCMTD:putwch.obj
 0001:00167c30       __mbtowc_l                 10168c30 f   LIBCMTD:mbtowc.obj
 0001:00167e50       _mbtowc                    10168e50 f   LIBCMTD:mbtowc.obj
 0001:00167e70       __open                     10168e70 f   LIBCMTD:open.obj
 0001:00167ff0       __sopen_helper             10168ff0 f   LIBCMTD:open.obj
 0001:00169250       __sopen                    1016a250 f   LIBCMTD:open.obj
 0001:001692d0       __sopen_s                  1016a2d0 f   LIBCMTD:open.obj
 0001:00169300       __mbsnbicmp_l              1016a300 f   LIBCMTD:mbsnbicm.obj
 0001:001697a0       __mbsnbicmp                1016a7a0 f   LIBCMTD:mbsnbicm.obj
 0001:001697c0       __mbsnbcmp_l               1016a7c0 f   LIBCMTD:mbsnbcmp.obj
 0001:00169aa0       __mbsnbcmp                 1016aaa0 f   LIBCMTD:mbsnbcmp.obj
 0001:00169ac0       __initp_misc_initcrit      1016aac0 f   LIBCMTD:initcrit.obj
 0001:00169ad0       ___crtInitCritSecAndSpinCount 1016aad0 f   LIBCMTD:initcrit.obj
 0001:00169b78       __global_unwind2           1016ab78 f   LIBCMTD:exsup.obj
 0001:00169bdd       __local_unwind2            1016abdd f   LIBCMTD:exsup.obj
 0001:00169c61       __abnormal_termination     1016ac61 f   LIBCMTD:exsup.obj
 0001:00169c84       __NLG_Notify1              1016ac84 f   LIBCMTD:exsup.obj
 0001:00169c8d       __NLG_Notify               1016ac8d f   LIBCMTD:exsup.obj
 0001:00169ca4       __NLG_Dispatch2            1016aca4     LIBCMTD:exsup.obj
 0001:00169ca4       __NLG_Dispatch             1016aca4     LIBCMTD:exsup.obj
 0001:00169cac       __NLG_Call                 1016acac f   LIBCMTD:exsup.obj
 0001:00169cae       __NLG_Return2              1016acae     LIBCMTD:exsup.obj
 0001:00169cb0       _ungetc                    1016acb0 f   LIBCMTD:ungetc.obj
 0001:00169da0       __ungetc_nolock            1016ada0 f   LIBCMTD:ungetc.obj
 0001:00169fc0       __FF_MSGBANNER             1016afc0 f   LIBCMTD:crt0msg.obj
 0001:0016a010       __NMSG_WRITE               1016b010 f   LIBCMTD:crt0msg.obj
 0001:0016a2b0       __GET_RTERRMSG             1016b2b0 f   LIBCMTD:crt0msg.obj
 0001:0016a300       __onexit                   1016b300 f   LIBCMTD:onexit.obj
 0001:0016a4d0       _atexit                    1016b4d0 f   LIBCMTD:onexit.obj
 0001:0016a4f0       ___onexitinit              1016b4f0 f   LIBCMTD:onexit.obj
 0001:0016a550       __initp_eh_hooks           1016b550 f   LIBCMTD:hooks.obj
 0001:0016a570       ?terminate@@YAXXZ          1016b570 f   LIBCMTD:hooks.obj
 0001:0016a5f0       ?unexpected@@YAXXZ         1016b5f0 f   LIBCMTD:hooks.obj
 0001:0016a620       ?_inconsistency@@YAXXZ     1016b620 f   LIBCMTD:hooks.obj
 0001:0016a6b0       __initp_misc_rand_s        1016b6b0 f   LIBCMTD:rand_s.obj
 0001:0016a6c0       _rand_s                    1016b6c0 f   LIBCMTD:rand_s.obj
 0001:0016a8e0       ___getlocaleinfo           1016b8e0 f   LIBCMTD:inithelp.obj
 0001:0016ab80       __initp_misc_purevirt      1016bb80 f   LIBCMTD:inithelp.obj
 0001:0016ab90       __woutput_l                1016bb90 f   LIBCMTD:woutput.obj
 0001:0016bd60       _vfwprintf_helper          1016cd60 f   LIBCMTD:vfwprint.obj
 0001:0016bee0       __vfwprintf_l              1016cee0 f   LIBCMTD:vfwprint.obj
 0001:0016bf10       __vfwprintf_s_l            1016cf10 f   LIBCMTD:vfwprint.obj
 0001:0016bf40       __vfwprintf_p_l            1016cf40 f   LIBCMTD:vfwprint.obj
 0001:0016bf70       _vfwprintf                 1016cf70 f   LIBCMTD:vfwprint.obj
 0001:0016bfa0       _vfwprintf_s               1016cfa0 f   LIBCMTD:vfwprint.obj
 0001:0016bfd0       __vfwprintf_p              1016cfd0 f   LIBCMTD:vfwprint.obj
 0001:0016c000       __woutput_s_l              1016d000 f   LIBCMTD:woutputs.obj
 0001:0016d330       __validate_param_reuseW    1016e330 f   LIBCMTD:woutputp.obj
 0001:0016d5a0       __woutput_p_l              1016e5a0 f   LIBCMTD:woutputp.obj
 0001:00170d00       __ismbbkalnum_l            10171d00 f   LIBCMTD:ismbbyte.obj
 0001:00170d20       __ismbbkalnum              10171d20 f   LIBCMTD:ismbbyte.obj
 0001:00170d40       __ismbbkprint_l            10171d40 f   LIBCMTD:ismbbyte.obj
 0001:00170d60       __ismbbkprint              10171d60 f   LIBCMTD:ismbbyte.obj
 0001:00170d80       __ismbbkpunct_l            10171d80 f   LIBCMTD:ismbbyte.obj
 0001:00170da0       __ismbbkpunct              10171da0 f   LIBCMTD:ismbbyte.obj
 0001:00170dc0       __ismbbalnum_l             10171dc0 f   LIBCMTD:ismbbyte.obj
 0001:00170de0       __ismbbalnum               10171de0 f   LIBCMTD:ismbbyte.obj
 0001:00170e00       __ismbbalpha_l             10171e00 f   LIBCMTD:ismbbyte.obj
 0001:00170e20       __ismbbalpha               10171e20 f   LIBCMTD:ismbbyte.obj
 0001:00170e40       __ismbbgraph_l             10171e40 f   LIBCMTD:ismbbyte.obj
 0001:00170e60       __ismbbgraph               10171e60 f   LIBCMTD:ismbbyte.obj
 0001:00170e80       __ismbbprint_l             10171e80 f   LIBCMTD:ismbbyte.obj
 0001:00170ea0       __ismbbprint               10171ea0 f   LIBCMTD:ismbbyte.obj
 0001:00170ec0       __ismbbpunct_l             10171ec0 f   LIBCMTD:ismbbyte.obj
 0001:00170ee0       __ismbbpunct               10171ee0 f   LIBCMTD:ismbbyte.obj
 0001:00170f00       __ismbblead_l              10171f00 f   LIBCMTD:ismbbyte.obj
 0001:00170f20       __ismbblead                10171f20 f   LIBCMTD:ismbbyte.obj
 0001:00170f40       __ismbbtrail_l             10171f40 f   LIBCMTD:ismbbyte.obj
 0001:00170f60       __ismbbtrail               10171f60 f   LIBCMTD:ismbbyte.obj
 0001:00170f80       __ismbbkana_l              10171f80 f   LIBCMTD:ismbbyte.obj
 0001:00170ff0       __ismbbkana                10171ff0 f   LIBCMTD:ismbbyte.obj
 0001:001710e0       __statusfp2                101720e0 f   LIBCMTD:_ieee87_.obj
 0001:00171120       __statusfp                 10172120 f   LIBCMTD:_ieee87_.obj
 0001:00171170       __clearfp                  10172170 f   LIBCMTD:_ieee87_.obj
 0001:001711c0       ___control87_2             101721c0 f   LIBCMTD:_ieee87_.obj
 0001:00171270       __controlfp                10172270 f   LIBCMTD:_ieee87_.obj
 0001:00171290       __control87                10172290 f i LIBCMTD:_ieee87_.obj
 0001:00171340       __set_controlfp            10172340 f   LIBCMTD:_ieee87_.obj
 0001:001713d0       __fpreset                  101723d0 f   LIBCMTD:_ieee87_.obj
 0001:00171b90       _$I10_OUTPUT               10172b90 f   LIBCMTD:_x10fout_.obj
 0001:00172140       ___crtMessageBoxA          10173140 f   LIBCMTD:crtmbox.obj
 0001:00172360       ___InternalCxxFrameHandler 10173360 f   LIBCMTD:frame.obj
 0001:00172960       ??0bad_exception@std@@QAE@PBD@Z 10173960 f i LIBCMTD:frame.obj
 0001:00172990       ??1bad_exception@std@@UAE@XZ 10173990 f i LIBCMTD:frame.obj
 0001:001729b0       ??_Ebad_exception@std@@UAEPAXI@Z 101739b0 f i LIBCMTD:frame.obj
 0001:001729b0       ??_Gbad_exception@std@@UAEPAXI@Z 101739b0 f i LIBCMTD:frame.obj
 0001:001729e0       ??0bad_exception@std@@QAE@ABV01@@Z 101739e0 f i LIBCMTD:frame.obj
 0001:00172b90       ___TypeMatch               10173b90 f   LIBCMTD:frame.obj
 0001:00172c40       ___FrameUnwindFilter       10173c40 f   LIBCMTD:frame.obj
 0001:00172cc0       ___FrameUnwindToState      10173cc0 f   LIBCMTD:frame.obj
 0001:00173200       ___BuildCatchObjectHelper  10174200 f   LIBCMTD:frame.obj
 0001:00173470       ___BuildCatchObject        10174470 f   LIBCMTD:frame.obj
 0001:00173580       ___DestructExceptionObject 10174580 f   LIBCMTD:frame.obj
 0001:00173630       ___AdjustPointer           10174630 f   LIBCMTD:frame.obj
 0001:00173680       ?__uncaught_exception@@YA_NXZ 10174680 f   LIBCMTD:frame.obj
 0001:001736a0       ___CxxExceptionFilter      101746a0 f   LIBCMTD:frame.obj
 0001:00173890       ___CxxRegisterExceptionObject 10174890 f   LIBCMTD:frame.obj
 0001:001739c0       ___CxxDetectRethrow        101749c0 f   LIBCMTD:frame.obj
 0001:00173a50       ___CxxUnregisterExceptionObject 10174a50 f   LIBCMTD:frame.obj
 0001:00173bd0       ___CxxQueryExceptionSize   10174bd0 f   LIBCMTD:frame.obj
 0001:00173be0       ___CxxCallUnwindDtor       10174be0 f   LIBCMTD:frame.obj
 0001:00173c60       ___CxxCallUnwindDelDtor    10174c60 f   LIBCMTD:frame.obj
 0001:00173ce0       ___CxxCallUnwindStdDelDtor 10174ce0 f   LIBCMTD:frame.obj
 0001:00173d60       ___CxxCallUnwindVecDtor    10174d60 f   LIBCMTD:frame.obj
 0001:00173f90       ?_is_exception_typeof@@YAHABVtype_info@@PAU_EXCEPTION_POINTERS@@@Z 10174f90 f   LIBCMTD:frame.obj
 0001:00174070       __CallSettingFrame@12      10175070 f   LIBCMTD:lowhelpr.obj
 0001:00174097       __NLG_Return               10175097     LIBCMTD:lowhelpr.obj
 0001:001740c0       __mbstowcs_l_helper        101750c0 f   LIBCMTD:mbstowcs.obj
 0001:00174410       __mbstowcs_l               10175410 f   LIBCMTD:mbstowcs.obj
 0001:00174430       _mbstowcs                  10175430 f   LIBCMTD:mbstowcs.obj
 0001:00174480       __mbstowcs_s_l             10175480 f   LIBCMTD:mbstowcs.obj
 0001:00174800       _mbstowcs_s                10175800 f   LIBCMTD:mbstowcs.obj
 0001:00174830       __itoa_s                   10175830 f   LIBCMTD:xtoas.obj
 0001:00174c00       __ltoa_s                   10175c00 f   LIBCMTD:xtoas.obj
 0001:00174c40       __ultoa_s                  10175c40 f   LIBCMTD:xtoas.obj
 0001:00174c60       __i64toa_s                 10175c60 f   LIBCMTD:xtoas.obj
 0001:00175060       __ui64toa_s                10176060 f   LIBCMTD:xtoas.obj
 0001:00175080       __wcstombs_l_helper        10176080 f   LIBCMTD:wcstombs.obj
 0001:00175570       __wcstombs_l               10176570 f   LIBCMTD:wcstombs.obj
 0001:00175590       _wcstombs                  10176590 f   LIBCMTD:wcstombs.obj
 0001:001755b0       __wcstombs_s_l             101765b0 f   LIBCMTD:wcstombs.obj
 0001:001758e0       _wcstombs_s                101768e0 f   LIBCMTD:wcstombs.obj
 0001:00175910       __vswprintf_l              10176910 f   LIBCMTD:vswprint.obj
 0001:00175ae0       __vswprintf                10176ae0 f   LIBCMTD:vswprint.obj
 0001:00175b00       ___vswprintf_l             10176b00 f   LIBCMTD:vswprint.obj
 0001:00175b20       __vscwprintf_helper        10176b20 f   LIBCMTD:vswprint.obj
 0001:00175be0       __vscwprintf               10176be0 f   LIBCMTD:vswprint.obj
 0001:00175c00       __vscwprintf_l             10176c00 f   LIBCMTD:vswprint.obj
 0001:00175c20       __vscwprintf_p             10176c20 f   LIBCMTD:vswprint.obj
 0001:00175c40       __vscwprintf_p_l           10176c40 f   LIBCMTD:vswprint.obj
 0001:00175c60       _DebuggerKnownHandle       10176c60 f   LIBCMTD:_error_.obj
 0001:00175d20       ?_RTC_Failure@@YAXPAXH@Z   10176d20 f   LIBCMTD:_error_.obj
 0001:00176030       ?_RTC_StackFailure@@YAXPAXPBD@Z 10177030 f   LIBCMTD:_error_.obj
 0001:00176130       ?_RTC_AllocaFailure@@YAXPAXPAU_RTC_ALLOCA_NODE@@H@Z 10177130 f   LIBCMTD:_error_.obj
 0001:001762e0       __RTC_UninitUse            101772e0 f   LIBCMTD:_error_.obj
 0001:001763d0       _vprintf_helper            101773d0 f   LIBCMTD:vprintf.obj
 0001:001764f0       __vprintf_l                101774f0 f   LIBCMTD:vprintf.obj
 0001:00176510       __vprintf_s_l              10177510 f   LIBCMTD:vprintf.obj
 0001:00176530       __vprintf_p_l              10177530 f   LIBCMTD:vprintf.obj
 0001:00176550       _vprintf                   10177550 f   LIBCMTD:vprintf.obj
 0001:00176570       _vprintf_s                 10177570 f   LIBCMTD:vprintf.obj
 0001:00176590       __vprintf_p                10177590 f   LIBCMTD:vprintf.obj
 0001:001765b0       __iswctype_l               101775b0 f   LIBCMTD:iswctype.obj
 0001:00176660       _iswctype                  10177660 f   LIBCMTD:iswctype.obj
 0001:001766f0       _is_wctype                 101776f0 f   LIBCMTD:iswctype.obj
 0001:00176710       ___ansicp                  10177710 f   LIBCMTD:convrtcp.obj
 0001:00176770       ___convertcp               10177770 f   LIBCMTD:convrtcp.obj
 0001:001769c0       __strnicmp_l               101779c0 f   LIBCMTD:strnicmp.obj
 0001:00176c00       __strnicmp                 10177c00 f   LIBCMTD:strnicmp.obj
 0001:00176d90       _strnlen                   10177d90 f   LIBCMTD:strlen_s.obj
 0001:00176dd0       __mbsnbicoll_l             10177dd0 f   LIBCMTD:mbsnbico.obj
 0001:00177010       __mbsnbicoll               10178010 f   LIBCMTD:mbsnbico.obj
 0001:00177030       ___wtomb_environ           10178030 f   LIBCMTD:wtombenv.obj
 0001:00177120       ___initconin               10178120 f   LIBCMTD:initcon.obj
 0001:00177150       ___initconout              10178150 f   LIBCMTD:initcon.obj
 0001:00177180       ___termcon                 10178180 f   LIBCMTD:initcon.obj
 0001:001771d0       __chsize_s                 101781d0 f   LIBCMTD:chsize.obj
 0001:00177470       __chsize_nolock            10178470 f   LIBCMTD:chsize.obj
 0001:00177710       __chsize                   10178710 f   LIBCMTD:chsize.obj
 0001:00177740       __setmode                  10178740 f   LIBCMTD:setmode.obj
 0001:001779d0       __setmode_nolock           101789d0 f   LIBCMTD:setmode.obj
 0001:00177c40       __set_fmode                10178c40 f   LIBCMTD:setmode.obj
 0001:00177cf0       __get_fmode                10178cf0 f   LIBCMTD:setmode.obj
 0001:00177d70       ___crtGetLocaleInfoW       10178d70 f   LIBCMTD:w_loc.obj
 0001:00177de0       ___crtGetLocaleInfoA       10178de0 f   LIBCMTD:a_loc.obj
 0001:00177fc0       _fputwc                    10178fc0 f   LIBCMTD:fputwc.obj
 0001:001780c0       __fputwc_nolock            101790c0 f   LIBCMTD:fputwc.obj
 0001:001783b0       _putwc                     101793b0 f   LIBCMTD:fputwc.obj
 0001:001783d0       _wcstol                    101793d0 f   LIBCMTD:wcstol.obj
 0001:00178850       __wcstol_l                 10179850 f   LIBCMTD:wcstol.obj
 0001:00178880       _wcstoul                   10179880 f   LIBCMTD:wcstol.obj
 0001:001788d0       __wcstoul_l                101798d0 f   LIBCMTD:wcstol.obj
 0001:00178900       ?_ValidateRead@@YAHPBXI@Z  10179900 f   LIBCMTD:validate.obj
 0001:00178930       ?_ValidateWrite@@YAHPAXI@Z 10179930 f   LIBCMTD:validate.obj
 0001:00178960       ?_ValidateExecute@@YAHP6GHXZ@Z 10179960 f   LIBCMTD:validate.obj
 0001:00178990       __CxxThrowException@8      10179990 f   LIBCMTD:throw.obj
 0001:001789f0       ?name@type_info@@QBEPBDPAU__type_info_node@@@Z 101799f0 f   LIBCMTD:typinfo.obj
 0001:00178a10       ??1type_info@@UAE@XZ       10179a10 f   LIBCMTD:typinfo.obj
 0001:00178a40       ??_Gtype_info@@UAEPAXI@Z   10179a40 f i LIBCMTD:typinfo.obj
 0001:00178a40       ??_Etype_info@@UAEPAXI@Z   10179a40 f i LIBCMTD:typinfo.obj
 0001:00178a70       ?_name_internal_method@type_info@@QBEPBDPAU__type_info_node@@@Z 10179a70 f   LIBCMTD:typinfo.obj
 0001:00178a90       ?_type_info_dtor_internal_method@type_info@@QAEXXZ 10179a90 f   LIBCMTD:typinfo.obj
 0001:00178ab0       ??8type_info@@QBE_NABV0@@Z 10179ab0 f   LIBCMTD:typinfo.obj
 0001:00178ae0       ??9type_info@@QBE_NABV0@@Z 10179ae0 f   LIBCMTD:typinfo.obj
 0001:00178b10       ?before@type_info@@QBEHABV1@@Z 10179b10 f   LIBCMTD:typinfo.obj
 0001:00178b40       ?raw_name@type_info@@QBEPBDXZ 10179b40 f   LIBCMTD:typinfo.obj
 0001:00178b60       ??0type_info@@AAE@ABV0@@Z  10179b60 f   LIBCMTD:typinfo.obj
 0001:00178b80       ??4type_info@@AAEAAV0@ABV0@@Z 10179b80 f   LIBCMTD:typinfo.obj
 0001:00178ba0       ??0exception@std@@QAE@XZ   10179ba0 f   LIBCMTD:stdexcpt.obj
 0001:00178bd0       ??_Eexception@std@@UAEPAXI@Z 10179bd0 f i LIBCMTD:stdexcpt.obj
 0001:00178bd0       ??_Gexception@std@@UAEPAXI@Z 10179bd0 f i LIBCMTD:stdexcpt.obj
 0001:00178c00       ??0exception@std@@QAE@ABQBD@Z 10179c00 f   LIBCMTD:stdexcpt.obj
 0001:00178c90       ??0exception@std@@QAE@ABQBDH@Z 10179c90 f   LIBCMTD:stdexcpt.obj
 0001:00178cc0       ??0exception@std@@QAE@ABV01@@Z 10179cc0 f   LIBCMTD:stdexcpt.obj
 0001:00178d60       ??4exception@std@@QAEAAV01@ABV01@@Z 10179d60 f   LIBCMTD:stdexcpt.obj
 0001:00178e10       ??1exception@std@@UAE@XZ   10179e10 f   LIBCMTD:stdexcpt.obj
 0001:00178e40       ?what@exception@std@@UBEPBDXZ 10179e40 f   LIBCMTD:stdexcpt.obj
 0001:00178e70       ??0bad_cast@std@@QAE@PBD@Z 10179e70 f   LIBCMTD:stdexcpt.obj
 0001:00178ea0       ??_Ebad_cast@std@@UAEPAXI@Z 10179ea0 f i LIBCMTD:stdexcpt.obj
 0001:00178ea0       ??_Gbad_cast@std@@UAEPAXI@Z 10179ea0 f i LIBCMTD:stdexcpt.obj
 0001:00178ed0       ??0bad_cast@std@@QAE@ABV01@@Z 10179ed0 f   LIBCMTD:stdexcpt.obj
 0001:00178f00       ??1bad_cast@std@@UAE@XZ    10179f00 f   LIBCMTD:stdexcpt.obj
 0001:00178f20       ??0bad_typeid@std@@QAE@PBD@Z 10179f20 f   LIBCMTD:stdexcpt.obj
 0001:00178f50       ??_Ebad_typeid@std@@UAEPAXI@Z 10179f50 f i LIBCMTD:stdexcpt.obj
 0001:00178f50       ??_Gbad_typeid@std@@UAEPAXI@Z 10179f50 f i LIBCMTD:stdexcpt.obj
 0001:00178f80       ??0bad_typeid@std@@QAE@ABV01@@Z 10179f80 f   LIBCMTD:stdexcpt.obj
 0001:00178fb0       ??1bad_typeid@std@@UAE@XZ  10179fb0 f   LIBCMTD:stdexcpt.obj
 0001:00178fd0       ??0__non_rtti_object@std@@QAE@PBD@Z 10179fd0 f   LIBCMTD:stdexcpt.obj
 0001:00179000       ??_E__non_rtti_object@std@@UAEPAXI@Z 1017a000 f i LIBCMTD:stdexcpt.obj
 0001:00179000       ??_G__non_rtti_object@std@@UAEPAXI@Z 1017a000 f i LIBCMTD:stdexcpt.obj
 0001:00179030       ??0__non_rtti_object@std@@QAE@ABV01@@Z 1017a030 f   LIBCMTD:stdexcpt.obj
 0001:00179060       ??1__non_rtti_object@std@@UAE@XZ 1017a060 f   LIBCMTD:stdexcpt.obj
 0001:00179080       ??3@YAXPAX@Z               1017a080 f   LIBCMTD:dbgdel.obj
 0001:00179170       ?_RTC_GetSrcLine@@YAHPAEPA_WKPAH1K@Z 1017a170 f   LIBCMTD:_pdblkup_.obj
 0001:00179610       __RTC_NumErrors            1017a610 f   LIBCMTD:_userapi_.obj
 0001:00179620       __RTC_GetErrDesc           1017a620 f   LIBCMTD:_userapi_.obj
 0001:00179640       __RTC_SetErrorType         1017a640 f   LIBCMTD:_userapi_.obj
 0001:00179670       __RTC_SetErrorFunc         1017a670 f   LIBCMTD:_userapi_.obj
 0001:00179690       __RTC_SetErrorFuncW        1017a690 f   LIBCMTD:_userapi_.obj
 0001:001796b0       ?_RTC_GetErrorFunc@@YAP6AHHPBDH00ZZPBX@Z 1017a6b0 f   LIBCMTD:_userapi_.obj
 0001:001796c0       ?_RTC_GetErrorFuncW@@YAP6AHHPB_WH00ZZPBX@Z 1017a6c0 f   LIBCMTD:_userapi_.obj
 0001:001796d0       ___crtGetStringTypeW       1017a6d0 f   LIBCMTD:w_str.obj
 0001:00179750       ___ascii_strnicmp          1017a750 f   LIBCMTD:_strnicm.obj
 0001:001797c0       ___crtCompareStringA       1017a7c0 f   LIBCMTD:a_cmp.obj
 0001:00179d80       __strnicoll_l              1017ad80 f   LIBCMTD:strnicol.obj
 0001:00179fd0       __strnicoll                1017afd0 f   LIBCMTD:strnicol.obj
 0001:0017a010       ___crtsetenv               1017b010 f   LIBCMTD:setenv.obj
 0001:0017a690       __flswbuf                  1017b690 f   LIBCMTD:_flswbuf.obj
 0001:0017a970       __wchartodigit             1017b970 f   LIBCMTD:wchtodig.obj
 0001:0017aca0       ?_Type_info_dtor@type_info@@CAXPAV1@@Z 1017bca0 f   LIBCMTD:typname.obj
 0001:0017adb0       ?_Name_base@type_info@@CAPBDPBV1@PAU__type_info_node@@@Z 1017bdb0 f   LIBCMTD:typname.obj
 0001:0017af50       ?_Type_info_dtor_internal@type_info@@CAXPAV1@@Z 1017bf50 f   LIBCMTD:typname.obj
 0001:0017b060       ___unDNameHelper           1017c060 f   LIBCMTD:typname.obj
 0001:0017b0a0       ?_Name_base_internal@type_info@@CAPBDPBV1@PAU__type_info_node@@@Z 1017c0a0 f   LIBCMTD:typname.obj
 0001:0017b260       ___clean_type_info_names_internal 1017c260 f   LIBCMTD:typname.obj
 0001:0017b320       __mbschr_l                 1017c320 f   LIBCMTD:mbschr.obj
 0001:0017b4b0       __mbschr                   1017c4b0 f   LIBCMTD:mbschr.obj
 0001:0017b4d0       ___unDName                 1017c4d0 f   LIBCMTD:undname.obj
 0001:0017b5b0       ?Constructor@HeapManager@@QAEXP6APAXI@ZP6AXPAX@Z@Z 1017c5b0 f i LIBCMTD:undname.obj
 0001:0017b5f0       ?Destructor@HeapManager@@QAEXXZ 1017c5f0 f i LIBCMTD:undname.obj
 0001:0017b640       ___unDNameEx               1017c640 f   LIBCMTD:undname.obj
 0001:0017b720       ??0UnDecorator@@QAE@PADPBDHP6APADJ@ZK@Z 1017c720 f i LIBCMTD:undname.obj
 0001:0017b7c0       ??BUnDecorator@@QAEPADXZ   1017c7c0 f i LIBCMTD:undname.obj
 0001:0017b9f0       ?dbGetString@DName@@QBEPADXZ 1017c9f0 f   LIBCMTD:undname.obj
 0001:0017ba20       ?getDecoratedName@UnDecorator@@CA?AVDName@@XZ 1017ca20 f   LIBCMTD:undname.obj
 0001:0017bd30       ?getSymbolName@UnDecorator@@CA?AVDName@@XZ 1017cd30 f i LIBCMTD:undname.obj
 0001:0017bdb0       ?getZName@UnDecorator@@CA?AVDName@@_N0@Z 1017cdb0 f   LIBCMTD:undname.obj
 0001:0017c050       ?getOperatorName@UnDecorator@@CA?AVDName@@_NPA_N@Z 1017d050 f i LIBCMTD:undname.obj
 0001:0017c9c0       ?getStringEncoding@UnDecorator@@CA?AVDName@@PADH@Z 1017d9c0 f   LIBCMTD:undname.obj
 0001:0017cac0       ?getScope@UnDecorator@@CA?AVDName@@XZ 1017dac0 f   LIBCMTD:undname.obj
 0001:0017cea0       ?getSignedDimension@UnDecorator@@CA?AVDName@@XZ 1017dea0 f   LIBCMTD:undname.obj
 0001:0017cf20       ?getDimension@UnDecorator@@CA?AVDName@@_N@Z 1017df20 f   LIBCMTD:undname.obj
 0001:0017d1d0       ?getNumberOfDimensions@UnDecorator@@CAHXZ 1017e1d0 f   LIBCMTD:undname.obj
 0001:0017d2d0       ?getTemplateName@UnDecorator@@CA?AVDName@@_N@Z 1017e2d0 f   LIBCMTD:undname.obj
 0001:0017d490       ?getTemplateArgumentList@UnDecorator@@CA?AVDName@@XZ 1017e490 f   LIBCMTD:undname.obj
 0001:0017d710       ?getTemplateConstant@UnDecorator@@CA?AVDName@@XZ 1017e710 f   LIBCMTD:undname.obj
 0001:0017dba0       ?composeDeclaration@UnDecorator@@CA?AVDName@@ABV2@@Z 1017eba0 f i LIBCMTD:undname.obj
 0001:0017f1a0       ?getTypeEncoding@UnDecorator@@CAHXZ 101801a0 f i LIBCMTD:undname.obj
 0001:0017fbe0       ?getBasedType@UnDecorator@@CA?AVDName@@XZ 10180be0 f   LIBCMTD:undname.obj
 0001:0017fca0       ?getScopedName@UnDecorator@@CA?AVDName@@XZ 10180ca0 f   LIBCMTD:undname.obj
 0001:0017fdc0       ?getCallingConvention@UnDecorator@@CA?AVDName@@XZ 10180dc0 f   LIBCMTD:undname.obj
 0001:0017ff20       ?getReturnType@UnDecorator@@CA?AVDName@@PAV2@@Z 10180f20 f   LIBCMTD:undname.obj
 0001:0017ff70       ?getDataType@UnDecorator@@CA?AVDName@@PAV2@@Z 10180f70 f   LIBCMTD:undname.obj
 0001:00180080       ?getPrimaryDataType@UnDecorator@@CA?AVDName@@ABV2@@Z 10181080 f   LIBCMTD:undname.obj
 0001:00180330       ?getArgumentTypes@UnDecorator@@CA?AVDName@@XZ 10181330 f   LIBCMTD:undname.obj
 0001:00180490       ?getArgumentList@UnDecorator@@CA?AVDName@@XZ 10181490 f   LIBCMTD:undname.obj
 0001:001805e0       ?getThrowTypes@UnDecorator@@CA?AVDName@@XZ 101815e0 f   LIBCMTD:undname.obj
 0001:00180690       ?getBasicDataType@UnDecorator@@CA?AVDName@@ABV2@@Z 10181690 f   LIBCMTD:undname.obj
 0001:00180c40       ?getECSUDataType@UnDecorator@@CA?AVDName@@XZ 10181c40 f   LIBCMTD:undname.obj
 0001:00180e10       ?getECSUName@UnDecorator@@CA?AVDName@@XZ 10181e10 f i LIBCMTD:undname.obj
 0001:00180e30       ?getEnumType@UnDecorator@@CA?AVDName@@XZ 10181e30 f i LIBCMTD:undname.obj
 0001:00180f80       ?getFunctionIndirectType@UnDecorator@@CA?AVDName@@ABV2@@Z 10181f80 f   LIBCMTD:undname.obj
 0001:001813c0       ?getPtrRefType@UnDecorator@@CA?AVDName@@ABV2@0D@Z 101823c0 f   LIBCMTD:undname.obj
 0001:00181520       ?getExtendedDataIndirectType@UnDecorator@@CA?AVDName@@AADAA_NH@Z 10182520 f   LIBCMTD:undname.obj
 0001:00181730       ?getDataIndirectType@UnDecorator@@CA?AVDName@@ABV2@D0H@Z 10182730 f   LIBCMTD:undname.obj
 0001:00181e30       ?getPtrRefDataType@UnDecorator@@CA?AVDName@@ABV2@H@Z 10182e30 f i LIBCMTD:undname.obj
 0001:00181f70       ?getArrayType@UnDecorator@@CA?AVDName@@ABV2@@Z 10182f70 f i LIBCMTD:undname.obj
 0001:001821a0       ?getLexicalFrame@UnDecorator@@CA?AVDName@@XZ 101831a0 f i LIBCMTD:undname.obj
 0001:001821e0       ?getThisType@UnDecorator@@CA?AVDName@@XZ 101831e0 f i LIBCMTD:undname.obj
 0001:00182220       ?getPointerType@UnDecorator@@CA?AVDName@@ABV2@0@Z 10183220 f i LIBCMTD:undname.obj
 0001:00182240       ?getPointerTypeArray@UnDecorator@@CA?AVDName@@ABV2@0@Z 10183240 f i LIBCMTD:undname.obj
 0001:00182260       ?getReferenceType@UnDecorator@@CA?AVDName@@ABV2@0@Z 10183260 f i LIBCMTD:undname.obj
 0001:00182280       ?getDisplacement@UnDecorator@@CA?AVDName@@XZ 10183280 f i LIBCMTD:undname.obj
 0001:001822a0       ?getCallIndex@UnDecorator@@CA?AVDName@@XZ 101832a0 f i LIBCMTD:undname.obj
 0001:001822c0       ?getGuardNumber@UnDecorator@@CA?AVDName@@XZ 101832c0 f i LIBCMTD:undname.obj
 0001:001822e0       ?getVbTableType@UnDecorator@@CA?AVDName@@ABV2@@Z 101832e0 f i LIBCMTD:undname.obj
 0001:00182300       ?getVCallThunkType@UnDecorator@@CA?AVDName@@XZ 10183300 f i LIBCMTD:undname.obj
 0001:00182360       ?getVfTableType@UnDecorator@@CA?AVDName@@ABV2@@Z 10183360 f i LIBCMTD:undname.obj
 0001:00182520       ?getStorageConvention@UnDecorator@@CA?AVDName@@XZ 10183520 f i LIBCMTD:undname.obj
 0001:00182540       ?getDataIndirectType@UnDecorator@@CA?AVDName@@XZ 10183540 f i LIBCMTD:undname.obj
 0001:00182580       ?getVdispMapType@UnDecorator@@CA?AVDName@@ABV2@@Z 10183580 f i LIBCMTD:undname.obj
 0001:001825f0       ?getExternalDataType@UnDecorator@@CA?AVDName@@ABV2@@Z 101835f0 f i LIBCMTD:undname.obj
 0001:00182680       ?doMSKeywords@UnDecorator@@SAHXZ 10183680 f i LIBCMTD:undname.obj
 0001:001826a0       ?doPtr64@UnDecorator@@SAHXZ 101836a0 f i LIBCMTD:undname.obj
 0001:001826c0       ?doFunctionReturns@UnDecorator@@SAHXZ 101836c0 f i LIBCMTD:undname.obj
 0001:001826e0       ?doAllocationModel@UnDecorator@@SAHXZ 101836e0 f i LIBCMTD:undname.obj
 0001:00182700       ?doAllocationLanguage@UnDecorator@@SAHXZ 10183700 f i LIBCMTD:undname.obj
 0001:00182720       ?doThisTypes@UnDecorator@@SAHXZ 10183720 f i LIBCMTD:undname.obj
 0001:00182740       ?doAccessSpecifiers@UnDecorator@@SAHXZ 10183740 f i LIBCMTD:undname.obj
 0001:00182760       ?doThrowTypes@UnDecorator@@SAHXZ 10183760 f i LIBCMTD:undname.obj
 0001:00182780       ?doMemberTypes@UnDecorator@@SAHXZ 10183780 f i LIBCMTD:undname.obj
 0001:001827a0       ?doNameOnly@UnDecorator@@SAHXZ 101837a0 f i LIBCMTD:undname.obj
 0001:001827c0       ?doTypeOnly@UnDecorator@@SAHXZ 101837c0 f i LIBCMTD:undname.obj
 0001:001827e0       ?haveTemplateParameters@UnDecorator@@SAHXZ 101837e0 f i LIBCMTD:undname.obj
 0001:00182800       ?doEcsu@UnDecorator@@SAHXZ 10183800 f i LIBCMTD:undname.obj
 0001:00182820       ?doEllipsis@UnDecorator@@SAHXZ 10183820 f i LIBCMTD:undname.obj
 0001:00182840       ?UScore@UnDecorator@@SAPBDW4Tokens@@@Z 10183840 f   LIBCMTD:undname.obj
 0001:00182870       ?doUnderScore@UnDecorator@@SAHXZ 10183870 f i LIBCMTD:undname.obj
 0001:00182890       ??2@YAPAXIAAVHeapManager@@H@Z 10183890 f i LIBCMTD:undname.obj
 0001:001828b0       ?getMemory@HeapManager@@QAEPAXIH@Z 101838b0 f   LIBCMTD:undname.obj
 0001:001829c0       ??0Block@HeapManager@@QAE@XZ 101839c0 f i LIBCMTD:undname.obj
 0001:001829e0       ??H@YA?AVDName@@DABV0@@Z   101839e0 f i LIBCMTD:undname.obj
 0001:00182a10       ??H@YA?AVDName@@W4DNameStatus@@ABV0@@Z 10183a10 f i LIBCMTD:undname.obj
 0001:00182a40       ??H@YA?AVDName@@PBDABV0@@Z 10183a40 f i LIBCMTD:undname.obj
 0001:00182a70       ??0DName@@QAE@XZ           10183a70 f i LIBCMTD:undname.obj
 0001:00182b30       ??0DName@@QAE@D@Z          10183b30 f   LIBCMTD:undname.obj
 0001:00182c10       ??0DName@@QAE@ABV0@@Z      10183c10 f i LIBCMTD:undname.obj
 0001:00182c40       ??0DName@@QAE@PAV0@@Z      10183c40 f   LIBCMTD:undname.obj
 0001:00182d70       ??0DName@@QAE@PBD@Z        10183d70 f   LIBCMTD:undname.obj
 0001:00182e50       ??0DName@@QAE@AAPBDD@Z     10183e50 f   LIBCMTD:undname.obj
 0001:00183110       ?doNoIdentCharCheck@UnDecorator@@SAHXZ 10184110 f i LIBCMTD:undname.obj
 0001:00183130       ??0DName@@QAE@_K@Z         10184130 f   LIBCMTD:undname.obj
 0001:00183270       ??0DName@@QAE@_J@Z         10184270 f   LIBCMTD:undname.obj
 0001:001833f0       ??0DName@@QAE@W4DNameStatus@@@Z 101843f0 f   LIBCMTD:undname.obj
 0001:00183510       ?isValid@DName@@QBEHXZ     10184510 f i LIBCMTD:undname.obj
 0001:00183540       ?isEmpty@DName@@QBEHXZ     10184540 f i LIBCMTD:undname.obj
 0001:00183560       ?status@DName@@QBE?AW4DNameStatus@@XZ 10184560 f i LIBCMTD:undname.obj
 0001:00183580       ?setPtrRef@DName@@QAEAAV1@XZ 10184580 f i LIBCMTD:undname.obj
 0001:001835b0       ?isPtrRef@DName@@QBEHXZ    101845b0 f i LIBCMTD:undname.obj
 0001:001835d0       ?isUDC@DName@@QBEHXZ       101845d0 f i LIBCMTD:undname.obj
 0001:00183610       ?setIsUDC@DName@@QAEXXZ    10184610 f i LIBCMTD:undname.obj
 0001:00183640       ?isUDTThunk@DName@@QBEHXZ  10184640 f i LIBCMTD:undname.obj
 0001:00183680       ?setIsArray@DName@@QAEXXZ  10184680 f i LIBCMTD:undname.obj
 0001:001836a0       ?isArray@DName@@QBEHXZ     101846a0 f i LIBCMTD:undname.obj
 0001:001836c0       ?isNoTE@DName@@QBEHXZ      101846c0 f i LIBCMTD:undname.obj
 0001:001836e0       ?setIsNoTE@DName@@QAEXXZ   101846e0 f i LIBCMTD:undname.obj
 0001:00183700       ?isPinPtr@DName@@QBEHXZ    10184700 f i LIBCMTD:undname.obj
 0001:00183720       ?setIsPinPtr@DName@@QAEXXZ 10184720 f i LIBCMTD:undname.obj
 0001:00183740       ?isComArray@DName@@QBEHXZ  10184740 f i LIBCMTD:undname.obj
 0001:00183760       ?setIsComArray@DName@@QAEXXZ 10184760 f i LIBCMTD:undname.obj
 0001:00183780       ?isVCallThunk@DName@@QBEHXZ 10184780 f i LIBCMTD:undname.obj
 0001:001837a0       ?setIsVCallThunk@DName@@QAEXXZ 101847a0 f i LIBCMTD:undname.obj
 0001:001837c0       ?length@DName@@QBEHXZ      101847c0 f i LIBCMTD:undname.obj
 0001:001837f0       ?getLastChar@DName@@QBEDXZ 101847f0 f i LIBCMTD:undname.obj
 0001:00183820       ?getString@DName@@QBEPADPADH@Z 10184820 f i LIBCMTD:undname.obj
 0001:001838b0       ?getString@DName@@QBEPADPAD0@Z 101848b0 f i LIBCMTD:undname.obj
 0001:001838f0       ??HDName@@QBE?AV0@D@Z      101848f0 f   LIBCMTD:undname.obj
 0001:00183930       ??HDName@@QBE?AV0@PBD@Z    10184930 f   LIBCMTD:undname.obj
 0001:00183970       ??HDName@@QBE?AV0@ABV0@@Z  10184970 f   LIBCMTD:undname.obj
 0001:001839b0       ??HDName@@QBE?AV0@PAV0@@Z  101849b0 f   LIBCMTD:undname.obj
 0001:001839f0       ??HDName@@QBE?AV0@W4DNameStatus@@@Z 101849f0 f   LIBCMTD:undname.obj
 0001:00183a30       ?append@DName@@AAEXPAVDNameNode@@@Z 10184a30 f   LIBCMTD:undname.obj
 0001:00183ac0       ??YDName@@QAEAAV0@D@Z      10184ac0 f   LIBCMTD:undname.obj
 0001:00183b50       ??YDName@@QAEAAV0@PBD@Z    10184b50 f   LIBCMTD:undname.obj
 0001:00183bf0       ??YDName@@QAEAAV0@ABV0@@Z  10184bf0 f   LIBCMTD:undname.obj
 0001:00183c60       ??YDName@@QAEAAV0@PAV0@@Z  10184c60 f   LIBCMTD:undname.obj
 0001:00183d20       ??YDName@@QAEAAV0@W4DNameStatus@@@Z 10184d20 f   LIBCMTD:undname.obj
 0001:00183d90       ??_5DName@@QAEAAV0@ABV0@@Z 10184d90 f   LIBCMTD:undname.obj
 0001:00183df0       ??4DName@@QAEAAV0@D@Z      10184df0 f i LIBCMTD:undname.obj
 0001:00183ed0       ??4DName@@QAEAAV0@PBD@Z    10184ed0 f   LIBCMTD:undname.obj
 0001:00183fb0       ??4DName@@QAEAAV0@ABV0@@Z  10184fb0 f   LIBCMTD:undname.obj
 0001:00183fe0       ??4DName@@QAEAAV0@PAV0@@Z  10184fe0 f   LIBCMTD:undname.obj
 0001:00184120       ??4DName@@QAEAAV0@W4DNameStatus@@@Z 10185120 f   LIBCMTD:undname.obj
 0001:00184220       ?doPchar@DName@@AAEXPBDH@Z 10185220 f   LIBCMTD:undname.obj
 0001:00184360       ?isFull@Replicator@@QBEHXZ 10185360 f i LIBCMTD:undname.obj
 0001:00184380       ??0Replicator@@QAE@XZ      10185380 f i LIBCMTD:undname.obj
 0001:001843a0       ??YReplicator@@QAEAAV0@ABVDName@@@Z 101853a0 f   LIBCMTD:undname.obj
 0001:00184430       ??AReplicator@@QBE?AVDName@@H@Z 10185430 f   LIBCMTD:undname.obj
 0001:001844a0       ??0DNameNode@@IAE@XZ       101854a0 f   LIBCMTD:undname.obj
 0001:001844c0       ??0charNode@@QAE@D@Z       101854c0 f   LIBCMTD:undname.obj
 0001:001844f0       ?length@charNode@@UBEHXZ   101854f0 f i LIBCMTD:undname.obj
 0001:00184510       ?getLastChar@charNode@@UBEDXZ 10185510 f i LIBCMTD:undname.obj
 0001:00184530       ?getString@charNode@@UBEPADPAD0@Z 10185530 f i LIBCMTD:undname.obj
 0001:00184560       ??0pcharNode@@QAE@PBDH@Z   10185560 f   LIBCMTD:undname.obj
 0001:001845f0       ?length@pcharNode@@UBEHXZ  101855f0 f i LIBCMTD:undname.obj
 0001:00184610       ?getLastChar@pcharNode@@UBEDXZ 10185610 f i LIBCMTD:undname.obj
 0001:00184650       ?getString@pcharNode@@UBEPADPAD0@Z 10185650 f i LIBCMTD:undname.obj
 0001:00184680       ?getStringHelper@@YAPADPAD00H@Z 10185680 f i LIBCMTD:undname.obj
 0001:001846c0       ??0pDNameNode@@QAE@PAVDName@@@Z 101856c0 f   LIBCMTD:undname.obj
 0001:00184720       ?length@pDNameNode@@UBEHXZ 10185720 f i LIBCMTD:undname.obj
 0001:00184760       ?getLastChar@pDNameNode@@UBEDXZ 10185760 f i LIBCMTD:undname.obj
 0001:00184790       ?getString@pDNameNode@@UBEPADPAD0@Z 10185790 f i LIBCMTD:undname.obj
 0001:001847d0       ??0DNameStatusNode@@AAE@W4DNameStatus@@@Z 101857d0 f   LIBCMTD:undname.obj
 0001:00184820       ?length@DNameStatusNode@@UBEHXZ 10185820 f i LIBCMTD:undname.obj
 0001:00184840       ?getLastChar@DNameStatusNode@@UBEDXZ 10185840 f i LIBCMTD:undname.obj
 0001:00184860       ?getString@DNameStatusNode@@UBEPADPAD0@Z 10185860 f i LIBCMTD:undname.obj
 0001:001848a0       ?make@DNameStatusNode@@SAPAV1@W4DNameStatus@@@Z 101858a0 f i LIBCMTD:undname.obj
 0001:00184950       ??0pairNode@@QAE@PAVDNameNode@@0@Z 10185950 f   LIBCMTD:undname.obj
 0001:00184990       ?length@pairNode@@UBEHXZ   10185990 f i LIBCMTD:undname.obj
 0001:001849e0       ?getLastChar@pairNode@@UBEDXZ 101859e0 f i LIBCMTD:undname.obj
 0001:00184a30       ?getString@pairNode@@UBEPADPAD0@Z 10185a30 f i LIBCMTD:undname.obj
 0001:00184b70       __purecall                 10185b70 f   LIBCMTD:purevirt.obj
 0001:00184bb0       __set_purecall_handler     10185bb0 f   LIBCMTD:purevirt.obj
 0001:00184bf0       __get_purecall_handler     10185bf0 f   LIBCMTD:purevirt.obj
 0001:00184c06       _GetSystemTimeAsFileTime@4 10185c06 f   kernel32:KERNEL32.dll
 0001:00184c0c       _GetLastError@0            10185c0c f   kernel32:KERNEL32.dll
 0001:00184c12       _CreateDirectoryA@8        10185c12 f   kernel32:KERNEL32.dll
 0001:00184c18       _GetModuleFileNameW@12     10185c18 f   kernel32:KERNEL32.dll
 0001:00184c1e       _WriteConsoleW@20          10185c1e f   kernel32:KERNEL32.dll
 0001:00184c24       _GetFileType@4             10185c24 f   kernel32:KERNEL32.dll
 0001:00184c2a       _GetStdHandle@4            10185c2a f   kernel32:KERNEL32.dll
 0001:00184c30       _GetCurrentThreadId@0      10185c30 f   kernel32:KERNEL32.dll
 0001:00184c36       _GetCommandLineA@0         10185c36 f   kernel32:KERNEL32.dll
 0001:00184c3c       _GetModuleHandleA@4        10185c3c f   kernel32:KERNEL32.dll
 0001:00184c42       _TerminateProcess@8        10185c42 f   kernel32:KERNEL32.dll
 0001:00184c48       _GetCurrentProcess@0       10185c48 f   kernel32:KERNEL32.dll
 0001:00184c4e       _UnhandledExceptionFilter@4 10185c4e f   kernel32:KERNEL32.dll
 0001:00184c54       _SetUnhandledExceptionFilter@4 10185c54 f   kernel32:KERNEL32.dll
 0001:00184c5a       _IsDebuggerPresent@0       10185c5a f   kernel32:KERNEL32.dll
 0001:00184c60       _TlsGetValue@4             10185c60 f   kernel32:KERNEL32.dll
 0001:00184c66       _GetModuleHandleW@4        10185c66 f   kernel32:KERNEL32.dll
 0001:00184c6c       _TlsAlloc@0                10185c6c f   kernel32:KERNEL32.dll
 0001:00184c72       _TlsSetValue@8             10185c72 f   kernel32:KERNEL32.dll
 0001:00184c78       _TlsFree@4                 10185c78 f   kernel32:KERNEL32.dll
 0001:00184c7e       _InterlockedIncrement@4    10185c7e f   kernel32:KERNEL32.dll
 0001:00184c84       _SetLastError@4            10185c84 f   kernel32:KERNEL32.dll
 0001:00184c8a       _InterlockedDecrement@4    10185c8a f   kernel32:KERNEL32.dll
 0001:00184c90       _GetCurrentThread@0        10185c90 f   kernel32:KERNEL32.dll
 0001:00184c96       _HeapValidate@12           10185c96 f   kernel32:KERNEL32.dll
 0001:00184c9c       _IsBadReadPtr@8            10185c9c f   kernel32:KERNEL32.dll
 0001:00184ca2       _RaiseException@16         10185ca2 f   kernel32:KERNEL32.dll
 0001:00184ca8       _GetACP@0                  10185ca8 f   kernel32:KERNEL32.dll
 0001:00184cae       _GetOEMCP@0                10185cae f   kernel32:KERNEL32.dll
 0001:00184cb4       _GetCPInfo@8               10185cb4 f   kernel32:KERNEL32.dll
 0001:00184cba       _IsValidCodePage@4         10185cba f   kernel32:KERNEL32.dll
 0001:00184cc0       _WideCharToMultiByte@32    10185cc0 f   kernel32:KERNEL32.dll
 0001:00184cc6       _GetTimeZoneInformation@4  10185cc6 f   kernel32:KERNEL32.dll
 0001:00184ccc       _EnterCriticalSection@4    10185ccc f   kernel32:KERNEL32.dll
 0001:00184cd2       _LeaveCriticalSection@4    10185cd2 f   kernel32:KERNEL32.dll
 0001:00184cd8       _WriteFile@20              10185cd8 f   kernel32:KERNEL32.dll
 0001:00184cde       _GetConsoleCP@0            10185cde f   kernel32:KERNEL32.dll
 0001:00184ce4       _GetConsoleMode@8          10185ce4 f   kernel32:KERNEL32.dll
 0001:00184cea       _SetFilePointer@16         10185cea f   kernel32:KERNEL32.dll
 0001:00184cf0       _MultiByteToWideChar@24    10185cf0 f   kernel32:KERNEL32.dll
 0001:00184cf6       _ReadFile@20               10185cf6 f   kernel32:KERNEL32.dll
 0001:00184cfc       _CloseHandle@4             10185cfc f   kernel32:KERNEL32.dll
 0001:00184d02       _RtlUnwind@16              10185d02 f   kernel32:KERNEL32.dll
 0001:00184d08       _SetHandleCount@4          10185d08 f   kernel32:KERNEL32.dll
 0001:00184d0e       _GetStartupInfoA@4         10185d0e f   kernel32:KERNEL32.dll
 0001:00184d14       _DeleteCriticalSection@4   10185d14 f   kernel32:KERNEL32.dll
 0001:00184d1a       _FlushFileBuffers@4        10185d1a f   kernel32:KERNEL32.dll
 0001:00184d20       _FatalAppExitA@8           10185d20 f   kernel32:KERNEL32.dll
 0001:00184d26       _Sleep@4                   10185d26 f   kernel32:KERNEL32.dll
 0001:00184d2c       _ExitProcess@4             10185d2c f   kernel32:KERNEL32.dll
 0001:00184d32       _SetConsoleCtrlHandler@8   10185d32 f   kernel32:KERNEL32.dll
 0001:00184d38       _LoadLibraryW@4            10185d38 f   kernel32:KERNEL32.dll
 0001:00184d3e       _GetModuleFileNameA@12     10185d3e f   kernel32:KERNEL32.dll
 0001:00184d44       _FreeEnvironmentStringsA@4 10185d44 f   kernel32:KERNEL32.dll
 0001:00184d4a       _GetEnvironmentStrings@0   10185d4a f   kernel32:KERNEL32.dll
 0001:00184d50       _FreeEnvironmentStringsW@4 10185d50 f   kernel32:KERNEL32.dll
 0001:00184d56       _GetEnvironmentStringsW@0  10185d56 f   kernel32:KERNEL32.dll
 0001:00184d5c       _HeapDestroy@4             10185d5c f   kernel32:KERNEL32.dll
 0001:00184d62       _HeapCreate@12             10185d62 f   kernel32:KERNEL32.dll
 0001:00184d68       _HeapFree@12               10185d68 f   kernel32:KERNEL32.dll
 0001:00184d6e       _VirtualFree@12            10185d6e f   kernel32:KERNEL32.dll
 0001:00184d74       _QueryPerformanceCounter@4 10185d74 f   kernel32:KERNEL32.dll
 0001:00184d7a       _GetTickCount@0            10185d7a f   kernel32:KERNEL32.dll
 0001:00184d80       _GetCurrentProcessId@0     10185d80 f   kernel32:KERNEL32.dll
 0001:00184d86       _HeapAlloc@12              10185d86 f   kernel32:KERNEL32.dll
 0001:00184d8c       _HeapSize@12               10185d8c f   kernel32:KERNEL32.dll
 0001:00184d92       _HeapReAlloc@16            10185d92 f   kernel32:KERNEL32.dll
 0001:00184d98       _VirtualAlloc@16           10185d98 f   kernel32:KERNEL32.dll
 0001:00184d9e       _DebugBreak@0              10185d9e f   kernel32:KERNEL32.dll
 0001:00184da4       _OutputDebugStringA@4      10185da4 f   kernel32:KERNEL32.dll
 0001:00184daa       _OutputDebugStringW@4      10185daa f   kernel32:KERNEL32.dll
 0001:00184db0       _GetStringTypeA@20         10185db0 f   kernel32:KERNEL32.dll
 0001:00184db6       _GetStringTypeW@16         10185db6 f   kernel32:KERNEL32.dll
 0001:00184dbc       _LCMapStringA@24           10185dbc f   kernel32:KERNEL32.dll
 0001:00184dc2       _LCMapStringW@24           10185dc2 f   kernel32:KERNEL32.dll
 0001:00184dc8       _GetTimeFormatA@24         10185dc8 f   kernel32:KERNEL32.dll
 0001:00184dce       _GetDateFormatA@24         10185dce f   kernel32:KERNEL32.dll
 0001:00184dd4       _GetLocaleInfoA@16         10185dd4 f   kernel32:KERNEL32.dll
 0001:00184dda       _IsValidLocale@8           10185dda f   kernel32:KERNEL32.dll
 0001:00184de0       _EnumSystemLocalesA@8      10185de0 f   kernel32:KERNEL32.dll
 0001:00184de6       _GetUserDefaultLCID@0      10185de6 f   kernel32:KERNEL32.dll
 0001:00184dec       _SetStdHandle@8            10185dec f   kernel32:KERNEL32.dll
 0001:00184df2       _WriteConsoleA@20          10185df2 f   kernel32:KERNEL32.dll
 0001:00184df8       _GetConsoleOutputCP@0      10185df8 f   kernel32:KERNEL32.dll
 0001:00184dfe       _CreateFileA@28            10185dfe f   kernel32:KERNEL32.dll
 0001:00184e04       _InitializeCriticalSectionAndSpinCount@8 10185e04 f   kernel32:KERNEL32.dll
 0001:00184e0a       _InterlockedExchange@8     10185e0a f   kernel32:KERNEL32.dll
 0001:00184e10       _lstrlenA@4                10185e10 f   kernel32:KERNEL32.dll
 0001:00184e16       _SetEndOfFile@4            10185e16 f   kernel32:KERNEL32.dll
 0001:00184e1c       _GetProcessHeap@0          10185e1c f   kernel32:KERNEL32.dll
 0001:00184e22       _GetLocaleInfoW@16         10185e22 f   kernel32:KERNEL32.dll
 0001:00184e28       _VirtualQuery@12           10185e28 f   kernel32:KERNEL32.dll
 0001:00184e2e       _CompareStringA@24         10185e2e f   kernel32:KERNEL32.dll
 0001:00184e34       _CompareStringW@24         10185e34 f   kernel32:KERNEL32.dll
 0001:00184e3a       _SetEnvironmentVariableA@8 10185e3a f   kernel32:KERNEL32.dll
 0001:00184e40       __strlwr_l                 10185e40 f   LIBCMTD:strlwr.obj
 0001:00184e60       __strlwr                   10185e60 f   LIBCMTD:strlwr.obj
 0001:00184e60       _strlwr                    10185e60 f   LIBCMTD:strlwr.obj
 0001:00184f40       ?_strlwr_s_l_stat@@YAHPADIPAUlocaleinfo_struct@@@Z 10185f40 f   LIBCMTD:strlwr.obj
 0001:00185370       __strlwr_s_l               10186370 f   LIBCMTD:strlwr.obj
 0001:001853b0       __strlwr_s                 101863b0 f   LIBCMTD:strlwr.obj
 0001:001853d0       _strdup                    101863d0 f   LIBCMTD:strdup.obj
 0001:001853d0       __strdup                   101863d0 f   LIBCMTD:strdup.obj
 0001:001853f0       __strdup_dbg               101863f0 f   LIBCMTD:strdup.obj
 0002:00000000       ___xc_a                    1019e000     LIBCMTD:crt0init.obj
 0002:00000104       ___xc_z                    1019e104     LIBCMTD:crt0init.obj
 0002:00000208       ___xi_a                    1019e208     LIBCMTD:crt0init.obj
 0002:00000424       ___xi_z                    1019e424     LIBCMTD:crt0init.obj
 0002:00000528       ___xp_a                    1019e528     LIBCMTD:crt0init.obj
 0002:0000083c       ___xp_z                    1019e83c     LIBCMTD:crt0init.obj
 0002:00000940       ___xt_a                    1019e940     LIBCMTD:crt0init.obj
 0002:00000a44       ___xt_z                    1019ea44     LIBCMTD:crt0init.obj
 0002:00000b70       __real@0000000000000000    1019eb70     dm_ball.obj
 0002:00000b80       __real@4022000000000000    1019eb80     dm_ball.obj
 0002:00000b8c       __real@00000000            1019eb8c     dm_ball.obj
 0002:00000b90       __real@4014000000000000    1019eb90     dm_ball.obj
 0002:00000ba0       __real@40dfffc000000000    1019eba0     dm_ball.obj
 0002:00000bb0       __real@4024000000000000    1019ebb0     dm_ball.obj
 0002:00000bc0       __real@3fe6666666666666    1019ebc0     dm_ball.obj
 0002:00000bd0       __real@4000000000000000    1019ebd0     dm_ball.obj
 0002:00000be0       __real@3fe999999999999a    1019ebe0     dm_ball.obj
 0002:00000bf0       __real@3ff0000000000000    1019ebf0     dm_ball.obj
 0002:00000bfc       __real@42000000            1019ebfc     dm_ball.obj
 0002:00000c00       __real@c2000000            1019ec00     dm_ball.obj
 0002:00000c08       __real@4008000000000000    1019ec08     dm_ball.obj
 0002:00000c14       __real@3f800000            1019ec14     dm_ball.obj
 0002:00000c18       __real@3e4ccccd            1019ec18     dm_ball.obj
 0002:00000c1c       __real@40000000            1019ec1c     dm_ball.obj
 0002:00000c20       __real@41200000            1019ec20     dm_ball.obj
 0002:00000c28       __real@403e000000000000    1019ec28     dm_tag.obj
 0002:00000c34       __real@43960000            1019ec34     dm_tag.obj
 0002:00000c38       __real@42c80000            1019ec38     dm_tag.obj
 0002:00000c3c       __real@c1800000            1019ec3c     dm_tag.obj
 0002:00000c40       __real@41c00000            1019ec40     dm_tag.obj
 0002:00000c44       __real@41700000            1019ec44     dm_tag.obj
 0002:00000c48       __real@c1700000            1019ec48     dm_tag.obj
 0002:00000c50       __real@4060000000000000    1019ec50     g_ai.obj
 0002:00000c60       __real@4070000000000000    1019ec60     g_ai.obj
 0002:00000c70       __real@402e000000000000    1019ec70     g_ai.obj
 0002:00000c7c       __real@c2b40000            1019ec7c     g_ai.obj
 0002:00000c80       __real@42b40000            1019ec80     g_ai.obj
 0002:00000c88       __real@407f400000000000    1019ec88     g_ai.obj
 0002:00000c98       __real@4054000000000000    1019ec98     g_ai.obj
 0002:00000ca8       __real@3fa999999999999a    1019eca8     g_ai.obj
 0002:00000cb8       __real@40c3880000000000    1019ecb8     g_ai.obj
 0002:00000cc8       __real@3fd3333333333333    1019ecc8     g_ai.obj
 0002:00000cd8       __real@4073b00000000000    1019ecd8     g_ai.obj
 0002:00000ce8       __real@4046800000000000    1019ece8     g_ai.obj
 0002:00000cf8       __real@3fd999999999999a    1019ecf8     g_ai.obj
 0002:00000d04       __real@3f19999a            1019ed04     g_ai.obj
 0002:00000d08       __real@3f4ccccd            1019ed08     g_ai.obj
 0002:00000d10       __real@3fe0000000000000    1019ed10     g_ai.obj
 0002:00000d1c       __real@3ca3d70a            1019ed1c     g_ai.obj
 0002:00000d20       __real@3dcccccd            1019ed20     g_ai.obj
 0002:00000d24       __real@3ecccccd            1019ed24     g_ai.obj
 0002:00000d28       __real@4034000000000000    1019ed28     g_ai.obj
 0002:00000d38       __real@4020000000000000    1019ed38     g_ai.obj
 0002:00000d48       __real@4197d78400000000    1019ed48     g_ai.obj
 0002:00000d54       __real@41800000            1019ed54     g_ai.obj
 0002:00000d58       __real@4050000000000000    1019ed58     g_ai.obj
 0002:00000d68       __real@4040000000000000    1019ed68     g_ai.obj
 0002:00000d78       __real@3f91df46a2529d39    1019ed78     g_ai.obj
 0002:00000d88       __real@404f800000000000    1019ed88     g_ai.obj
 0002:00000d94       __real@44000000            1019ed94     g_ai.obj
 0002:00000d98       __real@4032000000000000    1019ed98     g_ai.obj
 0002:00000da8       __real@4076800000000000    1019eda8     g_camera.obj
 0002:00000db8       __real@40f0000000000000    1019edb8     g_camera.obj
 0002:00000dc8       __real@3fb999999999999a    1019edc8     g_camera.obj
 0002:00000dd8       __real@3fc999999999999a    1019edd8     g_camera.obj
 0002:00000de4       __real@42200000            1019ede4     g_chase.obj
 0002:00000de8       __real@4018000000000000    1019ede8     g_chase.obj
 0002:00000df8       __real@4030000000000000    1019edf8     g_chase.obj
 0002:00000e04       __real@c1f00000            1019ee04     g_chase.obj
 0002:00000e08       __real@42600000            1019ee08     g_chase.obj
 0002:00000e10       __real@404c000000000000    1019ee10     g_chase.obj
 0002:00000e20       __real@40c0000000000000    1019ee20     g_cmds.obj
 0002:00000e2c       __real@bf800000            1019ee2c     g_cmds.obj
 0002:00000e30       __real@46000000            1019ee30     g_cmds.obj
 0002:00000e34       __real@437f0000            1019ee34     g_cmds.obj
 0002:00000e38       __real@3f000000            1019ee38     g_combat.obj
 0002:00000e40       __real@3fd0000000000000    1019ee40     g_combat.obj
 0002:00000e50       __real@3fd51eb851eb851f    1019ee50     g_combat.obj
 0002:00000e60       __real@4049000000000000    1019ee60     g_combat.obj
 0002:00000e6c       __real@43800000            1019ee6c     g_combat.obj
 0002:00000e70       __real@4099000000000000    1019ee70     g_combat.obj
 0002:00000e7c       __real@42480000            1019ee7c     g_combat.obj
 0002:00000e80       __real@40a0000000000000    1019ee80     g_combat.obj
 0002:00000e8c       __real@461c4000            1019ee8c     g_combat.obj
 0002:00000e90       __real@3fc0000000000000    1019ee90     g_crane.obj
 0002:00000e9c       __real@41000000            1019ee9c     g_crane.obj
 0002:00000ea0       __real@c4000000            1019eea0     g_crane.obj
 0002:00000ea4       __real@c0000000            1019eea4     g_crane.obj
 0002:00000ea8       __real@bf000000            1019eea8     g_crane.obj
 0002:00000eac       __real@3eaaa64c            1019eeac     g_crane.obj
 0002:00000eb0       __real@4010000000000000    1019eeb0     g_crane.obj
 0002:00000ebc       __real@43200000            1019eebc     g_crane.obj
 0002:00000ec0       __real@44800000            1019eec0     g_fog.obj
 0002:00000ec4       __real@42800000            1019eec4     g_fog.obj
 0002:00000ec8       __real@459c4000            1019eec8     g_fog.obj
 0002:00000ecc       __real@459c3800            1019eecc     g_fog.obj
 0002:00000ed0       __real@41a00000            1019eed0     g_fog.obj
 0002:00000ed8       __real@c000000000000000    1019eed8     g_func.obj
 0002:00000ee8       __real@4039000000000000    1019eee8     g_func.obj
 0002:00000ef4       __real@40400000            1019eef4     g_func.obj
 0002:00000ef8       __real@40a00000            1019eef8     g_func.obj
 0002:00000efc       __real@3e99999a            1019eefc     g_func.obj
 0002:00000f00       __real@497423f0            1019ef00     g_func.obj
 0002:00000f08       __real@404e000000000000    1019ef08     g_func.obj
 0002:00000f18       __real@bff0000000000000    1019ef18     g_func.obj
 0002:00000f24       __real@41c80000            1019ef24     g_func.obj
 0002:00000f28       __real@4066800000000000    1019ef28     g_func.obj
 0002:00000f38       __real@400921fb54442d18    1019ef38     g_func.obj
 0002:00000f44       __real@3f333333            1019ef44     g_func.obj
 0002:00000f48       __real@42cc0000            1019ef48     g_func.obj
 0002:00000f50       __real@4059000000000000    1019ef50     g_func.obj
 0002:00000f5c       __real@40800000            1019ef5c     g_func.obj
 0002:00000f60       __real@3f50624dd2f1a9fc    1019ef60     g_func.obj
 0002:00000f70       __real@bfe6666666666666    1019ef70     g_func.obj
 0002:00000f80       __real@3f1a36e2eb1c432d    1019ef80     g_func.obj
 0002:00000f90       __real@401921fb54442d18    1019ef90     g_func.obj
 0002:00000fa0       __real@4079000000000000    1019efa0     g_func.obj
 0002:00000fb0       __real@c04ca5dc1a63c1f8    1019efb0     g_func.obj
 0002:00000fc0       __real@404ca5dc1a63c1f8    1019efc0     g_func.obj
 0002:00000fcc       __real@42400000            1019efcc     g_items.obj
 0002:00000fd0       __real@41f00000            1019efd0     g_items.obj
 0002:00000fd4       __real@3e800000            1019efd4     g_items.obj
 0002:00000fd8       __real@4072c00000000000    1019efd8     g_items.obj
 0002:00000fe8       __real@403d000000000000    1019efe8     g_items.obj
 0002:00000ff4       __real@c3000000            1019eff4     g_items.obj
 0002:00000ff8       __real@3fe3333333333333    1019eff8     g_items.obj
 0002:00001004       __real@c2480000            1019f004     g_jetpack.obj
 0002:00001008       __real@c1000000            1019f008     g_jetpack.obj
 0002:00001010       __real@3f947ae147ae147b    1019f010     g_jetpack.obj
 0002:00001020       __real@3f60624dd2f1a9fc    1019f020     g_jetpack.obj
 0002:0000102c       __real@c47a0000            1019f02c     g_jetpack.obj
 0002:00001030       __real@c08f400000000000    1019f030     g_jetpack.obj
 0002:0000103c       __real@447a0000            1019f03c     g_jetpack.obj
 0002:00001040       __real@408f400000000000    1019f040     g_jetpack.obj
 0002:0000104c       __real@c3960000            1019f04c     g_jetpack.obj
 0002:00001050       __real@c072c00000000000    1019f050     g_jetpack.obj
 0002:00001060       __real@3feb851eb851eb85    1019f060     g_jetpack.obj
 0002:00001070       __real@3fea8f5c28f5c28f    1019f070     g_jetpack.obj
 0002:0000107c       __real@42340000            1019f07c     g_jetpack.obj
 0002:00001080       __real@4044000000000000    1019f080     g_jetpack.obj
 0002:00001090       __real@405e000000000000    1019f090     g_jetpack.obj
 0002:000010a0       __real@4023fae147ae147b    1019f0a0     g_lock.obj
 0002:000010b0       __real@3f847ae147ae147b    1019f0b0     g_mappack.obj
 0002:000010bc       __real@3f99999a            1019f0bc     g_misc.obj
 0002:000010c0       __real@4069000000000000    1019f0c0     g_misc.obj
 0002:000010cc       __real@43fa0000            1019f0cc     g_misc.obj
 0002:000010d0       __real@43480000            1019f0d0     g_misc.obj
 0002:000010d8       __real@3fa99999a0000000    1019f0d8     g_misc.obj
 0002:000010e8       __real@4082c00000000000    1019f0e8     g_misc.obj
 0002:000010f4       __real@c0800000            1019f0f4     g_misc.obj
 0002:000010f8       __real@c1c00000            1019f0f8     g_misc.obj
 0002:000010fc       __real@43160000            1019f0fc     g_misc.obj
 0002:00001100       __real@3ffc000000000000    1019f100     g_misc.obj
 0002:00001110       __real@3ff8000000000000    1019f110     g_misc.obj
 0002:0000111c       __real@c2800000            1019f11c     g_misc.obj
 0002:00001120       __real@42900000            1019f120     g_misc.obj
 0002:00001124       __real@42f00000            1019f124     g_misc.obj
 0002:00001128       __real@43300000            1019f128     g_misc.obj
 0002:0000112c       __real@c2f00000            1019f12c     g_misc.obj
 0002:00001130       __real@c3300000            1019f130     g_misc.obj
 0002:00001138       __real@4038000000000000    1019f138     g_misc.obj
 0002:00001148       __real@4026000000000000    1019f148     g_misc.obj
 0002:00001154       __real@43000000            1019f154     g_misc.obj
 0002:00001158       __real@c3800000            1019f158     g_misc.obj
 0002:00001160       __real@400599999999999a    1019f160     g_misc.obj
 0002:00001170       __real@3fe570a3d70a3d71    1019f170     g_misc.obj
 0002:00001180       __real@3fa0e5604189374c    1019f180     g_misc.obj
 0002:0000118c       __real@41400000            1019f18c     g_misc.obj
 0002:00001190       __real@c1d00000            1019f190     g_misc.obj
 0002:00001194       __real@c2400000            1019f194     g_misc.obj
 0002:00001198       __real@c2200000            1019f198     g_misc.obj
 0002:000011a0       __real@4056800000000000    1019f1a0     g_misc.obj
 0002:000011b0       __real@3fe51eb851eb851f    1019f1b0     g_misc.obj
 0002:000011bc       __real@45000000            1019f1bc     g_monster.obj
 0002:000011c0       __real@40200000            1019f1c0     g_monster.obj
 0002:000011c8       __real@c059000000000000    1019f1c8     g_monster.obj
 0002:000011d8       __real@4036000000000000    1019f1d8     g_monster.obj
 0002:000011e8       __real@403a000000000000    1019f1e8     g_monster.obj
 0002:000011f8       __real@4028000000000000    1019f1f8     g_monster.obj
 0002:00001204       __real@4cbebc20            1019f204     g_monster.obj
 0002:00001208       __real@44a00000            1019f208     g_monster.obj
 0002:0000120c       __real@40c00000            1019f20c     g_newai.obj
 0002:00001210       __real@4078000000000000    1019f210     g_newai.obj
 0002:00001220       __real@3feccccccccccccd    1019f220     g_newai.obj
 0002:0000122c       __real@4b189680            1019f22c     g_newai.obj
 0002:00001230       __real@4080000000000000    1019f230     g_newai.obj
 0002:0000123c       __real@49742400            1019f23c     g_newai.obj
 0002:00001240       __real@bfd3333333333333    1019f240     g_newai.obj
 0002:00001250       __real@3fee666666666666    1019f250     g_newai.obj
 0002:00001260       __real@3fefae147ae147ae    1019f260     g_newdm.obj
 0002:00001270       __real@4088000000000000    1019f270     g_newdm.obj
 0002:00001280       __real@4075e00000000000    1019f280     g_newdm.obj
 0002:00001290       __real@4070e00000000000    1019f290     g_newfnc.obj
 0002:0000129c       __real@42960000            1019f29c     g_newtarg.obj
 0002:000012a0       __real@43c80000            1019f2a0     g_newtarg.obj
 0002:000012a4       __real@3ec00000            1019f2a4     g_newtarg.obj
 0002:000012a8       __real@3f400000            1019f2a8     g_newtarg.obj
 0002:000012b0       __real@40f86a0000000000    1019f2b0     g_newtarg.obj
 0002:000012bc       __real@bca3d70a            1019f2bc     g_newweap.obj
 0002:000012c0       __real@42c00000            1019f2c0     g_newweap.obj
 0002:000012c4       __real@c2c00000            1019f2c4     g_newweap.obj
 0002:000012c8       __real@bfb999999999999a    1019f2c8     g_newweap.obj
 0002:000012d4       __real@c1200000            1019f2d4     g_newweap.obj
 0002:000012d8       __real@c0c00000            1019f2d8     g_newweap.obj
 0002:000012e0       __real@4062c00000000000    1019f2e0     g_newweap.obj
 0002:000012f0       __real@405f400000000000    1019f2f0     g_newweap.obj
 0002:00001300       __real@3ff6666666666666    1019f300     g_newweap.obj
 0002:0000130c       __real@3fe66666            1019f30c     g_newweap.obj
 0002:00001310       __real@41600000            1019f310     g_newweap.obj
 0002:00001314       __real@43400000            1019f314     g_newweap.obj
 0002:00001318       __real@c1a00000            1019f318     g_newweap.obj
 0002:0000131c       __real@c1400000            1019f31c     g_newweap.obj
 0002:00001320       __real@4061800000000000    1019f320     g_newweap.obj
 0002:0000132c       __real@3fa00000            1019f32c     g_pendulum.obj
 0002:00001330       __real@43b38000            1019f330     g_pendulum.obj
 0002:00001334       __real@3fb33333            1019f334     g_phys.obj
 0002:00001338       __real@3fc00000            1019f338     g_phys.obj
 0002:00001340       __real@3f606800c54cd0be    1019f340     g_phys.obj
 0002:00001350       __real@3f5f400177cf4476    1019f350     g_phys.obj
 0002:00001360       __real@40b3880000000000    1019f360     g_phys.obj
 0002:00001370       __real@4042000000000000    1019f370     g_phys.obj
 0002:0000137c       __real@3ccccccd            1019f37c     g_sound.obj
 0002:00001380       __real@4e6e6b28            1019f380     g_sound.obj
 0002:00001388       __real@3f999999a0000000    1019f388     g_sound.obj
 0002:00001398       __real@406fe00000000000    1019f398     g_sound.obj
 0002:000013a4       __real@417ae148            1019f3a4     g_spawn.obj
 0002:000013a8       __real@c08c7ae1            1019f3a8     g_spawn.obj
 0002:000013ac       __real@c14ab852            1019f3ac     g_spawn.obj
 0002:000013b0       __real@412f5c29            1019f3b0     g_spawn.obj
 0002:000013b4       __real@c2b16666            1019f3b4     g_spawn.obj
 0002:000013b8       __real@41f80000            1019f3b8     g_spawn.obj
 0002:000013bc       __real@40e147ae            1019f3bc     g_spawn.obj
 0002:000013c0       __real@c24cb852            1019f3c0     g_spawn.obj
 0002:000013c4       __real@bf851eb8            1019f3c4     g_spawn.obj
 0002:000013c8       __real@41e4b852            1019f3c8     g_spawn.obj
 0002:000013cc       __real@c1070a3d            1019f3cc     g_spawn.obj
 0002:000013d0       __real@c2833333            1019f3d0     g_spawn.obj
 0002:000013d4       __real@41ba7ae1            1019f3d4     g_spawn.obj
 0002:000013d8       __real@c0e7ae14            1019f3d8     g_spawn.obj
 0002:000013dc       __real@413c51ec            1019f3dc     g_spawn.obj
 0002:000013e0       __real@430c0000            1019f3e0     g_sphere.obj
 0002:000013e4       __real@c0a00000            1019f3e4     g_sphere.obj
 0002:000013e8       __real@4068000000000000    1019f3e8     g_sphere.obj
 0002:000013f8       __real@c083800000000000    1019f3f8     g_target.obj
 0002:00001408       __real@c0a0000000000000    1019f408     g_target.obj
 0002:00001418       __real@4071800000000000    1019f418     g_target.obj
 0002:00001424       __real@45028000            1019f424     g_target.obj
 0002:00001428       __real@44400000            1019f428     g_target.obj
 0002:0000142c       __real@436c0000            1019f42c     g_target.obj
 0002:00001430       __real@43240000            1019f430     g_target.obj
 0002:00001434       __real@c5320000            1019f434     g_target.obj
 0002:00001438       __real@440f0000            1019f438     g_target.obj
 0002:00001440       __real@4058400000000000    1019f440     g_target.obj
 0002:00001450       __real@4042800000000000    1019f450     g_target.obj
 0002:00001460       __real@c066800000000000    1019f460     g_tracktrain.obj
 0002:00001470       __real@3fc3333333333334    1019f470     g_tracktrain.obj
 0002:0000147c       __real@47c35000            1019f47c     g_tracktrain.obj
 0002:00001480       __real@409f400000000000    1019f480     g_tracktrain.obj
 0002:00001490       __real@c056800000000000    1019f490     g_tracktrain.obj
 0002:000014a0       __real@c014000000000000    1019f4a0     g_tracktrain.obj
 0002:000014ac       __real@43b40000            1019f4ac     g_trigger.obj
 0002:000014b0       __real@4081300000000000    1019f4b0     g_turret.obj
 0002:000014bc       __real@42a00000            1019f4bc     g_turret.obj
 0002:000014c0       __real@3f76800000000000    1019f4c0     g_turret.obj
 0002:000014cc       __real@44480000            1019f4cc     g_turret.obj
 0002:000014d0       __real@43870000            1019f4d0     g_utils.obj
 0002:000014d8       __real@4031000000000000    1019f4d8     g_utils.obj
 0002:000014e4       __real@45800000            1019f4e4     g_utils.obj
 0002:000014e8       __real@c5800000            1019f4e8     g_utils.obj
 0002:000014f0       __real@4103880000000000    1019f4f0     g_vehicle.obj
 0002:00001500       __real@40c1940000000000    1019f500     g_weapon.obj
 0002:0000150c       __real@461c3c00            1019f50c     g_weapon.obj
 0002:00001510       __real@4004000000000000    1019f510     g_weapon.obj
 0002:0000151c       __real@3f666666            1019f51c     g_weapon.obj
 0002:00001520       __real@437a0000            1019f520     g_weapon.obj
 0002:00001528       __real@c034000000000000    1019f528     g_weapon.obj
 0002:00001534       __real@c1600000            1019f534     g_weapon.obj
 0002:00001538       __real@4031800000000000    1019f538     g_weapon.obj
 0002:00001544       __real@c0400000            1019f544     g_weapon.obj
 0002:00001548       __real@40bf400000000000    1019f548     g_weapon.obj
 0002:00001554       __real@44228000            1019f554     g_weapon.obj
 0002:00001558       __real@bfeeb851eb851eb8    1019f558     g_weapon.obj
 0002:00001568       __real@3feeb851eb851eb8    1019f568     g_weapon.obj
 0002:00001578       __real@4090000000000000    1019f578     g_weapon.obj
 0002:00001584       __real@bdcccccd            1019f584     g_weapon.obj
 0002:00001588       __real@3fe554c985f06f69    1019f588     g_weapon.obj
 0002:00001598       __real@3fd554c985f06f69    1019f598     g_weapon.obj
 0002:000015a8       __real@c030000000000000    1019f5a8     grenade.obj
 0002:000015b8       __real@4064000000000000    1019f5b8     grenade.obj
 0002:000015c8       __real@403c000000000000    1019f5c8     m_actor.obj
 0002:000015d4       __real@44bb8000            1019f5d4     m_actor.obj
 0002:000015d8       __real@44160000            1019f5d8     m_actor.obj
 0002:000015dc       __real@43e10000            1019f5dc     m_actor.obj
 0002:000015e0       __real@4070100000000000    1019f5e0     m_actor.obj
 0002:000015f0       __real@401c000000000000    1019f5f0     m_actor.obj
 0002:00001600       __real@3fe3333333333334    1019f600     m_actor.obj
 0002:0000160c       __real@441d0000            1019f60c     m_actor.obj
 0002:00001610       __real@3c23d70a            1019f610     m_actor.obj
 0002:00001614       __real@c1300000            1019f614     m_actor.obj
 0002:00001618       __real@41d80000            1019f618     m_actor.obj
 0002:0000161c       __real@4119999a            1019f61c     m_actor.obj
 0002:00001620       __real@40eccccd            1019f620     m_actor.obj
 0002:00001624       __real@41933333            1019f624     m_actor.obj
 0002:00001628       __real@40f00000            1019f628     m_actor.obj
 0002:0000162c       __real@41300000            1019f62c     m_actor.obj
 0002:00001630       __real@41100000            1019f630     m_actor.obj
 0002:00001634       __real@41380000            1019f634     m_actor.obj
 0002:00001638       __real@40d00000            1019f638     m_actor.obj
 0002:0000163c       __real@41880000            1019f63c     m_actor.obj
 0002:00001640       __real@41e80000            1019f640     m_actor.obj
 0002:00001644       __real@41500000            1019f644     m_actor.obj
 0002:00001648       __real@41d00000            1019f648     m_actor.obj
 0002:0000164c       __real@41b00000            1019f64c     m_actor.obj
 0002:00001650       __real@40e00000            1019f650     m_actor.obj
 0002:00001654       __real@42240000            1019f654     m_actor.obj
 0002:00001658       __real@40900000            1019f658     m_actor.obj
 0002:0000165c       __real@41980000            1019f65c     m_actor.obj
 0002:00001660       __real@42180000            1019f660     m_actor.obj
 0002:00001664       __real@42100000            1019f664     m_actor.obj
 0002:00001668       __real@42280000            1019f668     m_actor.obj
 0002:0000166c       __real@41900000            1019f66c     m_actor.obj
 0002:00001670       __real@c1900000            1019f670     m_actor.obj
 0002:00001674       __real@41e00000            1019f674     m_actor.obj
 0002:00001678       __real@c1e00000            1019f678     m_actor.obj
 0002:0000167c       __real@be4ccccd            1019f67c     m_actor_weap.obj
 0002:00001680       __real@4083c3a4edfa982d    1019f680     m_actor_weap.obj
 0002:00001690       __real@3fc3333333333333    1019f690     m_actor_weap.obj
 0002:000016a0       __real@4074000000000000    1019f6a0     m_boss2.obj
 0002:000016b0       __real@4084000000000000    1019f6b0     m_boss2.obj
 0002:000016c0       __real@3fbeb851eb851eb8    1019f6c0     m_boss2.obj
 0002:000016d0       __real@4087700000000000    1019f6d0     m_boss2.obj
 0002:000016dc       __real@becccccd            1019f6dc     m_boss2.obj
 0002:000016e0       __real@bccccccd            1019f6e0     m_boss2.obj
 0002:000016e4       __real@c2600000            1019f6e4     m_boss2.obj
 0002:000016e8       __real@3f0a36e2eb1c432d    1019f6e8     m_boss31.obj
 0002:000016f8       __real@3f747ae147ae147b    1019f6f8     m_boss31.obj
 0002:00001708       __real@3fe8000000000000    1019f708     m_boss31.obj
 0002:00001718       __real@4048000000000000    1019f718     m_boss31.obj
 0002:00001728       __real@40a7700000000000    1019f728     m_boss31.obj
 0002:00001734       __real@c2a00000            1019f734     m_boss31.obj
 0002:00001738       __real@3fd6666666666666    1019f738     m_boss32.obj
 0002:00001748       __real@3fdccccccccccccd    1019f748     m_boss32.obj
 0002:00001754       __real@42700000            1019f754     m_boss32.obj
 0002:00001758       __real@c2700000            1019f758     m_boss32.obj
 0002:00001760       __real@4055000000000000    1019f760     m_boss32.obj
 0002:0000176c       __real@42e00000            1019f76c     m_boss5.obj
 0002:00001770       __real@c4960000            1019f770     m_brainbeta.obj
 0002:00001778       __real@bfe0000000000000    1019f778     m_carrier.obj
 0002:00001784       __real@3e19999a            1019f784     m_carrier.obj
 0002:00001788       __real@bfc3333333333333    1019f788     m_carrier.obj
 0002:00001794       __real@be19999a            1019f794     m_carrier.obj
 0002:00001798       __real@443b8000            1019f798     m_carrier.obj
 0002:0000179c       __real@be99999a            1019f79c     m_carrier.obj
 0002:000017a0       __real@c2680000            1019f7a0     m_carrier.obj
 0002:000017a4       __real@42d20000            1019f7a4     m_carrier.obj
 0002:000017a8       __real@3ff199999999999a    1019f7a8     m_carrier.obj
 0002:000017b8       __real@3fe4cccccccccccd    1019f7b8     m_carrier.obj
 0002:000017c8       __real@3ff4cccccccccccd    1019f7c8     m_carrier.obj
 0002:000017d4       __real@42300000            1019f7d4     m_carrier.obj
 0002:000017d8       __real@c2300000            1019f7d8     m_carrier.obj
 0002:000017e0       __real@4016000000000000    1019f7e0     m_chick.obj
 0002:000017f0       __real@401e000000000000    1019f7f0     m_chick.obj
 0002:000017fc       __real@3eb33333            1019f7fc     m_chick.obj
 0002:00001800       __real@435c0000            1019f800     m_dog.obj
 0002:00001804       __real@43af0000            1019f804     m_dog.obj
 0002:00001808       __real@3f10002000400080    1019f808     m_fixbot.obj
 0002:00001814       __real@c5fd0000            1019f814     m_fixbot.obj
 0002:00001818       __real@bf4ccccd            1019f818     m_fixbot.obj
 0002:0000181c       __real@bf666666            1019f81c     m_float.obj
 0002:00001820       __real@41940000            1019f820     m_float.obj
 0002:00001828       __real@c05a000000000000    1019f828     m_flyer.obj
 0002:00001834       __real@442f0000            1019f834     m_gekk.obj
 0002:00001838       __real@405c000000000000    1019f838     m_gladb.obj
 0002:00001844       __real@3d4ccccd            1019f844     m_gladiator.obj
 0002:00001848       __real@41186a0000000000    1019f848     m_gunner.obj
 0002:00001854       __real@441e1d27            1019f854     m_gunner.obj
 0002:00001858       __real@c050000000000000    1019f858     m_gunner.obj
 0002:00001864       __real@3de147ae            1019f864     m_gunner.obj
 0002:00001868       __real@3da3d70a            1019f868     m_gunner.obj
 0002:00001870       __real@4010666666666666    1019f870     m_gunner.obj
 0002:0000187c       __real@3f933333            1019f87c     m_gunner.obj
 0002:00001880       __real@47c34f80            1019f880     m_medic.obj
 0002:00001888       __real@3feb333333333333    1019f888     m_medic.obj
 0002:00001898       __real@4079a00000000000    1019f898     m_medic.obj
 0002:000018a8       __real@402fc00000000000    1019f8a8     m_move.obj
 0002:000018b8       __real@bfee666666666666    1019f8b8     m_move.obj
 0002:000018c8       __real@c020000000000000    1019f8c8     m_move.obj
 0002:000018d4       __real@42d00000            1019f8d4     m_move.obj
 0002:000018d8       __real@439d8000            1019f8d8     m_move.obj
 0002:000018dc       __real@43340000            1019f8dc     m_move.obj
 0002:000018e0       __real@c024000000000000    1019f8e0     m_move.obj
 0002:000018ec       __real@42880000            1019f8ec     m_mutant.obj
 0002:000018f0       __real@406f400000000000    1019f8f0     m_soldier.obj
 0002:00001900       __real@402c000000000000    1019f900     m_soldier.obj
 0002:00001910       __real@bfeccccccccccccd    1019f910     m_stalker.obj
 0002:0000191c       __real@c3c00000            1019f91c     m_stalker.obj
 0002:00001920       __real@400921fa00000000    1019f920     m_stalker.obj
 0002:00001930       __real@4089000000000000    1019f930     m_stalker.obj
 0002:00001940       __real@407c200000000000    1019f940     m_stalker.obj
 0002:0000194c       __real@43c80ccd            1019f94c     m_stalker.obj
 0002:00001950       __real@c079000000000000    1019f950     m_stalker.obj
 0002:0000195c       __real@3fa66666            1019f95c     m_stalker.obj
 0002:00001960       __real@4014cccccccccccd    1019f960     m_tank.obj
 0002:00001970       __real@c076800000000000    1019f970     m_turret.obj
 0002:0000197c       __real@c2aa0000            1019f97c     m_turret.obj
 0002:00001980       __real@c055400000000000    1019f980     m_turret.obj
 0002:0000198c       __real@42aa0000            1019f98c     m_turret.obj
 0002:00001990       __real@4055400000000000    1019f990     m_turret.obj
 0002:0000199c       __real@c3390000            1019f99c     m_turret.obj
 0002:000019a0       __real@c067200000000000    1019f9a0     m_turret.obj
 0002:000019ac       __real@c3b18000            1019f9ac     m_turret.obj
 0002:000019b0       __real@c076300000000000    1019f9b0     m_turret.obj
 0002:000019c0       __real@4052000000000000    1019f9c0     m_turret.obj
 0002:000019d0       __real@3fef5c28f5c28f5c    1019f9d0     m_turret.obj
 0002:000019e0       __real@400b333333333333    1019f9e0     m_turret.obj
 0002:000019f0       __real@3ff3333333333333    1019f9f0     m_turret.obj
 0002:00001a00       __real@3ffccccccccccccd    1019fa00     m_turret.obj
 0002:00001a0c       __real@40600000            1019fa0c     m_turret.obj
 0002:00001a10       __real@c050400000000000    1019fa10     m_widow.obj
 0002:00001a20       __real@c04b800000000000    1019fa20     m_widow.obj
 0002:00001a30       __real@c046800000000000    1019fa30     m_widow.obj
 0002:00001a40       __real@c041800000000000    1019fa40     m_widow.obj
 0002:00001a50       __real@c039000000000000    1019fa50     m_widow.obj
 0002:00001a60       __real@c02e000000000000    1019fa60     m_widow.obj
 0002:00001a70       __real@4041800000000000    1019fa70     m_widow.obj
 0002:00001a80       __real@404b800000000000    1019fa80     m_widow.obj
 0002:00001a90       __real@4050400000000000    1019fa90     m_widow.obj
 0002:00001aa0       __real@4052c00000000000    1019faa0     m_widow.obj
 0002:00001ab0       __real@4057c00000000000    1019fab0     m_widow.obj
 0002:00001ac0       __real@c052c00000000000    1019fac0     m_widow.obj
 0002:00001ad0       __real@405a400000000000    1019fad0     m_widow.obj
 0002:00001adc       __real@43100000            1019fadc     m_widow.obj
 0002:00001ae0       __real@44960000            1019fae0     m_widow2.obj
 0002:00001ae4       __real@428c0000            1019fae4     m_widow2.obj
 0002:00001ae8       __real@c28c0000            1019fae8     m_widow2.obj
 0002:00001af0       __real@40a5e00000000000    1019faf0     m_widow2.obj
 0002:00001afc       __real@4299eb85            1019fafc     m_widow2.obj
 0002:00001b00       __real@c216ae14            1019fb00     m_widow2.obj
 0002:00001b04       __real@41bdeb85            1019fb04     m_widow2.obj
 0002:00001b08       __real@42930a3d            1019fb08     m_widow2.obj
 0002:00001b0c       __real@4213ae14            1019fb0c     m_widow2.obj
 0002:00001b10       __real@c1a3eb85            1019fb10     m_widow2.obj
 0002:00001b14       __real@42b86666            1019fb14     m_widow2.obj
 0002:00001b18       __real@40070a3d            1019fb18     m_widow2.obj
 0002:00001b1c       __real@c29b1eb8            1019fb1c     m_widow2.obj
 0002:00001b20       __real@c20e47ae            1019fb20     m_widow2.obj
 0002:00001b24       __real@c1e051ec            1019fb24     m_widow2.obj
 0002:00001b28       __real@42230a3d            1019fb28     m_widow2.obj
 0002:00001b2c       __real@bf8e147b            1019fb2c     m_widow2.obj
 0002:00001b30       __real@c1a0e148            1019fb30     m_widow2.obj
 0002:00001b34       __real@425ae148            1019fb34     m_widow2.obj
 0002:00001b38       __real@c2a447ae            1019fb38     m_widow2.obj
 0002:00001b3c       __real@c233999a            1019fb3c     m_widow2.obj
 0002:00001b40       __real@42860a3d            1019fb40     m_widow2.obj
 0002:00001b44       __real@c23f70a4            1019fb44     m_widow2.obj
 0002:00001b48       __real@c1ff1eb8            1019fb48     m_widow2.obj
 0002:00001b4c       __real@40f1eb85            1019fb4c     m_widow2.obj
 0002:00001b50       __real@418c28f6            1019fb50     m_widow2.obj
 0002:00001b54       __real@4283851f            1019fb54     m_widow2.obj
 0002:00001b58       __real@439e0000            1019fb58     p_client.obj
 0002:00001b5c       __real@437c0000            1019fb5c     p_client.obj
 0002:00001b60       __real@c3240000            1019fb60     p_client.obj
 0002:00001b64       __real@42f80000            1019fb64     p_client.obj
 0002:00001b68       __real@41b40000            1019fb68     p_client.obj
 0002:00001b6c       __real@4b18967f            1019fb6c     p_client.obj
 0002:00001b70       __real@c7c34f80            1019fb70     p_client.obj
 0002:00001b74       __real@c3480000            1019fb74     p_client.obj
 0002:00001b78       __real@c3c80000            1019fb78     p_client.obj
 0002:00001b7c       __real@c6000000            1019fb7c     p_client.obj
 0002:00001b80       __real@3fbeb851eb851eb9    1019fb80     p_client.obj
 0002:00001b90       __real@3fb47ae147ae147b    1019fb90     p_client.obj
 0002:00001ba0       __real@4067c00000000000    1019fba0     p_client.obj
 0002:00001bb0       __real@4056c00000000000    1019fbb0     p_hud.obj
 0002:00001bbc       __real@c1b00000            1019fbbc     p_view.obj
 0002:00001bc0       __real@c036000000000000    1019fbc0     p_view.obj
 0002:00001bd0       __real@c02c000000000000    1019fbd0     p_view.obj
 0002:00001bdc       __real@c2340000            1019fbdc     p_view.obj
 0002:00001be0       __real@3faeb851eb851eb8    1019fbe0     p_view.obj
 0002:00001bec       __real@3f59999a            1019fbec     p_view.obj
 0002:00001bf0       __real@3d23d70a            1019fbf0     p_view.obj
 0002:00001bf4       __real@43c00000            1019fbf4     p_view.obj
 0002:00001bf8       __real@406c200000000000    1019fbf8     p_view.obj
 0002:00001c04       __real@3d800000            1019fc04     p_view.obj
 0002:00001c08       __real@3ea66666            1019fc08     p_view.obj
 0002:00001c0c       __real@3e000000            1019fc0c     p_view.obj
 0002:00001c10       __real@3ee66666            1019fc10     p_view.obj
 0002:00001c18       __real@406a400000000000    1019fc18     p_view.obj
 0002:00001c28       __real@4060aaaaaaaaaaab    1019fc28     p_weapon.obj
 0002:00001c38       __real@c010000000000000    1019fc38     p_weapon.obj
 0002:00001c48       __real@bff8000000000000    1019fc48     p_weapon.obj
 0002:00001c58       __real@3fd5c28f5c28f5c3    1019fc58     p_weapon.obj
 0002:00001c68       __real@4066c16c16c16c17    1019fc68     q_shared.obj
 0002:00001c74       __FPinit                   1019fc74     LIBCMTD:_fpinit_.obj
 0002:00001c78       __FPmtinit                 1019fc78     LIBCMTD:_fpinit_.obj
 0002:00001c7c       __FPmtterm                 1019fc7c     LIBCMTD:_fpinit_.obj
 0002:00001cc8       ?ProcessDetach@NativeDll@<CrtImplementationDetails>@@0IB 1019fcc8     LIBCMTD:dbgfree.obj
 0002:00001ccc       ?ProcessAttach@NativeDll@<CrtImplementationDetails>@@0IB 1019fccc     LIBCMTD:dbgfree.obj
 0002:00001cd0       ?ThreadAttach@NativeDll@<CrtImplementationDetails>@@0IB 1019fcd0     LIBCMTD:dbgfree.obj
 0002:00001cd4       ?ThreadDetach@NativeDll@<CrtImplementationDetails>@@0IB 1019fcd4     LIBCMTD:dbgfree.obj
 0002:00001cd8       ?ProcessVerifier@NativeDll@<CrtImplementationDetails>@@0IB 1019fcd8     LIBCMTD:dbgfree.obj
 0002:00001cdc       ??_C@_1BK@HJGMBFLF@?$AAc?$AAo?$AAm?$AAp?$AA?5?$AA?$CB?$AA?$DN?$AA?5?$AAN?$AAU?$AAL?$AAL?$AA?$AA@ 1019fcdc     LIBCMTD:qsort.obj
 0002:00001cf8       ??_C@_1BE@NJBEBBME@?$AAw?$AAi?$AAd?$AAt?$AAh?$AA?5?$AA?$DO?$AA?5?$AA0?$AA?$AA@ 1019fcf8     LIBCMTD:qsort.obj
 0002:00001d0c       ??_C@_1M@INMHODIG@?$AAq?$AAs?$AAo?$AAr?$AAt?$AA?$AA@ 1019fd0c     LIBCMTD:qsort.obj
 0002:00001d18       ??_C@_1FO@NDBPJPLL@?$AAf?$AA?3?$AA?2?$AAd?$AAd?$AA?2?$AAv?$AAc?$AAt?$AAo?$AAo?$AAl?$AAs?$AA?2?$AAc?$AAr?$AAt?$AA_?$AAb?$AAl?$AAd?$AA?2?$AAs?$AAe?$AAl?$AAf?$AA_?$AAx?$AA8?$AA6?$AA?2?$AAc@ 1019fd18     LIBCMTD:qsort.obj
 0002:00001d78       ??_C@_1DC@HAGCIKOA@?$AAb?$AAa?$AAs?$AAe?$AA?5?$AA?$CB?$AA?$DN?$AA?5?$AAN?$AAU?$AAL?$AAL?$AA?5?$AA?$HM?$AA?$HM?$AA?5?$AAn?$AAu?$AAm?$AA?5?$AA?$DN?$AA?$DN?$AA?5?$AA0?$AA?$AA@ 1019fd78     LIBCMTD:qsort.obj
 0002:00001dac       ??_C@_1CC@OLIJCKA@?$AA?$CI?$AAs?$AAt?$AAr?$AAi?$AAn?$AAg?$AA?5?$AA?$CB?$AA?$DN?$AA?5?$AAN?$AAU?$AAL?$AAL?$AA?$CJ?$AA?$AA@ 1019fdac     LIBCMTD:sprintf.obj
 0002:00001dd0       ??_C@_1BA@KBJJGFFE@?$AAs?$AAp?$AAr?$AAi?$AAn?$AAt?$AAf?$AA?$AA@ 1019fdd0     LIBCMTD:sprintf.obj
 0002:00001de0       ??_C@_1GC@BMNPEKNN@?$AAf?$AA?3?$AA?2?$AAd?$AAd?$AA?2?$AAv?$AAc?$AAt?$AAo?$AAo?$AAl?$AAs?$AA?2?$AAc?$AAr?$AAt?$AA_?$AAb?$AAl?$AAd?$AA?2?$AAs?$AAe?$AAl?$AAf?$AA_?$AAx?$AA8?$AA6?$AA?2?$AAc@ 1019fde0     LIBCMTD:sprintf.obj
 0002:00001e44       ??_C@_1CC@MGIEJOME@?$AA?$CI?$AAf?$AAo?$AAr?$AAm?$AAa?$AAt?$AA?5?$AA?$CB?$AA?$DN?$AA?5?$AAN?$AAU?$AAL?$AAL?$AA?$CJ?$AA?$AA@ 1019fe44     LIBCMTD:sprintf.obj
 0002:00001ec0       ??_C@_1BA@NJCJMLHI@?$AA_?$AAa?$AAt?$AAo?$AAf?$AA_?$AAl?$AA?$AA@ 1019fec0     LIBCMTD:atof.obj
 0002:00001ed0       ??_C@_1FM@HAAJIFE@?$AAf?$AA?3?$AA?2?$AAd?$AAd?$AA?2?$AAv?$AAc?$AAt?$AAo?$AAo?$AAl?$AAs?$AA?2?$AAc?$AAr?$AAt?$AA_?$AAb?$AAl?$AAd?$AA?2?$AAs?$AAe?$AAl?$AAf?$AA_?$AAx?$AA8?$AA6?$AA?2?$AAc@ 1019fed0     LIBCMTD:atof.obj
 0002:00001f2c       ??_C@_1BK@LAOAACLJ@?$AAn?$AAp?$AAt?$AAr?$AA?5?$AA?$CB?$AA?$DN?$AA?5?$AAN?$AAU?$AAL?$AAL?$AA?$AA@ 1019ff2c     LIBCMTD:atof.obj
 0002:00001f48       ??_C@_1BI@IGILPKD@?$AA_?$AAv?$AAs?$AAp?$AAr?$AAi?$AAn?$AAt?$AAf?$AA_?$AAl?$AA?$AA@ 1019ff48     LIBCMTD:vsprintf.obj
 0002:00001f60       ??_C@_1GE@DPADKNCG@?$AAf?$AA?3?$AA?2?$AAd?$AAd?$AA?2?$AAv?$AAc?$AAt?$AAo?$AAo?$AAl?$AAs?$AA?2?$AAc?$AAr?$AAt?$AA_?$AAb?$AAl?$AAd?$AA?2?$AAs?$AAe?$AAl?$AAf?$AA_?$AAx?$AA8?$AA6?$AA?2?$AAc@ 1019ff60     LIBCMTD:vsprintf.obj
 0002:00001fc4       ??_C@_1CE@HMKDJHB@?$AA_?$AAv?$AAs?$AAc?$AAp?$AAr?$AAi?$AAn?$AAt?$AAf?$AA_?$AAh?$AAe?$AAl?$AAp?$AAe?$AAr?$AA?$AA@ 1019ffc4     LIBCMTD:vsprintf.obj
 0002:00001fe8       ??_C@_1DC@CMKCHHFC@?$AA_?$AAg?$AAe?$AAt?$AA_?$AAt?$AAi?$AAm?$AAe?$AAz?$AAo?$AAn?$AAe?$AA?$CI?$AA?$CG?$AAt?$AAi?$AAm?$AAe?$AAz?$AAo?$AAn?$AAe?$AA?$CJ?$AA?$AA@ 1019ffe8     LIBCMTD:loctim64.obj
 0002:0000201c       ??_C@_1CO@IMMOMMCB@?$AA_?$AAg?$AAe?$AAt?$AA_?$AAd?$AAs?$AAt?$AAb?$AAi?$AAa?$AAs?$AA?$CI?$AA?$CG?$AAd?$AAs?$AAt?$AAb?$AAi?$AAa?$AAs?$AA?$CJ?$AA?$AA@ 101a001c     LIBCMTD:loctim64.obj
 0002:0000204c       ??_C@_1DC@MEHEMOPB@?$AA_?$AAg?$AAe?$AAt?$AA_?$AAd?$AAa?$AAy?$AAl?$AAi?$AAg?$AAh?$AAt?$AA?$CI?$AA?$CG?$AAd?$AAa?$AAy?$AAl?$AAi?$AAg?$AAh?$AAt?$AA?$CJ?$AA?$AA@ 101a004c     LIBCMTD:loctim64.obj
 0002:00002080       ??_C@_1CE@EHHPAMNN@?$AA?$CI?$AA?5?$AAp?$AAt?$AAi?$AAm?$AAe?$AA?5?$AA?$CB?$AA?$DN?$AA?5?$AAN?$AAU?$AAL?$AAL?$AA?5?$AA?$CJ?$AA?$AA@ 101a0080     LIBCMTD:loctim64.obj
 0002:000020a4       ??_C@_1BO@OIBEEOEM@?$AA_?$AAl?$AAo?$AAc?$AAa?$AAl?$AAt?$AAi?$AAm?$AAe?$AA6?$AA4?$AA_?$AAs?$AA?$AA@ 101a00a4     LIBCMTD:loctim64.obj
 0002:000020c8       ??_C@_1GE@FPHBIHGB@?$AAf?$AA?3?$AA?2?$AAd?$AAd?$AA?2?$AAv?$AAc?$AAt?$AAo?$AAo?$AAl?$AAs?$AA?2?$AAc?$AAr?$AAt?$AA_?$AAb?$AAl?$AAd?$AA?2?$AAs?$AAe?$AAl?$AAf?$AA_?$AAx?$AA8?$AA6?$AA?2?$AAc@ 101a00c8     LIBCMTD:loctim64.obj
 0002:0000212c       ??_C@_1CA@NJFECEIO@?$AA?$CI?$AA?5?$AAp?$AAt?$AAm?$AA?5?$AA?$CB?$AA?$DN?$AA?5?$AAN?$AAU?$AAL?$AAL?$AA?5?$AA?$CJ?$AA?$AA@ 101a012c     LIBCMTD:loctim64.obj
 0002:0000214c       ??_C@_1O@KLNKIMAP@?$AAf?$AAw?$AAr?$AAi?$AAt?$AAe?$AA?$AA@ 101a014c     LIBCMTD:fwrite.obj
 0002:00002160       ??_C@_1GA@DOFNKKGD@?$AAf?$AA?3?$AA?2?$AAd?$AAd?$AA?2?$AAv?$AAc?$AAt?$AAo?$AAo?$AAl?$AAs?$AA?2?$AAc?$AAr?$AAt?$AA_?$AAb?$AAl?$AAd?$AA?2?$AAs?$AAe?$AAl?$AAf?$AA_?$AAx?$AA8?$AA6?$AA?2?$AAc@ 101a0160     LIBCMTD:fwrite.obj
 0002:000021c0       ??_C@_1CC@FADMNIL@?$AA?$CI?$AAs?$AAt?$AAr?$AAe?$AAa?$AAm?$AA?5?$AA?$CB?$AA?$DN?$AA?5?$AAN?$AAU?$AAL?$AAL?$AA?$CJ?$AA?$AA@ 101a01c0     LIBCMTD:fwrite.obj
 0002:000021e8       ??_C@_1LG@DCNDJCHK@?$AA?$CI?$AA?$CC?$AAI?$AAn?$AAc?$AAo?$AAn?$AAs?$AAi?$AAs?$AAt?$AAe?$AAn?$AAt?$AA?5?$AAS?$AAt?$AAr?$AAe?$AAa?$AAm?$AA?5?$AAC?$AAo?$AAu?$AAn?$AAt?$AA?4?$AA?5?$AAF?$AAl?$AAu@ 101a01e8     LIBCMTD:fwrite.obj
 0002:000022a0       ??_C@_1DC@FHEPNAPF@?$AAn?$AAu?$AAm?$AA?5?$AA?$DM?$AA?$DN?$AA?5?$AA?$CI?$AAS?$AAI?$AAZ?$AAE?$AA_?$AAM?$AAA?$AAX?$AA?5?$AA?1?$AA?5?$AAs?$AAi?$AAz?$AAe?$AA?$CJ?$AA?$AA@ 101a02a0     LIBCMTD:fwrite.obj
 0002:000022d4       ??_C@_1CC@CGFEEBMC@?$AA?$CI?$AAb?$AAu?$AAf?$AAf?$AAe?$AAr?$AA?5?$AA?$CB?$AA?$DN?$AA?5?$AAN?$AAU?$AAL?$AAL?$AA?$CJ?$AA?$AA@ 101a02d4     LIBCMTD:fwrite.obj
 0002:000022f8       ??_C@_1BO@JGPKCBCE@?$AA_?$AAf?$AAw?$AAr?$AAi?$AAt?$AAe?$AA_?$AAn?$AAo?$AAl?$AAo?$AAc?$AAk?$AA?$AA@ 101a02f8     LIBCMTD:fwrite.obj
 0002:00002318       ??_C@_1IO@PMHBOLJK@?$AA?$CI?$AA?$CI?$AAw?$AAh?$AAe?$AAn?$AAc?$AAe?$AA?5?$AA?$DN?$AA?$DN?$AA?5?$AAS?$AAE?$AAE?$AAK?$AA_?$AAS?$AAE?$AAT?$AA?$CJ?$AA?5?$AA?$HM?$AA?$HM?$AA?5?$AA?$CI?$AAw?$AAh?$AAe?$AAn?$AAc?$AAe@ 101a0318     LIBCMTD:fseek.obj
 0002:000023a8       ??_C@_1M@HCCOIONH@?$AAf?$AAs?$AAe?$AAe?$AAk?$AA?$AA@ 101a03a8     LIBCMTD:fseek.obj
 0002:000023b8       ??_C@_1FO@ECBPAICH@?$AAf?$AA?3?$AA?2?$AAd?$AAd?$AA?2?$AAv?$AAc?$AAt?$AAo?$AAo?$AAl?$AAs?$AA?2?$AAc?$AAr?$AAt?$AA_?$AAb?$AAl?$AAd?$AA?2?$AAs?$AAe?$AAl?$AAf?$AA_?$AAx?$AA8?$AA6?$AA?2?$AAc@ 101a03b8     LIBCMTD:fseek.obj
 0002:00002418       ??_C@_1BA@CMLCEIGG@?$AAf?$AAr?$AAe?$AAa?$AAd?$AA_?$AAs?$AA?$AA@ 101a0418     LIBCMTD:fread.obj
 0002:00002428       ??_C@_1FO@PNLFLIH@?$AAf?$AA?3?$AA?2?$AAd?$AAd?$AA?2?$AAv?$AAc?$AAt?$AAo?$AAo?$AAl?$AAs?$AA?2?$AAc?$AAr?$AAt?$AA_?$AAb?$AAl?$AAd?$AA?2?$AAs?$AAe?$AAl?$AAf?$AA_?$AAx?$AA8?$AA6?$AA?2?$AAc@ 101a0428     LIBCMTD:fread.obj
 0002:00002488       ??_C@_1DA@DKEFLDMG@?$AA?$CI?$AA?$CC?$AAb?$AAu?$AAf?$AAf?$AAe?$AAr?$AA?5?$AAt?$AAo?$AAo?$AA?5?$AAs?$AAm?$AAa?$AAl?$AAl?$AA?$CC?$AA?0?$AA?5?$AA0?$AA?$CJ?$AA?$AA@ 101a0488     LIBCMTD:fread.obj
 0002:000024b8       ??_C@_1EA@FAMECDND@?$AAn?$AAu?$AAm?$AA?5?$AA?$DM?$AA?$DN?$AA?5?$AA?$CI?$AAS?$AAI?$AAZ?$AAE?$AA_?$AAM?$AAA?$AAX?$AA?5?$AA?1?$AA?5?$AAe?$AAl?$AAe?$AAm?$AAe?$AAn?$AAt?$AAS?$AAi?$AAz?$AAe?$AA?$CJ?$AA?$AA@ 101a04b8     LIBCMTD:fread.obj
 0002:000024f8       ??_C@_1CA@IDPOGFL@?$AA_?$AAf?$AAr?$AAe?$AAa?$AAd?$AA_?$AAn?$AAo?$AAl?$AAo?$AAc?$AAk?$AA_?$AAs?$AA?$AA@ 101a04f8     LIBCMTD:fread.obj
 0002:00002518       ??_C@_1O@EGMJNCOI@?$AAf?$AAc?$AAl?$AAo?$AAs?$AAe?$AA?$AA@ 101a0518     LIBCMTD:fclose.obj
 0002:00002528       ??_C@_1GA@KMIDAPAP@?$AAf?$AA?3?$AA?2?$AAd?$AAd?$AA?2?$AAv?$AAc?$AAt?$AAo?$AAo?$AAl?$AAs?$AA?2?$AAc?$AAr?$AAt?$AA_?$AAb?$AAl?$AAd?$AA?2?$AAs?$AAe?$AAl?$AAf?$AA_?$AAx?$AA8?$AA6?$AA?2?$AAc@ 101a0528     LIBCMTD:fclose.obj
 0002:00002588       ??_C@_1BO@JINCABEC@?$AA_?$AAf?$AAc?$AAl?$AAo?$AAs?$AAe?$AA_?$AAn?$AAo?$AAl?$AAo?$AAc?$AAk?$AA?$AA@ 101a0588     LIBCMTD:fclose.obj
 0002:000025a8       ??_C@_1BM@JMKHIAHP@?$AA?$CI?$AAs?$AAt?$AAr?$AA?5?$AA?$CB?$AA?$DN?$AA?5?$AAN?$AAU?$AAL?$AAL?$AA?$CJ?$AA?$AA@ 101a05a8     LIBCMTD:fclose.obj
 0002:000025c4       ??_C@_1CI@HBNALCBB@?$AA?$CI?$AA?$CK?$AAm?$AAo?$AAd?$AAe?$AA?5?$AA?$CB?$AA?$DN?$AA?5?$AA_?$AAT?$AA?$CI?$AA?8?$AA?2?$AA0?$AA?8?$AA?$CJ?$AA?$CJ?$AA?$AA@ 101a05c4     LIBCMTD:fopen.obj
 0002:000025ec       ??_C@_1BO@MJMKAKCJ@?$AA?$CI?$AAm?$AAo?$AAd?$AAe?$AA?5?$AA?$CB?$AA?$DN?$AA?5?$AAN?$AAU?$AAL?$AAL?$AA?$CJ?$AA?$AA@ 101a05ec     LIBCMTD:fopen.obj
 0002:0000260c       ??_C@_1BA@HNEAFMNL@?$AA_?$AAf?$AAs?$AAo?$AAp?$AAe?$AAn?$AA?$AA@ 101a060c     LIBCMTD:fopen.obj
 0002:00002620       ??_C@_1FO@NCADDBOO@?$AAf?$AA?3?$AA?2?$AAd?$AAd?$AA?2?$AAv?$AAc?$AAt?$AAo?$AAo?$AAl?$AAs?$AA?2?$AAc?$AAr?$AAt?$AA_?$AAb?$AAl?$AAd?$AA?2?$AAs?$AAe?$AAl?$AAf?$AA_?$AAx?$AA8?$AA6?$AA?2?$AAc@ 101a0620     LIBCMTD:fopen.obj
 0002:00002680       ??_C@_1BO@CLGIAEOJ@?$AA?$CI?$AAf?$AAi?$AAl?$AAe?$AA?5?$AA?$CB?$AA?$DN?$AA?5?$AAN?$AAU?$AAL?$AAL?$AA?$CJ?$AA?$AA@ 101a0680     LIBCMTD:fopen.obj
 0002:000026a0       ??_C@_1BA@PBGKCCAP@?$AAf?$AAo?$AAp?$AAe?$AAn?$AA_?$AAs?$AA?$AA@ 101a06a0     LIBCMTD:fopen.obj
 0002:000026b0       ??_C@_1CA@LLJLFCDN@?$AA?$CI?$AAp?$AAf?$AAi?$AAl?$AAe?$AA?5?$AA?$CB?$AA?$DN?$AA?5?$AAN?$AAU?$AAL?$AAL?$AA?$CJ?$AA?$AA@ 101a06b0     LIBCMTD:fopen.obj
 0002:000026d0       ??_C@_1BC@KMGJCMNP@?$AAv?$AAs?$AAc?$AAa?$AAn?$AA_?$AAf?$AAn?$AA?$AA@ 101a06d0     LIBCMTD:sscanf.obj
 0002:000026e8       ??_C@_1GA@GDIHGGDN@?$AAf?$AA?3?$AA?2?$AAd?$AAd?$AA?2?$AAv?$AAc?$AAt?$AAo?$AAo?$AAl?$AAs?$AA?2?$AAc?$AAr?$AAt?$AA_?$AAb?$AAl?$AAd?$AA?2?$AAs?$AAe?$AAl?$AAf?$AA_?$AAx?$AA8?$AA6?$AA?2?$AAc@ 101a06e8     LIBCMTD:sscanf.obj
 0002:00002748       ??_C@_1BAA@ODEGEDCK@?$AA?$CI?$AA?5?$AA?$CI?$AA_?$AAS?$AAt?$AAr?$AAe?$AAa?$AAm?$AA?9?$AA?$DO?$AA_?$AAf?$AAl?$AAa?$AAg?$AA?5?$AA?$CG?$AA?5?$AA_?$AAI?$AAO?$AAS?$AAT?$AAR?$AAG?$AA?$CJ?$AA?5?$AA?$HM?$AA?$HM?$AA?5@ 101a0748     LIBCMTD:fprintf.obj
 0002:00002848       ??_C@_1BA@DNOHIGNM@?$AAf?$AAp?$AAr?$AAi?$AAn?$AAt?$AAf?$AA?$AA@ 101a0848     LIBCMTD:fprintf.obj
 0002:00002858       ??_C@_1GC@NHJDDBOH@?$AAf?$AA?3?$AA?2?$AAd?$AAd?$AA?2?$AAv?$AAc?$AAt?$AAo?$AAo?$AAl?$AAs?$AA?2?$AAc?$AAr?$AAt?$AA_?$AAb?$AAl?$AAd?$AA?2?$AAs?$AAe?$AAl?$AAf?$AA_?$AAx?$AA8?$AA6?$AA?2?$AAc@ 101a0858     LIBCMTD:fprintf.obj
 0002:000028bc       ??_C@_15IABLJNFO@?$AA?6?$AA?6?$AA?$AA@ 101a08bc     LIBCMTD:wassert.obj
 0002:000028c4       ??_C@_13LBAGMAIH@?$AA?6?$AA?$AA@ 101a08c4     LIBCMTD:wassert.obj
 0002:000028c8       ??_C@_17LGKOMLJ@?$AA?4?$AA?4?$AA?4?$AA?$AA@ 101a08c8     LIBCMTD:wassert.obj
 0002:000028d0       ??_C@_1EK@MBDPDCGA@?$AAM?$AAi?$AAc?$AAr?$AAo?$AAs?$AAo?$AAf?$AAt?$AA?5?$AAV?$AAi?$AAs?$AAu?$AAa?$AAl?$AA?5?$AAC?$AA?$CL?$AA?$CL?$AA?5?$AAR?$AAu?$AAn?$AAt?$AAi?$AAm?$AAe?$AA?5?$AAL?$AAi?$AAb@ 101a08d0     LIBCMTD:wassert.obj
 0002:00002920       ??_C@_1HK@POCJMFGK@?$AA?$CI?$AAP?$AAr?$AAe?$AAs?$AAs?$AA?5?$AAR?$AAe?$AAt?$AAr?$AAy?$AA?5?$AAt?$AAo?$AA?5?$AAd?$AAe?$AAb?$AAu?$AAg?$AA?5?$AAt?$AAh?$AAe?$AA?5?$AAa?$AAp?$AAp?$AAl?$AAi?$AAc@ 101a0920     LIBCMTD:wassert.obj
 0002:000029a0       ??_C@_1LO@HBAMOOPN@?$AAw?$AAc?$AAs?$AAc?$AAa?$AAt?$AA_?$AAs?$AA?$CI?$AAa?$AAs?$AAs?$AAe?$AAr?$AAt?$AAb?$AAu?$AAf?$AA?0?$AA?5?$AA?$CI?$AA6?$AA0?$AA?5?$AA?$CK?$AA?5?$AA9?$AA?$CJ?$AA?0?$AA?5?$AAL?$AA?$CC@ 101a09a0     LIBCMTD:wassert.obj
 0002:00002a60       ??_C@_1FG@GMPCGFKH@?$AAw?$AAc?$AAs?$AAc?$AAa?$AAt?$AA_?$AAs?$AA?$CI?$AAa?$AAs?$AAs?$AAe?$AAr?$AAt?$AAb?$AAu?$AAf?$AA?0?$AA?5?$AA?$CI?$AA6?$AA0?$AA?5?$AA?$CK?$AA?5?$AA9?$AA?$CJ?$AA?0?$AA?5?$AAd?$AAb@ 101a0a60     LIBCMTD:wassert.obj
 0002:00002ab8       ??_C@_1OA@EGMLFBHJ@?$AAF?$AAo?$AAr?$AA?5?$AAi?$AAn?$AAf?$AAo?$AAr?$AAm?$AAa?$AAt?$AAi?$AAo?$AAn?$AA?5?$AAo?$AAn?$AA?5?$AAh?$AAo?$AAw?$AA?5?$AAy?$AAo?$AAu?$AAr?$AA?5?$AAp?$AAr?$AAo?$AAg@ 101a0ab8     LIBCMTD:wassert.obj
 0002:00002b98       ??_C@_1BCO@FMFFDPPF@?$AAw?$AAc?$AAs?$AAc?$AAa?$AAt?$AA_?$AAs?$AA?$CI?$AAa?$AAs?$AAs?$AAe?$AAr?$AAt?$AAb?$AAu?$AAf?$AA?0?$AA?5?$AA?$CI?$AA6?$AA0?$AA?5?$AA?$CK?$AA?5?$AA9?$AA?$CJ?$AA?0?$AA?5?$AAL?$AA?$CC@ 101a0b98     LIBCMTD:wassert.obj
 0002:00002cc8       ??_C@_1EM@MBEKCGIC@?$AAw?$AAc?$AAs?$AAc?$AAa?$AAt?$AA_?$AAs?$AA?$CI?$AA?5?$AAa?$AAs?$AAs?$AAe?$AAr?$AAt?$AAb?$AAu?$AAf?$AA?0?$AA?5?$AA?$CI?$AA6?$AA0?$AA?5?$AA?$CK?$AA?5?$AA9?$AA?$CJ?$AA?0?$AA?5?$AAe@ 101a0cc8     LIBCMTD:wassert.obj
 0002:00002d18       ??_C@_1CHM@CEIMNDLH@?$AAw?$AAc?$AAs?$AAn?$AAc?$AAa?$AAt?$AA_?$AAs?$AA?$CI?$AA?5?$AAa?$AAs?$AAs?$AAe?$AAr?$AAt?$AAb?$AAu?$AAf?$AA?0?$AA?5?$AA?$CI?$AA6?$AA0?$AA?5?$AA?$CK?$AA?5?$AA9?$AA?$CJ?$AA?0?$AA?5@ 101a0d18     LIBCMTD:wassert.obj
 0002:00002f94       ??_C@_1BK@PEDCIPMA@?$AAE?$AAx?$AAp?$AAr?$AAe?$AAs?$AAs?$AAi?$AAo?$AAn?$AA?3?$AA?5?$AA?$AA@ 101a0f94     LIBCMTD:wassert.obj
 0002:00002fb0       ??_C@_1GC@HOBBPFHJ@?$AAw?$AAc?$AAs?$AAc?$AAa?$AAt?$AA_?$AAs?$AA?$CI?$AA?5?$AAa?$AAs?$AAs?$AAe?$AAr?$AAt?$AAb?$AAu?$AAf?$AA?0?$AA?5?$AA?$CI?$AA6?$AA0?$AA?5?$AA?$CK?$AA?5?$AA9?$AA?$CJ?$AA?0?$AA?5?$AAL@ 101a0fb0     LIBCMTD:wassert.obj
 0002:00003018       ??_C@_1KG@CFEIMPNH@?$AA_?$AAi?$AAt?$AAo?$AAw?$AA_?$AAs?$AA?$CI?$AA?5?$AAl?$AAi?$AAn?$AAe?$AAn?$AAo?$AA?0?$AA?5?$AAa?$AAs?$AAs?$AAe?$AAr?$AAt?$AAb?$AAu?$AAf?$AA?5?$AA?$CL?$AA?5?$AAw?$AAc?$AAs@ 101a1018     LIBCMTD:wassert.obj
 0002:000030c0       ??_C@_1O@KCAFKHJE@?$AAL?$AAi?$AAn?$AAe?$AA?3?$AA?5?$AA?$AA@ 101a10c0     LIBCMTD:wassert.obj
 0002:000030d0       ??_C@_1FG@NHDGJLMI@?$AAw?$AAc?$AAs?$AAc?$AAa?$AAt?$AA_?$AAs?$AA?$CI?$AA?5?$AAa?$AAs?$AAs?$AAe?$AAr?$AAt?$AAb?$AAu?$AAf?$AA?0?$AA?5?$AA?$CI?$AA6?$AA0?$AA?5?$AA?$CK?$AA?5?$AA9?$AA?$CJ?$AA?0?$AA?5?$AAL@ 101a10d0     LIBCMTD:wassert.obj
 0002:00003128       ??_C@_1FE@IIFBBPFI@?$AAw?$AAc?$AAs?$AAc?$AAa?$AAt?$AA_?$AAs?$AA?$CI?$AA?5?$AAa?$AAs?$AAs?$AAe?$AAr?$AAt?$AAb?$AAu?$AAf?$AA?0?$AA?5?$AA?$CI?$AA6?$AA0?$AA?5?$AA?$CK?$AA?5?$AA9?$AA?$CJ?$AA?0?$AA?5?$AAf@ 101a1128     LIBCMTD:wassert.obj
 0002:00003180       ??_C@_1IC@CFFJBMAD@?$AAw?$AAc?$AAs?$AAc?$AAa?$AAt?$AA_?$AAs?$AA?$CI?$AA?5?$AAa?$AAs?$AAs?$AAe?$AAr?$AAt?$AAb?$AAu?$AAf?$AA?0?$AA?5?$AA?$CI?$AA6?$AA0?$AA?5?$AA?$CK?$AA?5?$AA9?$AA?$CJ?$AA?0?$AA?5?$AAp@ 101a1180     LIBCMTD:wassert.obj
 0002:00003208       ??_C@_1HG@OJJMBIKO@?$AAw?$AAc?$AAs?$AAn?$AAc?$AAa?$AAt?$AA_?$AAs?$AA?$CI?$AA?5?$AAa?$AAs?$AAs?$AAe?$AAr?$AAt?$AAb?$AAu?$AAf?$AA?0?$AA?5?$AA?$CI?$AA6?$AA0?$AA?5?$AA?$CK?$AA?5?$AA9?$AA?$CJ?$AA?0?$AA?5@ 101a1208     LIBCMTD:wassert.obj
 0002:00003280       ??_C@_1GO@BIHLMMND@?$AAw?$AAc?$AAs?$AAn?$AAc?$AAa?$AAt?$AA_?$AAs?$AA?$CI?$AA?5?$AAa?$AAs?$AAs?$AAe?$AAr?$AAt?$AAb?$AAu?$AAf?$AA?0?$AA?5?$AA?$CI?$AA6?$AA0?$AA?5?$AA?$CK?$AA?5?$AA9?$AA?$CJ?$AA?0?$AA?5@ 101a1280     LIBCMTD:wassert.obj
 0002:000032f0       ??_C@_1FO@IJLLDBEB@?$AAw?$AAc?$AAs?$AAc?$AAa?$AAt?$AA_?$AAs?$AA?$CI?$AA?5?$AAa?$AAs?$AAs?$AAe?$AAr?$AAt?$AAb?$AAu?$AAf?$AA?0?$AA?5?$AA?$CI?$AA6?$AA0?$AA?5?$AA?$CK?$AA?5?$AA9?$AA?$CJ?$AA?0?$AA?5?$AAp@ 101a12f0     LIBCMTD:wassert.obj
 0002:00003350       ??_C@_1FG@CLEECKIJ@?$AAw?$AAc?$AAs?$AAc?$AAa?$AAt?$AA_?$AAs?$AA?$CI?$AA?5?$AAa?$AAs?$AAs?$AAe?$AAr?$AAt?$AAb?$AAu?$AAf?$AA?0?$AA?5?$AA?$CI?$AA6?$AA0?$AA?5?$AA?$CK?$AA?5?$AA9?$AA?$CJ?$AA?0?$AA?5?$AAd@ 101a1350     LIBCMTD:wassert.obj
 0002:000033a8       ??_C@_1GG@PMHOPJKA@?$AAw?$AAc?$AAs?$AAn?$AAc?$AAa?$AAt?$AA_?$AAs?$AA?$CI?$AA?5?$AAa?$AAs?$AAs?$AAe?$AAr?$AAt?$AAb?$AAu?$AAf?$AA?0?$AA?5?$AA?$CI?$AA6?$AA0?$AA?5?$AA?$CK?$AA?5?$AA9?$AA?$CJ?$AA?0?$AA?5@ 101a13a8     LIBCMTD:wassert.obj
 0002:00003410       ??_C@_1O@HEMHKNDC@?$AAF?$AAi?$AAl?$AAe?$AA?3?$AA?5?$AA?$AA@ 101a1410     LIBCMTD:wassert.obj
 0002:00003420       ??_C@_1FG@HIDBOJF@?$AAw?$AAc?$AAs?$AAc?$AAa?$AAt?$AA_?$AAs?$AA?$CI?$AA?5?$AAa?$AAs?$AAs?$AAe?$AAr?$AAt?$AAb?$AAu?$AAf?$AA?0?$AA?5?$AA?$CI?$AA6?$AA0?$AA?5?$AA?$CK?$AA?5?$AA9?$AA?$CJ?$AA?0?$AA?5?$AAL@ 101a1420     LIBCMTD:wassert.obj
 0002:00003478       ??_C@_1FC@FFKGGIKO@?$AAw?$AAc?$AAs?$AAc?$AAa?$AAt?$AA_?$AAs?$AA?$CI?$AA?5?$AAa?$AAs?$AAs?$AAe?$AAr?$AAt?$AAb?$AAu?$AAf?$AA?0?$AA?5?$AA?$CI?$AA6?$AA0?$AA?5?$AA?$CK?$AA?5?$AA9?$AA?$CJ?$AA?0?$AA?5?$AAn@ 101a1478     LIBCMTD:wassert.obj
 0002:000034d0       ??_C@_1EK@BDNABPEK@?$AAw?$AAc?$AAs?$AAc?$AAa?$AAt?$AA_?$AAs?$AA?$CI?$AA?5?$AAa?$AAs?$AAs?$AAe?$AAr?$AAt?$AAb?$AAu?$AAf?$AA?0?$AA?5?$AA?$CI?$AA6?$AA0?$AA?5?$AA?$CK?$AA?5?$AA9?$AA?$CJ?$AA?0?$AA?5?$AAp@ 101a14d0     LIBCMTD:wassert.obj
 0002:00003520       ??_C@_1HK@JKBDGMGN@?$AAw?$AAc?$AAs?$AAn?$AAc?$AAp?$AAy?$AA_?$AAs?$AA?$CI?$AA?5?$AAp?$AAc?$AAh?$AA?0?$AA?5?$AA?$CI?$AA2?$AA6?$AA0?$AA?5?$AA?$CL?$AA?5?$AA1?$AA?$CJ?$AA?5?$AA?9?$AA?5?$AA?$CI?$AAp?$AAc?$AAh@ 101a1520     LIBCMTD:wassert.obj
 0002:0000359c       ??_C@_1CO@EAEJAADC@?$AA?$DM?$AAp?$AAr?$AAo?$AAg?$AAr?$AAa?$AAm?$AA?5?$AAn?$AAa?$AAm?$AAe?$AA?5?$AAu?$AAn?$AAk?$AAn?$AAo?$AAw?$AAn?$AA?$DO?$AA?$AA@ 101a159c     LIBCMTD:wassert.obj
 0002:000035d0       ??_C@_1HA@EPFCONEE@?$AAw?$AAc?$AAs?$AAc?$AAp?$AAy?$AA_?$AAs?$AA?$CI?$AA?5?$AAp?$AAr?$AAo?$AAg?$AAn?$AAa?$AAm?$AAe?$AA?0?$AA?5?$AA2?$AA6?$AA0?$AA?5?$AA?$CL?$AA?5?$AA1?$AA?0?$AA?5?$AAL?$AA?$CC?$AA?$DM@ 101a15d0     LIBCMTD:wassert.obj
 0002:00003640       ??_C@_1BE@PHKBBGE@?$AAP?$AAr?$AAo?$AAg?$AAr?$AAa?$AAm?$AA?3?$AA?5?$AA?$AA@ 101a1640     LIBCMTD:wassert.obj
 0002:00003658       ??_C@_1FM@LKICECBD@?$AAw?$AAc?$AAs?$AAc?$AAa?$AAt?$AA_?$AAs?$AA?$CI?$AA?5?$AAa?$AAs?$AAs?$AAe?$AAr?$AAt?$AAb?$AAu?$AAf?$AA?0?$AA?5?$AA?$CI?$AA6?$AA0?$AA?5?$AA?$CK?$AA?5?$AA9?$AA?$CJ?$AA?0?$AA?5?$AAL@ 101a1658     LIBCMTD:wassert.obj
 0002:000036b8       ??_C@_1FI@JIGMFG@?$AAw?$AAc?$AAs?$AAc?$AAa?$AAt?$AA_?$AAs?$AA?$CI?$AA?5?$AAa?$AAs?$AAs?$AAe?$AAr?$AAt?$AAb?$AAu?$AAf?$AA?0?$AA?5?$AA?$CI?$AA6?$AA0?$AA?5?$AA?$CK?$AA?5?$AA9?$AA?$CJ?$AA?0?$AA?5?$AAd@ 101a16b8     LIBCMTD:wassert.obj
 0002:00003710       ??_C@_1CE@OJBNHDMO@?$AAA?$AAs?$AAs?$AAe?$AAr?$AAt?$AAi?$AAo?$AAn?$AA?5?$AAf?$AAa?$AAi?$AAl?$AAe?$AAd?$AA?$CB?$AA?$AA@ 101a1710     LIBCMTD:wassert.obj
 0002:00003738       ??_C@_1GM@EFCJNBAA@?$AAw?$AAc?$AAs?$AAc?$AAp?$AAy?$AA_?$AAs?$AA?$CI?$AA?5?$AAa?$AAs?$AAs?$AAe?$AAr?$AAt?$AAb?$AAu?$AAf?$AA?0?$AA?5?$AA?$CI?$AA6?$AA0?$AA?5?$AA?$CK?$AA?5?$AA9?$AA?$CJ?$AA?0?$AA?5?$AAL@ 101a1738     LIBCMTD:wassert.obj
 0002:000037a4       ??_C@_1BC@LNOOMFNA@?$AA_?$AAw?$AAa?$AAs?$AAs?$AAe?$AAr?$AAt?$AA?$AA@ 101a17a4     LIBCMTD:wassert.obj
 0002:000037b8       ??_C@_1GA@COEIABIF@?$AAf?$AA?3?$AA?2?$AAd?$AAd?$AA?2?$AAv?$AAc?$AAt?$AAo?$AAo?$AAl?$AAs?$AA?2?$AAc?$AAr?$AAt?$AA_?$AAb?$AAl?$AAd?$AA?2?$AAs?$AAe?$AAl?$AAf?$AA_?$AAx?$AA8?$AA6?$AA?2?$AAc@ 101a17b8     LIBCMTD:wassert.obj
 0002:00003818       ??_C@_1BI@DCHLDCPP@?$AAs?$AAr?$AAc?$AA?5?$AA?$CB?$AA?$DN?$AA?5?$AAN?$AAU?$AAL?$AAL?$AA?$AA@ 101a1818     LIBCMTD:stricmp.obj
 0002:00003830       ??_C@_1BG@GLLONOEH@?$AA_?$AAs?$AAt?$AAr?$AAi?$AAc?$AAm?$AAp?$AA_?$AAl?$AA?$AA@ 101a1830     LIBCMTD:stricmp.obj
 0002:00003848       ??_C@_1GC@OILHAOLL@?$AAf?$AA?3?$AA?2?$AAd?$AAd?$AA?2?$AAv?$AAc?$AAt?$AAo?$AAo?$AAl?$AAs?$AA?2?$AAc?$AAr?$AAt?$AA_?$AAb?$AAl?$AAd?$AA?2?$AAs?$AAe?$AAl?$AAf?$AA_?$AAx?$AA8?$AA6?$AA?2?$AAc@ 101a1848     LIBCMTD:stricmp.obj
 0002:000038ac       ??_C@_1BI@GKKCBDMD@?$AAd?$AAs?$AAt?$AA?5?$AA?$CB?$AA?$DN?$AA?5?$AAN?$AAU?$AAL?$AAL?$AA?$AA@ 101a18ac     LIBCMTD:stricmp.obj
 0002:000038c4       ??_C@_1BC@JLGKKIIG@?$AA_?$AAs?$AAt?$AAr?$AAi?$AAc?$AAm?$AAp?$AA?$AA@ 101a18c4     LIBCMTD:stricmp.obj
 0002:000038d8       __pRawDllMain              101a18d8     LIBCMTD:dllcrt0.obj
 0002:000038d8       __pDefaultRawDllMain       101a18d8     LIBCMTD:dllcrt0.obj
 0002:000038dc       ??_C@_0DB@OLNOAEGF@f?3?2dd?2vctools?2crt_bld?2self_x86?2c@ 101a18dc     LIBCMTD:dllcrt0.obj
 0002:00003910       ??_C@_1GE@KOCFNGPB@?$AA_?$AAc?$AAo?$AAn?$AAt?$AAr?$AAo?$AAl?$AAf?$AAp?$AA_?$AAs?$AA?$CI?$AA?$CI?$AA?$CI?$AAv?$AAo?$AAi?$AAd?$AA?5?$AA?$CK?$AA?$CJ?$AA0?$AA?$CJ?$AA?0?$AA?5?$AA0?$AAx?$AA0?$AA0?$AA0?$AA1@ 101a1910     LIBCMTD:fp8.obj
 0002:00003974       ??_C@_1CK@JMKHCBEI@?$AA_?$AAs?$AAe?$AAt?$AAd?$AAe?$AAf?$AAa?$AAu?$AAl?$AAt?$AAp?$AAr?$AAe?$AAc?$AAi?$AAs?$AAi?$AAo?$AAn?$AA?$AA@ 101a1974     LIBCMTD:fp8.obj
 0002:000039a0       ??_C@_1GG@PHGJJHBC@?$AAf?$AA?3?$AA?2?$AAd?$AAd?$AA?2?$AAv?$AAc?$AAt?$AAo?$AAo?$AAl?$AAs?$AA?2?$AAc?$AAr?$AAt?$AA_?$AAb?$AAl?$AAd?$AA?2?$AAs?$AAe?$AAl?$AAf?$AA_?$AAx?$AA8?$AA6?$AA?2?$AAc@ 101a19a0     LIBCMTD:fp8.obj
 0002:00003a08       __real@4150017ec0000000    101a1a08     LIBCMTD:_testfdiv_.obj
 0002:00003a10       __real@4147ffff80000000    101a1a10     LIBCMTD:_testfdiv_.obj
 0002:00003a18       ??_C@_0BK@NHEOCAHP@IsProcessorFeaturePresent?$AA@ 101a1a18     LIBCMTD:_testfdiv_.obj
 0002:00003a34       ??_C@_08CPNIBGIE@KERNEL32?$AA@ 101a1a34     LIBCMTD:_testfdiv_.obj
 0002:00003a40       ??_C@_1CA@CBMNPEO@?$AAs?$AAi?$AAz?$AAe?$AAI?$AAn?$AAB?$AAy?$AAt?$AAe?$AAs?$AA?5?$AA?$DO?$AA?5?$AA0?$AA?$AA@ 101a1a40     LIBCMTD:cvt.obj
 0002:00003a60       ??_C@_1BC@INKAPMHI@?$AA_?$AAc?$AAf?$AAt?$AAo?$AAe?$AA_?$AAl?$AA?$AA@ 101a1a60     LIBCMTD:cvt.obj
 0002:00003a78       ??_C@_1GO@NCCGBNKI@?$AAf?$AA?3?$AA?2?$AAd?$AAd?$AA?2?$AAv?$AAc?$AAt?$AAo?$AAo?$AAl?$AAs?$AA?2?$AAc?$AAr?$AAt?$AA_?$AAb?$AAl?$AAd?$AA?2?$AAs?$AAe?$AAl?$AAf?$AA_?$AAx?$AA8?$AA6?$AA?2?$AAc@ 101a1a78     LIBCMTD:cvt.obj
 0002:00003ae8       ??_C@_1BI@ICGGMGLK@?$AAb?$AAu?$AAf?$AA?5?$AA?$CB?$AA?$DN?$AA?5?$AAN?$AAU?$AAL?$AAL?$AA?$AA@ 101a1ae8     LIBCMTD:cvt.obj
 0002:00003b00       ??_C@_05KLBDPFGC@e?$CL000?$AA@ 101a1b00     LIBCMTD:cvt.obj
 0002:00003b08       ??_C@_1LE@EOIFGNCJ@?$AAs?$AAt?$AAr?$AAc?$AAp?$AAy?$AA_?$AAs?$AA?$CI?$AAp?$AA?0?$AA?5?$AA?$CI?$AAs?$AAi?$AAz?$AAe?$AAI?$AAn?$AAB?$AAy?$AAt?$AAe?$AAs?$AA?5?$AA?$DN?$AA?$DN?$AA?5?$AA?$CI?$AAs?$AAi?$AAz@ 101a1b08     LIBCMTD:cvt.obj
 0002:00003bc0       ??_C@_1HE@NACBNDPP@?$AAs?$AAi?$AAz?$AAe?$AAI?$AAn?$AAB?$AAy?$AAt?$AAe?$AAs?$AA?5?$AA?$DO?$AA?5?$AA?$CI?$AAs?$AAi?$AAz?$AAe?$AA_?$AAt?$AA?$CJ?$AA?$CI?$AA3?$AA?5?$AA?$CL?$AA?5?$AA?$CI?$AAn?$AAd?$AAe?$AAc@ 101a1bc0     LIBCMTD:cvt.obj
 0002:00003c34       ??_C@_1BE@OLBNEILL@?$AA_?$AAc?$AAf?$AAt?$AAo?$AAe?$AA2?$AA_?$AAl?$AA?$AA@ 101a1c34     LIBCMTD:cvt.obj
 0002:00003c48       ??_C@_1FC@IKIMAMJB@?$AAs?$AAi?$AAz?$AAe?$AAI?$AAn?$AAB?$AAy?$AAt?$AAe?$AAs?$AA?5?$AA?$DO?$AA?5?$AA?$CI?$AAs?$AAi?$AAz?$AAe?$AA_?$AAt?$AA?$CJ?$AA?$CI?$AA1?$AA?5?$AA?$CL?$AA?5?$AA4?$AA?5?$AA?$CL?$AA?5?$AAn@ 101a1c48     LIBCMTD:cvt.obj
 0002:00003c9c       ??_C@_1BC@JOKPCIC@?$AA_?$AAc?$AAf?$AAt?$AAo?$AAa?$AA_?$AAl?$AA?$AA@ 101a1c9c     LIBCMTD:cvt.obj
 0002:00003cb0       ??_C@_1BC@DCPPLJL@?$AA_?$AAc?$AAf?$AAt?$AAo?$AAf?$AA_?$AAl?$AA?$AA@ 101a1cb0     LIBCMTD:cvt.obj
 0002:00003cc4       ??_C@_1BE@CKPDLI@?$AA_?$AAc?$AAf?$AAt?$AAo?$AAf?$AA2?$AA_?$AAl?$AA?$AA@ 101a1cc4     LIBCMTD:cvt.obj
 0002:00003cd8       ??_C@_1BC@MPIFPLAF@?$AA_?$AAc?$AAf?$AAt?$AAo?$AAg?$AA_?$AAl?$AA?$AA@ 101a1cd8     LIBCMTD:cvt.obj
 0002:00003d60       ??_C@_03IIINPABG@tan?$AA@  101a1d60     LIBCMTD:_libm_error_.obj
 0002:00003d64       ??_C@_03LALBNOCG@cos?$AA@  101a1d64     LIBCMTD:_libm_error_.obj
 0002:00003d68       ??_C@_03BLEJJJBH@sin?$AA@  101a1d68     LIBCMTD:_libm_error_.obj
 0002:00003d6c       ??_C@_04EHEDPDJG@modf?$AA@ 101a1d6c     LIBCMTD:_libm_error_.obj
 0002:00003d74       ??_C@_05PBJFFIGL@floor?$AA@ 101a1d74     LIBCMTD:_libm_error_.obj
 0002:00003d7c       ??_C@_04GFPJNGEK@ceil?$AA@ 101a1d7c     LIBCMTD:_libm_error_.obj
 0002:00003d84       ??_C@_04MLLJIGOK@atan?$AA@ 101a1d84     LIBCMTD:_libm_error_.obj
 0002:00003d8c       ??_C@_05EOHGHCHD@exp10?$AA@ 101a1d8c     LIBCMTD:_libm_error_.obj
 0002:00003d94       ??_C@_04PDIFKINK@acos?$AA@ 101a1d94     LIBCMTD:_libm_error_.obj
 0002:00003d9c       ??_C@_04FIHNOPOL@asin?$AA@ 101a1d9c     LIBCMTD:_libm_error_.obj
 0002:00003da4       ??_C@_03JGHBODFD@pow?$AA@  101a1da4     LIBCMTD:_libm_error_.obj
 0002:00003da8       ??_C@_03KHJOGHMM@exp?$AA@  101a1da8     LIBCMTD:_libm_error_.obj
 0002:00003dac       ??_C@_05HGHHAHAP@log10?$AA@ 101a1dac     LIBCMTD:_libm_error_.obj
 0002:00003db4       ??_C@_03MGHMBJCF@log?$AA@  101a1db4     LIBCMTD:_libm_error_.obj
 0002:00003db8       ??_C@_0O@NLDKAIKN@EncodePointer?$AA@ 101a1db8     LIBCMTD:tidtable.obj
 0002:00003dc8       ??_C@_1BK@DBDEIDLH@?$AAK?$AAE?$AAR?$AAN?$AAE?$AAL?$AA3?$AA2?$AA?4?$AAD?$AAL?$AAL?$AA?$AA@ 101a1dc8     LIBCMTD:tidtable.obj
 0002:00003de4       ??_C@_0O@KBPMFGHI@DecodePointer?$AA@ 101a1de4     LIBCMTD:tidtable.obj
 0002:00003df4       ??_C@_0DC@LMJHGCKC@f?3?2dd?2vctools?2crt_bld?2self_x86?2c@ 101a1df4     LIBCMTD:tidtable.obj
 0002:00003e28       ??_C@_07PEJMOBNF@FlsFree?$AA@ 101a1e28     LIBCMTD:tidtable.obj
 0002:00003e30       ??_C@_0M@JCPCPOEF@FlsSetValue?$AA@ 101a1e30     LIBCMTD:tidtable.obj
 0002:00003e3c       ??_C@_0M@GDNOONDI@FlsGetValue?$AA@ 101a1e3c     LIBCMTD:tidtable.obj
 0002:00003e48       ??_C@_08KNHFBNJ@FlsAlloc?$AA@ 101a1e48     LIBCMTD:tidtable.obj
 0002:00004c38       __DEFAULT_CW_in_mem        101a2c38     LIBCMTD:_common_.obj
 0002:00004c3a       __pi_by_2_to_61            101a2c3a     LIBCMTD:_common_.obj
 0002:00005530       ??_C@_06PJIGMIJB@Client?$AA@ 101a3530     LIBCMTD:dbgheap.obj
 0002:00005538       ??_C@_06KMEJCCGM@Ignore?$AA@ 101a3538     LIBCMTD:dbgheap.obj
 0002:00005540       ??_C@_03OGPFLFLO@CRT?$AA@  101a3540     LIBCMTD:dbgheap.obj
 0002:00005544       ??_C@_06EFAGIKOH@Normal?$AA@ 101a3544     LIBCMTD:dbgheap.obj
 0002:0000554c       ??_C@_04HJMOFLDF@Free?$AA@ 101a354c     LIBCMTD:dbgheap.obj
 0002:00005568       ??_C@_0DC@JEMAGEKG@Error?3?5memory?5allocation?3?5bad?5me@ 101a3568     LIBCMTD:dbgheap.obj
 0002:0000559c       ??_C@_0CF@BICKFLAF@Invalid?5allocation?5size?3?5?$CFIu?5byt@ 101a359c     LIBCMTD:dbgheap.obj
 0002:000055c4       ??_C@_02DKCKIIND@?$CFs?$AA@ 101a35c4     LIBCMTD:dbgheap.obj
 0002:000055c8       ??_C@_0CB@CCLOLAHO@Client?5hook?5allocation?5failure?4?6@ 101a35c8     LIBCMTD:dbgheap.obj
 0002:000055ec       ??_C@_0DF@BBEGIFEK@Client?5hook?5allocation?5failure?5a@ 101a35ec     LIBCMTD:dbgheap.obj
 0002:00005628       ??_C@_1GC@DNJKKEAA@?$AAf?$AA?3?$AA?2?$AAd?$AAd?$AA?2?$AAv?$AAc?$AAt?$AAo?$AAo?$AAl?$AAs?$AA?2?$AAc?$AAr?$AAt?$AA_?$AAb?$AAl?$AAd?$AA?2?$AAs?$AAe?$AAl?$AAf?$AA_?$AAx?$AA8?$AA6?$AA?2?$AAc@ 101a3628     LIBCMTD:dbgheap.obj
 0002:0000568c       ??_C@_1CE@LJFEPPMP@?$AA_?$AAC?$AAr?$AAt?$AAC?$AAh?$AAe?$AAc?$AAk?$AAM?$AAe?$AAm?$AAo?$AAr?$AAy?$AA?$CI?$AA?$CJ?$AA?$AA@ 101a368c     LIBCMTD:dbgheap.obj
 0002:000056b0       ??_C@_1CC@CKBDKDFF@?$AA_?$AAc?$AAa?$AAl?$AAl?$AAo?$AAc?$AA_?$AAd?$AAb?$AAg?$AA_?$AAi?$AAm?$AAp?$AAl?$AA?$AA@ 101a36b0     LIBCMTD:dbgheap.obj
 0002:000056d4       ??_C@_1DO@MEOGCGBN@?$AA?$CI?$AA_?$AAH?$AAE?$AAA?$AAP?$AA_?$AAM?$AAA?$AAX?$AAR?$AAE?$AAQ?$AA?5?$AA?1?$AA?5?$AAn?$AAN?$AAu?$AAm?$AA?$CJ?$AA?5?$AA?$DO?$AA?$DN?$AA?5?$AAn?$AAS?$AAi?$AAz?$AAe?$AA?$AA@ 101a36d4     LIBCMTD:dbgheap.obj
 0002:00005714       ??_C@_1DE@KOOKLFBB@?$AA_?$AAp?$AAF?$AAi?$AAr?$AAs?$AAt?$AAB?$AAl?$AAo?$AAc?$AAk?$AA?5?$AA?$DN?$AA?$DN?$AA?5?$AAp?$AAO?$AAl?$AAd?$AAB?$AAl?$AAo?$AAc?$AAk?$AA?$AA@ 101a3714     LIBCMTD:dbgheap.obj
 0002:00005748       ??_C@_1DC@GEFKNOOL@?$AA_?$AAp?$AAL?$AAa?$AAs?$AAt?$AAB?$AAl?$AAo?$AAc?$AAk?$AA?5?$AA?$DN?$AA?$DN?$AA?5?$AAp?$AAO?$AAl?$AAd?$AAB?$AAl?$AAo?$AAc?$AAk?$AA?$AA@ 101a3748     LIBCMTD:dbgheap.obj
 0002:00005780       ??_C@_1GE@PCKLOLAO@?$AAf?$AAR?$AAe?$AAa?$AAl?$AAl?$AAo?$AAc?$AA?5?$AA?$HM?$AA?$HM?$AA?5?$AA?$CI?$AA?$CB?$AAf?$AAR?$AAe?$AAa?$AAl?$AAl?$AAo?$AAc?$AA?5?$AA?$CG?$AA?$CG?$AA?5?$AAp?$AAN?$AAe?$AAw?$AAB?$AAl@ 101a3780     LIBCMTD:dbgheap.obj
 0002:000057e4       ??_C@_0DA@HFBKENN@Error?3?5possible?5heap?5corruption?5@ 101a37e4     LIBCMTD:dbgheap.obj
 0002:00005818       ??_C@_1IK@DCPKDGNH@?$AAp?$AAO?$AAl?$AAd?$AAB?$AAl?$AAo?$AAc?$AAk?$AA?9?$AA?$DO?$AAn?$AAL?$AAi?$AAn?$AAe?$AA?5?$AA?$DN?$AA?$DN?$AA?5?$AAI?$AAG?$AAN?$AAO?$AAR?$AAE?$AA_?$AAL?$AAI?$AAN?$AAE?$AA?5@ 101a3818     LIBCMTD:dbgheap.obj
 0002:000058a8       ??_C@_1EE@GFOPCECE@?$AA_?$AAC?$AAr?$AAt?$AAI?$AAs?$AAV?$AAa?$AAl?$AAi?$AAd?$AAH?$AAe?$AAa?$AAp?$AAP?$AAo?$AAi?$AAn?$AAt?$AAe?$AAr?$AA?$CI?$AAp?$AAU?$AAs?$AAe?$AAr?$AAD?$AAa?$AAt?$AAa@ 101a38a8     LIBCMTD:dbgheap.obj
 0002:000058f0       ??_C@_0EM@LGFLMAGJ@The?5Block?5at?50x?$CFp?5was?5allocated?5@ 101a38f0     LIBCMTD:dbgheap.obj
 0002:00005940       ??_C@_0FA@EFEIGJKG@Error?3?5memory?5allocation?3?5bad?5me@ 101a3940     LIBCMTD:dbgheap.obj
 0002:00005990       ??_C@_0ED@GPCPBAGP@Invalid?5allocation?5size?3?5?$CFIu?5byt@ 101a3990     LIBCMTD:dbgheap.obj
 0002:000059d4       ??_C@_0CE@DOFMDOL@Client?5hook?5re?9allocation?5failur@ 101a39d4     LIBCMTD:dbgheap.obj
 0002:000059f8       ??_C@_0DI@KKJPDPGM@Client?5hook?5re?9allocation?5failur@ 101a39f8     LIBCMTD:dbgheap.obj
 0002:00005a30       ??_C@_1BM@OKFKJCEN@?$AA_?$AAr?$AAe?$AAc?$AAa?$AAl?$AAl?$AAo?$AAc?$AA_?$AAd?$AAb?$AAg?$AA?$AA@ 101a3a30     LIBCMTD:dbgheap.obj
 0002:00005a4c       ??_C@_1DO@GOKJCEHJ@?$AA?$CI?$AA_?$AAH?$AAE?$AAA?$AAP?$AA_?$AAM?$AAA?$AAX?$AAR?$AAE?$AAQ?$AA?5?$AA?1?$AA?5?$AAc?$AAo?$AAu?$AAn?$AAt?$AA?$CJ?$AA?5?$AA?$DO?$AA?$DN?$AA?5?$AAs?$AAi?$AAz?$AAe?$AA?$AA@ 101a3a4c     LIBCMTD:dbgheap.obj
 0002:00005a8c       ??_C@_1BI@HAPNGHDP@?$AA_?$AAe?$AAx?$AAp?$AAa?$AAn?$AAd?$AA_?$AAd?$AAb?$AAg?$AA?$AA@ 101a3a8c     LIBCMTD:dbgheap.obj
 0002:00005aa4       ??_C@_1CE@CJACEFBA@?$AAp?$AAU?$AAs?$AAe?$AAr?$AAD?$AAa?$AAt?$AAa?$AA?5?$AA?$CB?$AA?$DN?$AA?5?$AAN?$AAU?$AAL?$AAL?$AA?$AA@ 101a3aa4     LIBCMTD:dbgheap.obj
 0002:00005ac8       ??_C@_1CM@MMAADDMD@?$AA_?$AAp?$AAF?$AAi?$AAr?$AAs?$AAt?$AAB?$AAl?$AAo?$AAc?$AAk?$AA?5?$AA?$DN?$AA?$DN?$AA?5?$AAp?$AAH?$AAe?$AAa?$AAd?$AA?$AA@ 101a3ac8     LIBCMTD:dbgheap.obj
 0002:00005af4       ??_C@_1CK@DMAGEMBG@?$AA_?$AAp?$AAL?$AAa?$AAs?$AAt?$AAB?$AAl?$AAo?$AAc?$AAk?$AA?5?$AA?$DN?$AA?$DN?$AA?5?$AAp?$AAH?$AAe?$AAa?$AAd?$AA?$AA@ 101a3af4     LIBCMTD:dbgheap.obj
 0002:00005b20       ??_C@_1DM@ODCJIDCP@?$AAp?$AAH?$AAe?$AAa?$AAd?$AA?9?$AA?$DO?$AAn?$AAB?$AAl?$AAo?$AAc?$AAk?$AAU?$AAs?$AAe?$AA?5?$AA?$DN?$AA?$DN?$AA?5?$AAn?$AAB?$AAl?$AAo?$AAc?$AAk?$AAU?$AAs?$AAe?$AA?$AA@ 101a3b20     LIBCMTD:dbgheap.obj
 0002:00005b60       ??_C@_1HK@HPCBMDFG@?$AAp?$AAH?$AAe?$AAa?$AAd?$AA?9?$AA?$DO?$AAn?$AAL?$AAi?$AAn?$AAe?$AA?5?$AA?$DN?$AA?$DN?$AA?5?$AAI?$AAG?$AAN?$AAO?$AAR?$AAE?$AA_?$AAL?$AAI?$AAN?$AAE?$AA?5?$AA?$CG?$AA?$CG?$AA?5?$AAp@ 101a3b60     LIBCMTD:dbgheap.obj
 0002:00005be0       ??_C@_0IG@LEMBDCJK@HEAP?5CORRUPTION?5DETECTED?3?5after?5@ 101a3be0     LIBCMTD:dbgheap.obj
 0002:00005c68       ??_C@_0KE@MBMNHHHN@HEAP?5CORRUPTION?5DETECTED?3?5after?5@ 101a3c68     LIBCMTD:dbgheap.obj
 0002:00005d10       ??_C@_0IK@PJCGLBOB@HEAP?5CORRUPTION?5DETECTED?3?5before@ 101a3d10     LIBCMTD:dbgheap.obj
 0002:00005da0       ??_C@_0KI@JGFOHMEB@HEAP?5CORRUPTION?5DETECTED?3?5before@ 101a3da0     LIBCMTD:dbgheap.obj
 0002:00005e48       ??_C@_1EO@LHDAJOCM@?$AA_?$AAB?$AAL?$AAO?$AAC?$AAK?$AA_?$AAT?$AAY?$AAP?$AAE?$AA_?$AAI?$AAS?$AA_?$AAV?$AAA?$AAL?$AAI?$AAD?$AA?$CI?$AAp?$AAH?$AAe?$AAa?$AAd?$AA?9?$AA?$DO?$AAn?$AAB?$AAl?$AAo@ 101a3e48     LIBCMTD:dbgheap.obj
 0002:00005e98       ??_C@_0BL@KEIPLFAC@Client?5hook?5free?5failure?4?6?$AA@ 101a3e98     LIBCMTD:dbgheap.obj
 0002:00005eb8       ??_C@_0EJ@HEIBCIMJ@The?5Block?5at?50x?$CFp?5was?5allocated?5@ 101a3eb8     LIBCMTD:dbgheap.obj
 0002:00005f04       ??_C@_1BG@MBKOGDLD@?$AA_?$AAm?$AAs?$AAi?$AAz?$AAe?$AA_?$AAd?$AAb?$AAg?$AA?$AA@ 101a3f04     LIBCMTD:dbgheap.obj
 0002:00005f1c       ??_C@_0CI@JMLBEDHJ@?$CFhs?5located?5at?50x?$CFp?5is?5?$CFIu?5bytes@ 101a3f1c     LIBCMTD:dbgheap.obj
 0002:00005f48       ??_C@_0EG@DGJMPDBH@?$CFhs?5located?5at?50x?$CFp?5is?5?$CFIu?5bytes@ 101a3f48     LIBCMTD:dbgheap.obj
 0002:00005f90       ??_C@_0IC@BBJIOOJH@HEAP?5CORRUPTION?5DETECTED?3?5on?5top@ 101a3f90     LIBCMTD:dbgheap.obj
 0002:00006018       ??_C@_0KA@IHNJJKPL@HEAP?5CORRUPTION?5DETECTED?3?5on?5top@ 101a4018     LIBCMTD:dbgheap.obj
 0002:000060b8       ??_C@_07OHKEFPKJ@DAMAGED?$AA@ 101a40b8     LIBCMTD:dbgheap.obj
 0002:000060c0       ??_C@_0CL@HNNNMKMJ@_heapchk?5fails?5with?5unknown?5retu@ 101a40c0     LIBCMTD:dbgheap.obj
 0002:000060ec       ??_C@_0CC@MFFCHFHO@_heapchk?5fails?5with?5_HEAPBADPTR?4@ 101a40ec     LIBCMTD:dbgheap.obj
 0002:00006110       ??_C@_0CC@MJGLGBDG@_heapchk?5fails?5with?5_HEAPBADEND?4@ 101a4110     LIBCMTD:dbgheap.obj
 0002:00006134       ??_C@_0CD@CPKEAPBD@_heapchk?5fails?5with?5_HEAPBADNODE@ 101a4134     LIBCMTD:dbgheap.obj
 0002:00006158       ??_C@_0CE@MKKHMBMK@_heapchk?5fails?5with?5_HEAPBADBEGI@ 101a4158     LIBCMTD:dbgheap.obj
 0002:0000617c       ??_C@_1BO@GJFDNMNF@?$AA_?$AAC?$AAr?$AAt?$AAS?$AAe?$AAt?$AAD?$AAb?$AAg?$AAF?$AAl?$AAa?$AAg?$AA?$AA@ 101a417c     LIBCMTD:dbgheap.obj
 0002:000061a0       ??_C@_1BHO@NNANJNF@?$AA?$CI?$AAf?$AAN?$AAe?$AAw?$AAB?$AAi?$AAt?$AAs?$AA?$DN?$AA?$DN?$AA_?$AAC?$AAR?$AAT?$AAD?$AAB?$AAG?$AA_?$AAR?$AAE?$AAP?$AAO?$AAR?$AAT?$AA_?$AAF?$AAL?$AAA?$AAG?$AA?$CJ?$AA?5@ 101a41a0     LIBCMTD:dbgheap.obj
 0002:00006320       ??_C@_1DE@GJCKCKEC@?$AA_?$AAC?$AAr?$AAt?$AAD?$AAo?$AAF?$AAo?$AAr?$AAA?$AAl?$AAl?$AAC?$AAl?$AAi?$AAe?$AAn?$AAt?$AAO?$AAb?$AAj?$AAe?$AAc?$AAt?$AAs?$AA?$AA@ 101a4320     LIBCMTD:dbgheap.obj
 0002:00006354       ??_C@_1BI@CJGCEEDL@?$AAp?$AAf?$AAn?$AA?5?$AA?$CB?$AA?$DN?$AA?5?$AAN?$AAU?$AAL?$AAL?$AA?$AA@ 101a4354     LIBCMTD:dbgheap.obj
 0002:0000636c       ??_C@_0CB@EAAIGELO@Bad?5memory?5block?5found?5at?50x?$CFp?4?6@ 101a436c     LIBCMTD:dbgheap.obj
 0002:00006390       ??_C@_0DP@LEFMFBOD@Bad?5memory?5block?5found?5at?50x?$CFp?4?6@ 101a4390     LIBCMTD:dbgheap.obj
 0002:000063d0       ??_C@_1CE@NJJKELF@?$AA_?$AAC?$AAr?$AAt?$AAM?$AAe?$AAm?$AAC?$AAh?$AAe?$AAc?$AAk?$AAp?$AAo?$AAi?$AAn?$AAt?$AA?$AA@ 101a43d0     LIBCMTD:dbgheap.obj
 0002:000063f4       ??_C@_1BM@MIMANDHC@?$AAs?$AAt?$AAa?$AAt?$AAe?$AA?5?$AA?$CB?$AA?$DN?$AA?5?$AAN?$AAU?$AAL?$AAL?$AA?$AA@ 101a43f4     LIBCMTD:dbgheap.obj
 0002:00006410       ??_C@_1CC@DFPEDFBP@?$AAn?$AAe?$AAw?$AAS?$AAt?$AAa?$AAt?$AAe?$AA?5?$AA?$CB?$AA?$DN?$AA?5?$AAN?$AAU?$AAL?$AAL?$AA?$AA@ 101a4410     LIBCMTD:dbgheap.obj
 0002:00006434       ??_C@_1CC@DHPFEMMN@?$AAo?$AAl?$AAd?$AAS?$AAt?$AAa?$AAt?$AAe?$AA?5?$AA?$CB?$AA?$DN?$AA?5?$AAN?$AAU?$AAL?$AAL?$AA?$AA@ 101a4434     LIBCMTD:dbgheap.obj
 0002:00006458       ??_C@_1CE@PDIENACM@?$AA_?$AAC?$AAr?$AAt?$AAM?$AAe?$AAm?$AAD?$AAi?$AAf?$AAf?$AAe?$AAr?$AAe?$AAn?$AAc?$AAe?$AA?$AA@ 101a4458     LIBCMTD:dbgheap.obj
 0002:0000647c       ??_C@_0BH@GFGKJDCO@Object?5dump?5complete?4?6?$AA@ 101a447c     LIBCMTD:dbgheap.obj
 0002:00006494       ??_C@_0DA@MDLBNIBM@crt?5block?5at?50x?$CFp?0?5subtype?5?$CFx?0?5?$CF@ 101a4494     LIBCMTD:dbgheap.obj
 0002:000064c4       ??_C@_0CH@FAGDDGPN@normal?5block?5at?50x?$CFp?0?5?$CFIu?5bytes?5@ 101a44c4     LIBCMTD:dbgheap.obj
 0002:000064ec       ??_C@_0DD@GHNAAKBB@client?5block?5at?50x?$CFp?0?5subtype?5?$CFx@ 101a44ec     LIBCMTD:dbgheap.obj
 0002:00006520       ??_C@_06PKLGBFGM@?$HL?$CFld?$HN?5?$AA@ 101a4520     LIBCMTD:dbgheap.obj
 0002:00006528       ??_C@_0L@JMEFFCCJ@?$CFhs?$CI?$CFd?$CJ?5?3?5?$AA@ 101a4528     LIBCMTD:dbgheap.obj
 0002:00006534       ??_C@_0BE@OIEFNFL@?$CDFile?5Error?$CD?$CI?$CFd?$CJ?5?3?5?$AA@ 101a4534     LIBCMTD:dbgheap.obj
 0002:00006548       ??_C@_0BE@KCIPKCIA@Dumping?5objects?5?9?$DO?6?$AA@ 101a4548     LIBCMTD:dbgheap.obj
 0002:0000655c       ??_C@_0BA@HJBKCELP@?5Data?3?5?$DM?$CFs?$DO?5?$CFs?6?$AA@ 101a455c     LIBCMTD:dbgheap.obj
 0002:0000656c       ??_C@_1BI@KALLJECN@?$AA?$CI?$AA?$CK?$AA_?$AAe?$AAr?$AAr?$AAn?$AAo?$AA?$CI?$AA?$CJ?$AA?$CJ?$AA?$AA@ 101a456c     LIBCMTD:dbgheap.obj
 0002:00006584       ??_C@_1CG@LPFIACGM@?$AA_?$AAp?$AAr?$AAi?$AAn?$AAt?$AAM?$AAe?$AAm?$AAB?$AAl?$AAo?$AAc?$AAk?$AAD?$AAa?$AAt?$AAa?$AA?$AA@ 101a4584     LIBCMTD:dbgheap.obj
 0002:000065ac       ??_C@_05MKKEDADM@?$CF?42X?5?$AA@ 101a45ac     LIBCMTD:dbgheap.obj
 0002:000065b4       ??_C@_0BI@JBFPOEJA@Detected?5memory?5leaks?$CB?6?$AA@ 101a45b4     LIBCMTD:dbgheap.obj
 0002:000065cc       ??_C@_0BP@DEDHGGGI@Total?5allocations?3?5?$CFId?5bytes?4?6?$AA@ 101a45cc     LIBCMTD:dbgheap.obj
 0002:000065ec       ??_C@_0CB@BLHDAFNE@Largest?5number?5used?3?5?$CFId?5bytes?4?6@ 101a45ec     LIBCMTD:dbgheap.obj
 0002:00006610       ??_C@_0BO@DACNIABB@?$CFId?5bytes?5in?5?$CFId?5?$CFhs?5Blocks?4?6?$AA@ 101a4610     LIBCMTD:dbgheap.obj
 0002:00006630       ??_C@_1CM@MPNIBKGK@?$AA_?$AAC?$AAr?$AAt?$AAM?$AAe?$AAm?$AAD?$AAu?$AAm?$AAp?$AAS?$AAt?$AAa?$AAt?$AAi?$AAs?$AAt?$AAi?$AAc?$AAs?$AA?$AA@ 101a4630     LIBCMTD:dbgheap.obj
 0002:0000665c       ??_C@_1DK@LFLKFPDA@?$AAo?$AAf?$AAf?$AAs?$AAe?$AAt?$AA?5?$AA?$DN?$AA?$DN?$AA?5?$AA0?$AA?5?$AA?$HM?$AA?$HM?$AA?5?$AAo?$AAf?$AAf?$AAs?$AAe?$AAt?$AA?5?$AA?$DM?$AA?5?$AAs?$AAi?$AAz?$AAe?$AA?$AA@ 101a465c     LIBCMTD:dbgheap.obj
 0002:00006698       ??_C@_1DG@DONCJBBJ@?$AA_?$AAa?$AAl?$AAi?$AAg?$AAn?$AAe?$AAd?$AA_?$AAo?$AAf?$AAf?$AAs?$AAe?$AAt?$AA_?$AAm?$AAa?$AAl?$AAl?$AAo?$AAc?$AA_?$AAd?$AAb?$AAg?$AA?$AA@ 101a4698     LIBCMTD:dbgheap.obj
 0002:000066d0       ??_C@_1CE@NPMGPNNP@?$AAI?$AAS?$AA_?$AA2?$AA_?$AAP?$AAO?$AAW?$AA_?$AAN?$AA?$CI?$AAa?$AAl?$AAi?$AAg?$AAn?$AA?$CJ?$AA?$AA@ 101a46d0     LIBCMTD:dbgheap.obj
 0002:000066f4       ??_C@_1DI@NINIKFFK@?$AA_?$AAa?$AAl?$AAi?$AAg?$AAn?$AAe?$AAd?$AA_?$AAo?$AAf?$AAf?$AAs?$AAe?$AAt?$AA_?$AAr?$AAe?$AAa?$AAl?$AAl?$AAo?$AAc?$AA_?$AAd?$AAb?$AAg?$AA?$AA@ 101a46f4     LIBCMTD:dbgheap.obj
 0002:0000672c       ??_C@_0DL@PGHMMKNE@Damage?5before?50x?$CFp?5which?5was?5all@ 101a472c     LIBCMTD:dbgheap.obj
 0002:00006768       ??_C@_0EI@NDNJMAJK@The?5block?5at?50x?$CFp?5was?5not?5alloca@ 101a4768     LIBCMTD:dbgheap.obj
 0002:000067b0       ??_C@_1DK@MMLHIFFH@?$AA_?$AAa?$AAl?$AAi?$AAg?$AAn?$AAe?$AAd?$AA_?$AAo?$AAf?$AAf?$AAs?$AAe?$AAt?$AA_?$AAr?$AAe?$AAc?$AAa?$AAl?$AAl?$AAo?$AAc?$AA_?$AAd?$AAb?$AAg?$AA?$AA@ 101a47b0     LIBCMTD:dbgheap.obj
 0002:000067f0       ??_C@_0EF@PGELACII@The?5block?5at?50x?$CFp?5was?5not?5alloca@ 101a47f0     LIBCMTD:dbgheap.obj
 0002:00006838       ??_C@_1CG@CEGMHIMN@?$AA_?$AAa?$AAl?$AAi?$AAg?$AAn?$AAe?$AAd?$AA_?$AAm?$AAs?$AAi?$AAz?$AAe?$AA_?$AAd?$AAb?$AAg?$AA?$AA@ 101a4838     LIBCMTD:dbgheap.obj
 0002:00006860       ??_C@_1CC@MOBIKHH@?$AAm?$AAe?$AAm?$AAb?$AAl?$AAo?$AAc?$AAk?$AA?5?$AA?$CB?$AA?$DN?$AA?5?$AAN?$AAU?$AAL?$AAL?$AA?$AA@ 101a4860     LIBCMTD:dbgheap.obj
 0002:00006888       ??_C@_1FE@CEHLKAHD@?$AAi?$AAb?$AAa?$AAs?$AAe?$AA?5?$AA?$DN?$AA?$DN?$AA?5?$AA0?$AA?5?$AA?$HM?$AA?$HM?$AA?5?$AA?$CI?$AA2?$AA?5?$AA?$DM?$AA?$DN?$AA?5?$AAi?$AAb?$AAa?$AAs?$AAe?$AA?5?$AA?$CG?$AA?$CG?$AA?5?$AAi?$AAb?$AAa@ 101a4888     LIBCMTD:strtol.obj
 0002:000068dc       ??_C@_1BA@LOLAMAJG@?$AAs?$AAt?$AAr?$AAt?$AAo?$AAx?$AAl?$AA?$AA@ 101a48dc     LIBCMTD:strtol.obj
 0002:000068f0       ??_C@_1GA@IPHKKOEI@?$AAf?$AA?3?$AA?2?$AAd?$AAd?$AA?2?$AAv?$AAc?$AAt?$AAo?$AAo?$AAl?$AAs?$AA?2?$AAc?$AAr?$AAt?$AA_?$AAb?$AAl?$AAd?$AA?2?$AAs?$AAe?$AAl?$AAf?$AA_?$AAx?$AA8?$AA6?$AA?2?$AAc@ 101a48f0     LIBCMTD:strtol.obj
 0002:00006950       ??_C@_1BA@BMMDEPNE@?$AAs?$AAt?$AAr?$AAt?$AAo?$AAx?$AAq?$AA?$AA@ 101a4950     LIBCMTD:strtoq.obj
 0002:00006960       ??_C@_1GA@GIMEIKLC@?$AAf?$AA?3?$AA?2?$AAd?$AAd?$AA?2?$AAv?$AAc?$AAt?$AAo?$AAo?$AAl?$AAs?$AA?2?$AAc?$AAr?$AAt?$AA_?$AAb?$AAl?$AAd?$AA?2?$AAs?$AAe?$AAl?$AAf?$AA_?$AAx?$AA8?$AA6?$AA?2?$AAc@ 101a4960     LIBCMTD:strtoq.obj
 0002:000069c0       ??_C@_1BG@KCMPBBDK@?$AA_?$AAg?$AAe?$AAt?$AA_?$AAe?$AAr?$AAr?$AAn?$AAo?$AA?$AA@ 101a49c0     LIBCMTD:dosmap.obj
 0002:000069d8       ??_C@_1GA@MFGIMPNL@?$AAf?$AA?3?$AA?2?$AAd?$AAd?$AA?2?$AAv?$AAc?$AAt?$AAo?$AAo?$AAl?$AAs?$AA?2?$AAc?$AAr?$AAt?$AA_?$AAb?$AAl?$AAd?$AA?2?$AAs?$AAe?$AAl?$AAf?$AA_?$AAx?$AA8?$AA6?$AA?2?$AAc@ 101a49d8     LIBCMTD:dosmap.obj
 0002:00006a38       ??_C@_1BO@LKEBEKJP@?$AAp?$AAV?$AAa?$AAl?$AAu?$AAe?$AA?5?$AA?$CB?$AA?$DN?$AA?5?$AAN?$AAU?$AAL?$AAL?$AA?$AA@ 101a4a38     LIBCMTD:dosmap.obj
 0002:00006a58       ??_C@_1BM@INIPHHDD@?$AA_?$AAg?$AAe?$AAt?$AA_?$AAd?$AAo?$AAs?$AAe?$AAr?$AAr?$AAn?$AAo?$AA?$AA@ 101a4a58     LIBCMTD:dosmap.obj
 0002:00006a74       ??_C@_1CC@CGHMNGDG@?$AAA?$AAs?$AAs?$AAe?$AAr?$AAt?$AAi?$AAo?$AAn?$AA?5?$AAF?$AAa?$AAi?$AAl?$AAe?$AAd?$AA?$AA@ 101a4a74     LIBCMTD:dbgrptw.obj
 0002:00006a98       ??_C@_1M@ILHOPKA@?$AAE?$AAr?$AAr?$AAo?$AAr?$AA?$AA@ 101a4a98     LIBCMTD:dbgrptw.obj
 0002:00006aa4       ??_C@_1BA@GLMCNLEM@?$AAW?$AAa?$AAr?$AAn?$AAi?$AAn?$AAg?$AA?$AA@ 101a4aa4     LIBCMTD:dbgrptw.obj
 0002:00006ac0       ??_C@_0DA@PCCBBBID@f?3?2dd?2vctools?2crt_bld?2self_x86?2c@ 101a4ac0     LIBCMTD:dbgrptw.obj
 0002:00006af0       ??_C@_1FI@PHIAFFHM@?$AA?$CI?$AA?$CC?$AAT?$AAh?$AAe?$AA?5?$AAh?$AAo?$AAo?$AAk?$AA?5?$AAf?$AAu?$AAn?$AAc?$AAt?$AAi?$AAo?$AAn?$AA?5?$AAi?$AAs?$AA?5?$AAn?$AAo?$AAt?$AA?5?$AAi?$AAn?$AA?5?$AAt?$AAh@ 101a4af0     LIBCMTD:dbgrptw.obj
 0002:00006b48       ??_C@_1CG@JBJEFOCM@?$AAp?$AAf?$AAn?$AAN?$AAe?$AAw?$AAH?$AAo?$AAo?$AAk?$AA?5?$AA?$CB?$AA?$DN?$AA?5?$AAN?$AAU?$AAL?$AAL?$AA?$AA@ 101a4b48     LIBCMTD:dbgrptw.obj
 0002:00006b70       ??_C@_1CI@IIHEAKEI@?$AA_?$AAC?$AAr?$AAt?$AAS?$AAe?$AAt?$AAR?$AAe?$AAp?$AAo?$AAr?$AAt?$AAH?$AAo?$AAo?$AAk?$AAW?$AA2?$AA?$AA@ 101a4b70     LIBCMTD:dbgrptw.obj
 0002:00006b98       ??_C@_1GA@IBJGKIFE@?$AAf?$AA?3?$AA?2?$AAd?$AAd?$AA?2?$AAv?$AAc?$AAt?$AAo?$AAo?$AAl?$AAs?$AA?2?$AAc?$AAr?$AAt?$AA_?$AAb?$AAl?$AAd?$AA?2?$AAs?$AAe?$AAl?$AAf?$AA_?$AAx?$AA8?$AA6?$AA?2?$AAc@ 101a4b98     LIBCMTD:dbgrptw.obj
 0002:00006bf8       ??_C@_1HI@OFEHGPPC@?$AAm?$AAo?$AAd?$AAe?$AA?5?$AA?$DN?$AA?$DN?$AA?5?$AA_?$AAC?$AAR?$AAT?$AA_?$AAR?$AAP?$AAT?$AAH?$AAO?$AAO?$AAK?$AA_?$AAI?$AAN?$AAS?$AAT?$AAA?$AAL?$AAL?$AA?5?$AA?$HM?$AA?$HM?$AA?5@ 101a4bf8     LIBCMTD:dbgrptw.obj
 0002:00006c70       ??_C@_1EG@PEOEAKBB@?$AAM?$AAi?$AAc?$AAr?$AAo?$AAs?$AAo?$AAf?$AAt?$AA?5?$AAV?$AAi?$AAs?$AAu?$AAa?$AAl?$AA?5?$AAC?$AA?$CL?$AA?$CL?$AA?5?$AAD?$AAe?$AAb?$AAu?$AAg?$AA?5?$AAL?$AAi?$AAb?$AAr?$AAa@ 101a4c70     LIBCMTD:dbgrptw.obj
 0002:00006cb8       ??_C@_1FG@BBOLDHGF@?$AA_?$AAC?$AAr?$AAt?$AAD?$AAb?$AAg?$AAR?$AAe?$AAp?$AAo?$AAr?$AAt?$AA?3?$AA?5?$AAS?$AAt?$AAr?$AAi?$AAn?$AAg?$AA?5?$AAt?$AAo?$AAo?$AA?5?$AAl?$AAo?$AAn?$AAg?$AA?5?$AAo@ 101a4cb8     LIBCMTD:dbgrptw.obj
 0002:00006d10       ??_C@_1JI@EACPGHID@?$AAw?$AAc?$AAs?$AAc?$AAp?$AAy?$AA_?$AAs?$AA?$CI?$AAs?$AAz?$AAO?$AAu?$AAt?$AAM?$AAe?$AAs?$AAs?$AAa?$AAg?$AAe?$AA?0?$AA?5?$AA4?$AA0?$AA9?$AA6?$AA?0?$AA?5?$AAL?$AA?$CC?$AA_@ 101a4d10     LIBCMTD:dbgrptw.obj
 0002:00006da8       ??_C@_1KK@MEFMPOLM@?$AAD?$AAe?$AAb?$AAu?$AAg?$AA?5?$AA?$CF?$AAs?$AA?$CB?$AA?6?$AA?6?$AAP?$AAr?$AAo?$AAg?$AAr?$AAa?$AAm?$AA?3?$AA?5?$AA?$CF?$AAs?$AA?$CF?$AAs?$AA?$CF?$AAs?$AA?$CF?$AAs?$AA?$CF?$AAs?$AA?$CF?$AAs@ 101a4da8     LIBCMTD:dbgrptw.obj
 0002:00006e54       ??_C@_1BE@CGCJKGHI@?$AA?6?$AAM?$AAo?$AAd?$AAu?$AAl?$AAe?$AA?3?$AA?5?$AA?$AA@ 101a4e54     LIBCMTD:dbgrptw.obj
 0002:00006e68       ??_C@_1BA@LNHECFIM@?$AA?6?$AAF?$AAi?$AAl?$AAe?$AA?3?$AA?5?$AA?$AA@ 101a4e68     LIBCMTD:dbgrptw.obj
 0002:00006e78       ??_C@_1BA@GLLGCPCK@?$AA?6?$AAL?$AAi?$AAn?$AAe?$AA?3?$AA?5?$AA?$AA@ 101a4e78     LIBCMTD:dbgrptw.obj
 0002:00006e88       ??_C@_11LOCGONAA@?$AA?$AA@ 101a4e88     LIBCMTD:dbgrptw.obj
 0002:00006e90       ??_C@_1OG@PMPPFHAF@?$AA?6?$AA?6?$AAF?$AAo?$AAr?$AA?5?$AAi?$AAn?$AAf?$AAo?$AAr?$AAm?$AAa?$AAt?$AAi?$AAo?$AAn?$AA?5?$AAo?$AAn?$AA?5?$AAh?$AAo?$AAw?$AA?5?$AAy?$AAo?$AAu?$AAr?$AA?5?$AAp?$AAr@ 101a4e90     LIBCMTD:dbgrptw.obj
 0002:00006f78       ??_C@_1NO@LECLLHOL@?$AAm?$AAe?$AAm?$AAc?$AAp?$AAy?$AA_?$AAs?$AA?$CI?$AAs?$AAz?$AAS?$AAh?$AAo?$AAr?$AAt?$AAP?$AAr?$AAo?$AAg?$AAN?$AAa?$AAm?$AAe?$AA?0?$AA?5?$AAs?$AAi?$AAz?$AAe?$AAo?$AAf@ 101a4f78     LIBCMTD:dbgrptw.obj
 0002:00007058       ??_C@_1GI@DEDNNLCI@?$AAw?$AAc?$AAs?$AAc?$AAp?$AAy?$AA_?$AAs?$AA?$CI?$AAs?$AAz?$AAE?$AAx?$AAe?$AAN?$AAa?$AAm?$AAe?$AA?0?$AA?5?$AA2?$AA6?$AA0?$AA?0?$AA?5?$AAL?$AA?$CC?$AA?$DM?$AAp?$AAr?$AAo?$AAg@ 101a5058     LIBCMTD:dbgrptw.obj
 0002:000070c0       ??_C@_1CI@PGJIFDEK@?$AA_?$AA_?$AAc?$AAr?$AAt?$AAM?$AAe?$AAs?$AAs?$AAa?$AAg?$AAe?$AAW?$AAi?$AAn?$AAd?$AAo?$AAw?$AAW?$AA?$AA@ 101a50c0     LIBCMTD:dbgrptw.obj
 0002:000070e8       ??_C@_1HO@MLMGPAFH@?$AA?$CI?$AA?$CC?$AAi?$AAn?$AAc?$AAo?$AAn?$AAs?$AAi?$AAs?$AAt?$AAe?$AAn?$AAt?$AA?5?$AAI?$AAO?$AAB?$AA?5?$AAf?$AAi?$AAe?$AAl?$AAd?$AAs?$AA?$CC?$AA?0?$AA?5?$AAs?$AAt?$AAr?$AAe@ 101a50e8     LIBCMTD:_flsbuf.obj
 0002:00007168       ??_C@_1GC@GNCCMPNN@?$AAf?$AA?3?$AA?2?$AAd?$AAd?$AA?2?$AAv?$AAc?$AAt?$AAo?$AAo?$AAl?$AAs?$AA?2?$AAc?$AAr?$AAt?$AA_?$AAb?$AAl?$AAd?$AA?2?$AAs?$AAe?$AAl?$AAf?$AA_?$AAx?$AA8?$AA6?$AA?2?$AAc@ 101a5168     LIBCMTD:_flsbuf.obj
 0002:000071cc       ??_C@_1BI@MFCLPIBM@?$AAs?$AAt?$AAr?$AA?5?$AA?$CB?$AA?$DN?$AA?5?$AAN?$AAU?$AAL?$AAL?$AA?$AA@ 101a51cc     LIBCMTD:_flsbuf.obj
 0002:000071e4       ??_C@_1O@CEDCILHN@?$AA?$CI?$AAn?$AAu?$AAl?$AAl?$AA?$CJ?$AA?$AA@ 101a51e4     LIBCMTD:output.obj
 0002:000071f4       ??_C@_06OJHGLDPL@?$CInull?$CJ?$AA@ 101a51f4     LIBCMTD:output.obj
 0002:00007200       ___lookuptable             101a5200     LIBCMTD:output.obj
 0002:0000725c       ??_C@_0DA@NFBEBPEE@f?3?2dd?2vctools?2crt_bld?2self_x86?2c@ 101a525c     LIBCMTD:output.obj
 0002:00007290       ??_C@_1EK@PNGFDECN@?$AA?$CI?$AA?$CC?$AA?8?$AAn?$AA?8?$AA?5?$AAf?$AAo?$AAr?$AAm?$AAa?$AAt?$AA?5?$AAs?$AAp?$AAe?$AAc?$AAi?$AAf?$AAi?$AAe?$AAr?$AA?5?$AAd?$AAi?$AAs?$AAa?$AAb?$AAl?$AAe?$AAd?$AA?$CC@ 101a5290     LIBCMTD:output.obj
 0002:000072dc       ??_C@_1CC@IFFHEMNF@?$AA?$CI?$AAc?$AAh?$AA?5?$AA?$CB?$AA?$DN?$AA?5?$AA_?$AAT?$AA?$CI?$AA?8?$AA?2?$AA0?$AA?8?$AA?$CJ?$AA?$CJ?$AA?$AA@ 101a52dc     LIBCMTD:output.obj
 0002:00007300       ??_C@_1BE@IONLIDNC@?$AA_?$AAo?$AAu?$AAt?$AAp?$AAu?$AAt?$AA_?$AAl?$AA?$AA@ 101a5300     LIBCMTD:output.obj
 0002:00007318       ??_C@_1GA@HHFOFBLN@?$AAf?$AA?3?$AA?2?$AAd?$AAd?$AA?2?$AAv?$AAc?$AAt?$AAo?$AAo?$AAl?$AAs?$AA?2?$AAc?$AAr?$AAt?$AA_?$AAb?$AAl?$AAd?$AA?2?$AAs?$AAe?$AAl?$AAf?$AA_?$AAx?$AA8?$AA6?$AA?2?$AAc@ 101a5318     LIBCMTD:output.obj
 0002:00007378       ??_C@_1EC@FABAOFFO@?$AA?$CI?$AAc?$AAo?$AAu?$AAn?$AAt?$AA?5?$AA?$DN?$AA?$DN?$AA?5?$AA0?$AA?$CJ?$AA?5?$AA?$HM?$AA?$HM?$AA?5?$AA?$CI?$AAs?$AAt?$AAr?$AAi?$AAn?$AAg?$AA?5?$AA?$CB?$AA?$DN?$AA?5?$AAN?$AAU?$AAL?$AAL?$AA?$CJ@ 101a5378     LIBCMTD:vsnprnc.obj
 0002:000073bc       ??_C@_1CE@PCFPEIFI@?$AA_?$AAv?$AAs?$AAn?$AAp?$AAr?$AAi?$AAn?$AAt?$AAf?$AA_?$AAh?$AAe?$AAl?$AAp?$AAe?$AAr?$AA?$AA@ 101a53bc     LIBCMTD:vsnprnc.obj
 0002:000073e0       ??_C@_1DA@HPBFKMEB@?$AA?$CI?$AA?$CC?$AAB?$AAu?$AAf?$AAf?$AAe?$AAr?$AA?5?$AAt?$AAo?$AAo?$AA?5?$AAs?$AAm?$AAa?$AAl?$AAl?$AA?$CC?$AA?0?$AA?5?$AA0?$AA?$CJ?$AA?$AA@ 101a53e0     LIBCMTD:vsnprnc.obj
 0002:00007410       ??_C@_1EE@OKCKIGFK@?$AAs?$AAt?$AAr?$AAi?$AAn?$AAg?$AA?5?$AA?$CB?$AA?$DN?$AA?5?$AAN?$AAU?$AAL?$AAL?$AA?5?$AA?$CG?$AA?$CG?$AA?5?$AAs?$AAi?$AAz?$AAe?$AAI?$AAn?$AAB?$AAy?$AAt?$AAe?$AAs?$AA?5?$AA?$DO?$AA?5@ 101a5410     LIBCMTD:vsnprnc.obj
 0002:00007454       ??_C@_1BM@BLJALHEF@?$AA_?$AAv?$AAs?$AAp?$AAr?$AAi?$AAn?$AAt?$AAf?$AA_?$AAs?$AA_?$AAl?$AA?$AA@ 101a5454     LIBCMTD:vsnprnc.obj
 0002:00007470       ??_C@_1BO@MLMCMBKN@?$AAf?$AAo?$AAr?$AAm?$AAa?$AAt?$AA?5?$AA?$CB?$AA?$DN?$AA?5?$AAN?$AAU?$AAL?$AAL?$AA?$AA@ 101a5470     LIBCMTD:vsnprnc.obj
 0002:00007490       ??_C@_1BO@MMPELNIM@?$AA_?$AAv?$AAs?$AAn?$AAp?$AAr?$AAi?$AAn?$AAt?$AAf?$AA_?$AAs?$AA_?$AAl?$AA?$AA@ 101a5490     LIBCMTD:vsnprnc.obj
 0002:000074b0       ??_C@_0L@KDOEJCKC@_nextafter?$AA@ 101a54b0     LIBCMTD:_fpexcept_.obj
 0002:000074bc       ??_C@_05JGDBENOH@_logb?$AA@ 101a54bc     LIBCMTD:_fpexcept_.obj
 0002:000074c4       ??_C@_03ONILCKOB@_yn?$AA@  101a54c4     LIBCMTD:_fpexcept_.obj
 0002:000074c8       ??_C@_03NAKIGLHK@_y1?$AA@  101a54c8     LIBCMTD:_fpexcept_.obj
 0002:000074cc       ??_C@_03MJLDFKDL@_y0?$AA@  101a54cc     LIBCMTD:_fpexcept_.obj
 0002:000074d0       ??_C@_05GKKHEGJL@frexp?$AA@ 101a54d0     LIBCMTD:_fpexcept_.obj
 0002:000074d8       ??_C@_04KEPJIHGP@fmod?$AA@ 101a54d8     LIBCMTD:_fpexcept_.obj
 0002:000074e0       ??_C@_06MEIMCGCF@_hypot?$AA@ 101a54e0     LIBCMTD:_fpexcept_.obj
 0002:000074e8       ??_C@_05KBKMEMPO@_cabs?$AA@ 101a54e8     LIBCMTD:_fpexcept_.obj
 0002:000074f0       ??_C@_05CEJMAHNP@ldexp?$AA@ 101a54f0     LIBCMTD:_fpexcept_.obj
 0002:000074f8       ??_C@_04ODHECPBC@fabs?$AA@ 101a54f8     LIBCMTD:_fpexcept_.obj
 0002:00007500       ??_C@_04EIAKFFMI@sqrt?$AA@ 101a5500     LIBCMTD:_fpexcept_.obj
 0002:00007508       ??_C@_05KNGEOGJB@atan2?$AA@ 101a5508     LIBCMTD:_fpexcept_.obj
 0002:00007510       ??_C@_04FJHINJAO@tanh?$AA@ 101a5510     LIBCMTD:_fpexcept_.obj
 0002:00007518       ??_C@_04HPJJNFIM@cosh?$AA@ 101a5518     LIBCMTD:_fpexcept_.obj
 0002:00007520       ??_C@_04COOMCNPB@sinh?$AA@ 101a5520     LIBCMTD:_fpexcept_.obj
 0002:00007528       ??_C@_1GC@CHGJNMHG@?$AAf?$AA?3?$AA?2?$AAd?$AAd?$AA?2?$AAv?$AAc?$AAt?$AAo?$AAo?$AAl?$AAs?$AA?2?$AAc?$AAr?$AAt?$AA_?$AAb?$AAl?$AAd?$AA?2?$AAs?$AAe?$AAl?$AAf?$AA_?$AAx?$AA8?$AA6?$AA?2?$AAc@ 101a5528     LIBCMTD:isctype.obj
 0002:0000758c       ??_C@_1DC@BPLPALML@?$AA?$CI?$AAu?$AAn?$AAs?$AAi?$AAg?$AAn?$AAe?$AAd?$AA?$CJ?$AA?$CI?$AAc?$AA?5?$AA?$CL?$AA?5?$AA1?$AA?$CJ?$AA?5?$AA?$DM?$AA?$DN?$AA?5?$AA2?$AA5?$AA6?$AA?$AA@ 101a558c     LIBCMTD:isctype.obj
 0002:000075c0       ??_C@_0DB@MHMEONEC@f?3?2dd?2vctools?2crt_bld?2self_x86?2c@ 101a55c0     LIBCMTD:mbctype.obj
 0002:000075f4       ??_C@_07LCBHPJJN@LC_TIME?$AA@ 101a55f4     LIBCMTD:setlocal.obj
 0002:000075fc       ??_C@_0L@DLHIECNL@LC_NUMERIC?$AA@ 101a55fc     LIBCMTD:setlocal.obj
 0002:00007608       ??_C@_0M@MIENIKLA@LC_MONETARY?$AA@ 101a5608     LIBCMTD:setlocal.obj
 0002:00007614       ??_C@_08EADHIDAD@LC_CTYPE?$AA@ 101a5614     LIBCMTD:setlocal.obj
 0002:00007620       ??_C@_0L@KFJHEKIK@LC_COLLATE?$AA@ 101a5620     LIBCMTD:setlocal.obj
 0002:0000762c       ??_C@_06NEFDFEKB@LC_ALL?$AA@ 101a562c     LIBCMTD:setlocal.obj
 0002:00007638       ___lc_category             101a5638     LIBCMTD:setlocal.obj
 0002:00007700       ??_C@_1GE@OLEIGPBJ@?$AAf?$AA?3?$AA?2?$AAd?$AAd?$AA?2?$AAv?$AAc?$AAt?$AAo?$AAo?$AAl?$AAs?$AA?2?$AAc?$AAr?$AAt?$AA_?$AAb?$AAl?$AAd?$AA?2?$AAs?$AAe?$AAl?$AAf?$AA_?$AAx?$AA8?$AA6?$AA?2?$AAc@ 101a5700     LIBCMTD:setlocal.obj
 0002:00007768       ??_C@_1BKC@GGIENNAK@?$AA?$CI?$AA?$CI?$AAp?$AAt?$AAl?$AAo?$AAc?$AAi?$AA?9?$AA?$DO?$AAl?$AAc?$AA_?$AAc?$AAa?$AAt?$AAe?$AAg?$AAo?$AAr?$AAy?$AA?$FL?$AAc?$AAa?$AAt?$AAe?$AAg?$AAo?$AAr?$AAy?$AA?$FN?$AA?4@ 101a5768     LIBCMTD:setlocal.obj
 0002:0000790c       ??_C@_1CI@FGIONOJM@?$AA_?$AAc?$AAo?$AAn?$AAf?$AAi?$AAg?$AAt?$AAh?$AAr?$AAe?$AAa?$AAd?$AAl?$AAo?$AAc?$AAa?$AAl?$AAe?$AA?$AA@ 101a590c     LIBCMTD:setlocal.obj
 0002:00007938       ??_C@_1GA@LDEGDKD@?$AA?$CI?$AA?$CC?$AAI?$AAn?$AAv?$AAa?$AAl?$AAi?$AAd?$AA?5?$AAp?$AAa?$AAr?$AAa?$AAm?$AAe?$AAt?$AAe?$AAr?$AA?5?$AAf?$AAo?$AAr?$AA?5?$AA_?$AAc?$AAo?$AAn?$AAf?$AAi?$AAg?$AAt@ 101a5938     LIBCMTD:setlocal.obj
 0002:00007998       ??_C@_0DC@JCPFNMID@f?3?2dd?2vctools?2crt_bld?2self_x86?2c@ 101a5998     LIBCMTD:setlocal.obj
 0002:000079cc       ??_C@_1BE@DBJGBOJC@?$AAs?$AAe?$AAt?$AAl?$AAo?$AAc?$AAa?$AAl?$AAe?$AA?$AA@ 101a59cc     LIBCMTD:setlocal.obj
 0002:000079e0       ??_C@_1FG@OHLFEKMC@?$AAL?$AAC?$AA_?$AAM?$AAI?$AAN?$AA?5?$AA?$DM?$AA?$DN?$AA?5?$AA_?$AAc?$AAa?$AAt?$AAe?$AAg?$AAo?$AAr?$AAy?$AA?5?$AA?$CG?$AA?$CG?$AA?5?$AA_?$AAc?$AAa?$AAt?$AAe?$AAg?$AAo?$AAr?$AAy@ 101a59e0     LIBCMTD:setlocal.obj
 0002:00007a38       ??_C@_1IA@PFIKKKFB@?$AAs?$AAt?$AAr?$AAn?$AAc?$AAp?$AAy?$AA_?$AAs?$AA?$CI?$AAl?$AAc?$AAt?$AAe?$AAm?$AAp?$AA?0?$AA?5?$AA?$CI?$AAs?$AAi?$AAz?$AAe?$AAo?$AAf?$AA?$CI?$AAl?$AAc?$AAt?$AAe?$AAm?$AAp@ 101a5a38     LIBCMTD:setlocal.obj
 0002:00007ab8       ??_C@_1CE@OFNHIOO@?$AA_?$AAs?$AAe?$AAt?$AAl?$AAo?$AAc?$AAa?$AAl?$AAe?$AA_?$AAn?$AAo?$AAl?$AAo?$AAc?$AAk?$AA?$AA@ 101a5ab8     LIBCMTD:setlocal.obj
 0002:00007adc       ??_C@_01ICJEACDI@?$DL?$AA@ 101a5adc     LIBCMTD:setlocal.obj
 0002:00007ae0       ??_C@_02BALPLPBG@?$DN?$DL?$AA@ 101a5ae0     LIBCMTD:setlocal.obj
 0002:00007ae8       ??_C@_1GO@JALHLJEH@?$AAs?$AAt?$AAr?$AAc?$AAp?$AAy?$AA_?$AAs?$AA?$CI?$AAp?$AAc?$AAh?$AA?5?$AA?$CL?$AA?5?$AAs?$AAi?$AAz?$AAe?$AAo?$AAf?$AA?$CI?$AAi?$AAn?$AAt?$AA?$CJ?$AA?0?$AA?5?$AAc?$AAc?$AAh?$AA?5@ 101a5ae8     LIBCMTD:setlocal.obj
 0002:00007b58       ??_C@_1CG@IEFIICPK@?$AA_?$AAs?$AAe?$AAt?$AAl?$AAo?$AAc?$AAa?$AAl?$AAe?$AA_?$AAs?$AAe?$AAt?$AA_?$AAc?$AAa?$AAt?$AA?$AA@ 101a5b58     LIBCMTD:setlocal.obj
 0002:00007b80       ??_C@_1DA@GDKKLCLM@?$AAs?$AAt?$AAr?$AAc?$AAa?$AAt?$AA_?$AAs?$AA?$CI?$AAp?$AAc?$AAh?$AA?0?$AA?5?$AAc?$AAc?$AAh?$AA?0?$AA?5?$AA?$CC?$AA?$DL?$AA?$CC?$AA?$CJ?$AA?$AA@ 101a5b80     LIBCMTD:setlocal.obj
 0002:00007bb0       ??_C@_1CG@NNFIJLDA@?$AA_?$AAs?$AAe?$AAt?$AAl?$AAo?$AAc?$AAa?$AAl?$AAe?$AA_?$AAg?$AAe?$AAt?$AA_?$AAa?$AAl?$AAl?$AA?$AA@ 101a5bb0     LIBCMTD:setlocal.obj
 0002:00007bd8       ??_C@_01NEMOKFLO@?$DN?$AA@ 101a5bd8     LIBCMTD:setlocal.obj
 0002:00007be0       ??_C@_1FA@MHAOOIBO@?$AAs?$AAt?$AAr?$AAc?$AAp?$AAy?$AA_?$AAs?$AA?$CI?$AAo?$AAu?$AAt?$AAp?$AAu?$AAt?$AA?0?$AA?5?$AAs?$AAi?$AAz?$AAe?$AAI?$AAn?$AAC?$AAh?$AAa?$AAr?$AAs?$AA?0?$AA?5?$AAc?$AAa@ 101a5be0     LIBCMTD:setlocal.obj
 0002:00007c30       ??_C@_1IA@ONNFOEDA@?$AAs?$AAt?$AAr?$AAn?$AAc?$AAp?$AAy?$AA_?$AAs?$AA?$CI?$AAc?$AAa?$AAc?$AAh?$AAe?$AAi?$AAn?$AA?0?$AA?5?$AAc?$AAa?$AAc?$AAh?$AAe?$AAi?$AAn?$AAS?$AAi?$AAz?$AAe?$AA?0?$AA?5@ 101a5c30     LIBCMTD:setlocal.obj
 0002:00007cb0       ??_C@_00CNPNBAHC@?$AA@     101a5cb0     LIBCMTD:setlocal.obj
 0002:00007cb4       ??_C@_01GFHCPBMG@C?$AA@    101a5cb4     LIBCMTD:setlocal.obj
 0002:00007cb8       ??_C@_1EG@MOMHKOD@?$AAs?$AAt?$AAr?$AAc?$AAp?$AAy?$AA_?$AAs?$AA?$CI?$AAo?$AAu?$AAt?$AAp?$AAu?$AAt?$AA?0?$AA?5?$AAs?$AAi?$AAz?$AAe?$AAI?$AAn?$AAC?$AAh?$AAa?$AAr?$AAs?$AA?0?$AA?5?$AA?$CC?$AAC@ 101a5cb8     LIBCMTD:setlocal.obj
 0002:00007d00       ??_C@_1BM@OIIBLEFG@?$AA_?$AAe?$AAx?$AAp?$AAa?$AAn?$AAd?$AAl?$AAo?$AAc?$AAa?$AAl?$AAe?$AA?$AA@ 101a5d00     LIBCMTD:setlocal.obj
 0002:00007d20       ??_C@_1BGM@IJDLABMC@?$AAs?$AAt?$AAr?$AAc?$AAa?$AAt?$AA_?$AAs?$AA?$CI?$AAo?$AAu?$AAt?$AAs?$AAt?$AAr?$AA?0?$AA?5?$AAs?$AAi?$AAz?$AAe?$AAI?$AAn?$AAB?$AAy?$AAt?$AAe?$AAs?$AA?0?$AA?5?$AA?$CI?$AA?5@ 101a5d20     LIBCMTD:setlocal.obj
 0002:00007e8c       ??_C@_1BC@PIABMDIP@?$AA_?$AAs?$AAt?$AAr?$AAc?$AAa?$AAt?$AAs?$AA?$AA@ 101a5e8c     LIBCMTD:setlocal.obj
 0002:00007ea0       ??_C@_1MM@NOPMGFHF@?$AAs?$AAt?$AAr?$AAn?$AAc?$AAp?$AAy?$AA_?$AAs?$AA?$CI?$AAn?$AAa?$AAm?$AAe?$AAs?$AA?9?$AA?$DO?$AAs?$AAz?$AAC?$AAo?$AAd?$AAe?$AAP?$AAa?$AAg?$AAe?$AA?0?$AA?5?$AA?$CI?$AAs?$AAi@ 101a5ea0     LIBCMTD:setlocal.obj
 0002:00007f70       ??_C@_1MG@PHNILIAG@?$AAs?$AAt?$AAr?$AAn?$AAc?$AAp?$AAy?$AA_?$AAs?$AA?$CI?$AAn?$AAa?$AAm?$AAe?$AAs?$AA?9?$AA?$DO?$AAs?$AAz?$AAC?$AAo?$AAu?$AAn?$AAt?$AAr?$AAy?$AA?0?$AA?5?$AA?$CI?$AAs?$AAi?$AAz@ 101a5f70     LIBCMTD:setlocal.obj
 0002:00008038       ??_C@_1MM@BFEECMAF@?$AAs?$AAt?$AAr?$AAn?$AAc?$AAp?$AAy?$AA_?$AAs?$AA?$CI?$AAn?$AAa?$AAm?$AAe?$AAs?$AA?9?$AA?$DO?$AAs?$AAz?$AAL?$AAa?$AAn?$AAg?$AAu?$AAa?$AAg?$AAe?$AA?0?$AA?5?$AA?$CI?$AAs?$AAi@ 101a6038     LIBCMTD:setlocal.obj
 0002:00008104       ??_C@_03EGDHDPFD@_?4?0?$AA@ 101a6104     LIBCMTD:setlocal.obj
 0002:00008108       ??_C@_1NG@FMOPGKGG@?$AAs?$AAt?$AAr?$AAn?$AAc?$AAp?$AAy?$AA_?$AAs?$AA?$CI?$AAn?$AAa?$AAm?$AAe?$AAs?$AA?9?$AA?$DO?$AAs?$AAz?$AAC?$AAo?$AAd?$AAe?$AAP?$AAa?$AAg?$AAe?$AA?0?$AA?5?$AA?$CI?$AAs?$AAi@ 101a6108     LIBCMTD:setlocal.obj
 0002:000081e0       ??_C@_1BK@CBMMLAGJ@?$AA_?$AA_?$AAl?$AAc?$AA_?$AAs?$AAt?$AAr?$AAt?$AAo?$AAl?$AAc?$AA?$AA@ 101a61e0     LIBCMTD:setlocal.obj
 0002:000081fc       ??_C@_01LFCBOECM@?4?$AA@   101a61fc     LIBCMTD:setlocal.obj
 0002:00008200       ??_C@_01IDAFKMJL@_?$AA@    101a6200     LIBCMTD:setlocal.obj
 0002:00008208       ??_C@_1HC@IBDBLKCB@?$AAs?$AAt?$AAr?$AAc?$AAp?$AAy?$AA_?$AAs?$AA?$CI?$AAl?$AAo?$AAc?$AAa?$AAl?$AAe?$AA?0?$AA?5?$AAs?$AAi?$AAz?$AAe?$AAI?$AAn?$AAB?$AAy?$AAt?$AAe?$AAs?$AA?0?$AA?5?$AA?$CI?$AAc@ 101a6208     LIBCMTD:setlocal.obj
 0002:0000827c       ??_C@_1BK@FGDJDEPG@?$AA_?$AA_?$AAl?$AAc?$AA_?$AAl?$AAc?$AAt?$AAo?$AAs?$AAt?$AAr?$AA?$AA@ 101a627c     LIBCMTD:setlocal.obj
 0002:00008298       ??_C@_1BO@IHLJHOPI@?$AA_?$AA_?$AAs?$AAt?$AAr?$AAg?$AAt?$AAo?$AAl?$AAd?$AA1?$AA2?$AA_?$AAl?$AA?$AA@ 101a6298     LIBCMTD:_strgtold_.obj
 0002:000082b8       ??_C@_1IG@IGKPPFIM@?$AAf?$AA?3?$AA?2?$AAd?$AAd?$AA?2?$AAv?$AAc?$AAt?$AAo?$AAo?$AAl?$AAs?$AA?2?$AAc?$AAr?$AAt?$AA_?$AAb?$AAl?$AAd?$AA?2?$AAs?$AAe?$AAl?$AAf?$AA_?$AAx?$AA8?$AA6?$AA?2?$AAc@ 101a62b8     LIBCMTD:_strgtold_.obj
 0002:00008340       ??_C@_1CA@MBDBOHIB@?$AA_?$AAL?$AAo?$AAc?$AAa?$AAl?$AAe?$AA?5?$AA?$CB?$AA?$DN?$AA?5?$AAN?$AAU?$AAL?$AAL?$AA?$AA@ 101a6340     LIBCMTD:_strgtold_.obj
 0002:00009b40       ??_C@_1FK@BCPANIEK@?$AA?$CI?$AA?$CC?$AAM?$AAi?$AAs?$AAs?$AAi?$AAn?$AAg?$AA?5?$AAp?$AAo?$AAs?$AAi?$AAt?$AAi?$AAo?$AAn?$AA?5?$AAi?$AAn?$AA?5?$AAt?$AAh?$AAe?$AA?5?$AAf?$AAo?$AAr?$AAm?$AAa?$AAt@ 101a7b40     LIBCMTD:outputp.obj
 0002:00009ba0       ??_C@_1FK@LNCFKALM@?$AA?$CI?$AA?$CI?$AAs?$AAt?$AAa?$AAt?$AAe?$AA?5?$AA?$DN?$AA?$DN?$AA?5?$AAS?$AAT?$AA_?$AAN?$AAO?$AAR?$AAM?$AAA?$AAL?$AA?$CJ?$AA?5?$AA?$HM?$AA?$HM?$AA?5?$AA?$CI?$AAs?$AAt?$AAa?$AAt?$AAe?$AA?5@ 101a7ba0     LIBCMTD:outputp.obj
 0002:00009c00       ??_C@_1JC@OACKELNN@?$AA_?$AAt?$AAv?$AAa?$AAl?$AAi?$AAd?$AAa?$AAt?$AAe?$AA_?$AAp?$AAa?$AAr?$AAa?$AAm?$AA_?$AAr?$AAe?$AAu?$AAs?$AAe?$AA?$CI?$AA?$CG?$AAp?$AAo?$AAs?$AA_?$AAv?$AAa?$AAl?$AAu@ 101a7c00     LIBCMTD:outputp.obj
 0002:00009c98       ??_C@_1IK@NBGDDCBN@?$AA_?$AAt?$AAv?$AAa?$AAl?$AAi?$AAd?$AAa?$AAt?$AAe?$AA_?$AAp?$AAa?$AAr?$AAa?$AAm?$AA_?$AAr?$AAe?$AAu?$AAs?$AAe?$AA?$CI?$AA?$CG?$AAp?$AAo?$AAs?$AA_?$AAv?$AAa?$AAl?$AAu@ 101a7c98     LIBCMTD:outputp.obj
 0002:00009d24       ??_C@_1DG@GOHGNKHE@?$AAp?$AAa?$AAs?$AAs?$AA?5?$AA?$DN?$AA?$DN?$AA?5?$AAF?$AAO?$AAR?$AAM?$AAA?$AAT?$AA_?$AAO?$AAU?$AAT?$AAP?$AAU?$AAT?$AA_?$AAP?$AAA?$AAS?$AAS?$AA?$AA@ 101a7d24     LIBCMTD:outputp.obj
 0002:00009d60       ??_C@_1IM@DNGHAPLB@?$AA_?$AAt?$AAv?$AAa?$AAl?$AAi?$AAd?$AAa?$AAt?$AAe?$AA_?$AAp?$AAa?$AAr?$AAa?$AAm?$AA_?$AAr?$AAe?$AAu?$AAs?$AAe?$AA?$CI?$AA?$CG?$AAp?$AAo?$AAs?$AA_?$AAv?$AAa?$AAl?$AAu@ 101a7d60     LIBCMTD:outputp.obj
 0002:00009df0       ??_C@_1IG@HJIMKDHC@?$AA_?$AAt?$AAv?$AAa?$AAl?$AAi?$AAd?$AAa?$AAt?$AAe?$AA_?$AAp?$AAa?$AAr?$AAa?$AAm?$AA_?$AAr?$AAe?$AAu?$AAs?$AAe?$AA?$CI?$AA?$CG?$AAp?$AAo?$AAs?$AA_?$AAv?$AAa?$AAl?$AAu@ 101a7df0     LIBCMTD:outputp.obj
 0002:00009e78       ??_C@_1IG@FDCPLALG@?$AA_?$AAt?$AAv?$AAa?$AAl?$AAi?$AAd?$AAa?$AAt?$AAe?$AA_?$AAp?$AAa?$AAr?$AAa?$AAm?$AA_?$AAr?$AAe?$AAu?$AAs?$AAe?$AA?$CI?$AA?$CG?$AAp?$AAo?$AAs?$AA_?$AAv?$AAa?$AAl?$AAu@ 101a7e78     LIBCMTD:outputp.obj
 0002:00009f00       ??_C@_1IK@MHEDJAMK@?$AA_?$AAt?$AAv?$AAa?$AAl?$AAi?$AAd?$AAa?$AAt?$AAe?$AA_?$AAp?$AAa?$AAr?$AAa?$AAm?$AA_?$AAr?$AAe?$AAu?$AAs?$AAe?$AA?$CI?$AA?$CG?$AAp?$AAo?$AAs?$AA_?$AAv?$AAa?$AAl?$AAu@ 101a7f00     LIBCMTD:outputp.obj
 0002:00009f90       ??_C@_1EM@BNPHBBIA@?$AA?$CI?$AA?$CI?$AAt?$AAy?$AAp?$AAe?$AA_?$AAp?$AAo?$AAs?$AA?$DO?$AA?$DN?$AA0?$AA?$CJ?$AA?5?$AA?$CG?$AA?$CG?$AA?5?$AA?$CI?$AAt?$AAy?$AAp?$AAe?$AA_?$AAp?$AAo?$AAs?$AA?$DM?$AA_?$AAA?$AAR?$AAG@ 101a7f90     LIBCMTD:outputp.obj
 0002:00009fe0       ??_C@_1IK@EIEPDKHJ@?$AA_?$AAt?$AAv?$AAa?$AAl?$AAi?$AAd?$AAa?$AAt?$AAe?$AA_?$AAp?$AAa?$AAr?$AAa?$AAm?$AA_?$AAr?$AAe?$AAu?$AAs?$AAe?$AA?$CI?$AA?$CG?$AAp?$AAo?$AAs?$AA_?$AAv?$AAa?$AAl?$AAu@ 101a7fe0     LIBCMTD:outputp.obj
 0002:0000a070       ??_C@_1JG@JBJBOCFB@?$AA?$CI?$AA?$CI?$AAp?$AAr?$AAe?$AAc?$AAi?$AAs?$AA_?$AAp?$AAo?$AAs?$AA?5?$AA?$DO?$AA?$DN?$AA?5?$AA0?$AA?$CJ?$AA?5?$AA?$CG?$AA?$CG?$AA?5?$AA?$CI?$AA?$CK?$AAe?$AAn?$AAd?$AA_?$AAp?$AAo?$AAs?$AA?5@ 101a8070     LIBCMTD:outputp.obj
 0002:0000a108       ??_C@_1II@PIPIMLPF@?$AA_?$AAt?$AAv?$AAa?$AAl?$AAi?$AAd?$AAa?$AAt?$AAe?$AA_?$AAp?$AAa?$AAr?$AAa?$AAm?$AA_?$AAr?$AAe?$AAu?$AAs?$AAe?$AA?$CI?$AA?$CG?$AAp?$AAo?$AAs?$AA_?$AAv?$AAa?$AAl?$AAu@ 101a8108     LIBCMTD:outputp.obj
 0002:0000a190       ??_C@_1JE@NMBHOLFI@?$AA?$CI?$AA?$CI?$AAw?$AAi?$AAd?$AAt?$AAh?$AA_?$AAp?$AAo?$AAs?$AA?5?$AA?$DO?$AA?$DN?$AA?5?$AA0?$AA?$CJ?$AA?5?$AA?$CG?$AA?$CG?$AA?5?$AA?$CI?$AA?$CK?$AAe?$AAn?$AAd?$AA_?$AAp?$AAo?$AAs?$AA?5?$AA?$DN@ 101a8190     LIBCMTD:outputp.obj
 0002:0000a228       ??_C@_1EE@DMAIGNBG@?$AA?$CI?$AA?$CC?$AAI?$AAn?$AAc?$AAo?$AAr?$AAr?$AAe?$AAc?$AAt?$AA?5?$AAf?$AAo?$AAr?$AAm?$AAa?$AAt?$AA?5?$AAs?$AAp?$AAe?$AAc?$AAi?$AAf?$AAi?$AAe?$AAr?$AA?$CC?$AA?0?$AA?5?$AA0@ 101a8228     LIBCMTD:outputp.obj
 0002:0000a270       ??_C@_1JC@PFJNKEIO@?$AA?$CI?$AA?$CI?$AAt?$AAy?$AAp?$AAe?$AA_?$AAp?$AAo?$AAs?$AA?5?$AA?$DO?$AA?$DN?$AA?5?$AA0?$AA?$CJ?$AA?5?$AA?$CG?$AA?$CG?$AA?5?$AA?$CI?$AA?$CK?$AAe?$AAn?$AAd?$AA_?$AAp?$AAo?$AAs?$AA?5?$AA?$DN?$AA?$DN@ 101a8270     LIBCMTD:outputp.obj
 0002:0000a304       ??_C@_1BI@KANOLAMF@?$AA_?$AAo?$AAu?$AAt?$AAp?$AAu?$AAt?$AA_?$AAp?$AA_?$AAl?$AA?$AA@ 101a8304     LIBCMTD:outputp.obj
 0002:0000a320       ??_C@_1EA@GEPBEDLJ@?$AAs?$AAt?$AAr?$AAn?$AAc?$AAp?$AAy?$AA_?$AAs?$AA?$CI?$AAt?$AAz?$AAn?$AAa?$AAm?$AAe?$AA?$FL?$AA1?$AA?$FN?$AA?0?$AA?5?$AA6?$AA4?$AA?0?$AA?5?$AAT?$AAZ?$AA?0?$AA?5?$AA3?$AA?$CJ?$AA?$AA@ 101a8320     LIBCMTD:tzset.obj
 0002:0000a360       ??_C@_1EA@FIJBKALB@?$AAs?$AAt?$AAr?$AAn?$AAc?$AAp?$AAy?$AA_?$AAs?$AA?$CI?$AAt?$AAz?$AAn?$AAa?$AAm?$AAe?$AA?$FL?$AA0?$AA?$FN?$AA?0?$AA?5?$AA6?$AA4?$AA?0?$AA?5?$AAT?$AAZ?$AA?0?$AA?5?$AA3?$AA?$CJ?$AA?$AA@ 101a8360     LIBCMTD:tzset.obj
 0002:0000a3a0       ??_C@_1EK@MCAIMDPB@?$AAs?$AAt?$AAr?$AAc?$AAp?$AAy?$AA_?$AAs?$AA?$CI?$AAl?$AAa?$AAs?$AAt?$AAT?$AAZ?$AA?0?$AA?5?$AAs?$AAt?$AAr?$AAl?$AAe?$AAn?$AA?$CI?$AAT?$AAZ?$AA?$CJ?$AA?5?$AA?$CL?$AA?5?$AA1?$AA?0@ 101a83a0     LIBCMTD:tzset.obj
 0002:0000a3ec       ??_C@_0CP@FODJBIFF@f?3?2dd?2vctools?2crt_bld?2self_x86?2c@ 101a83ec     LIBCMTD:tzset.obj
 0002:0000a41c       ??_C@_02CLFPBFFP@TZ?$AA@   101a841c     LIBCMTD:tzset.obj
 0002:0000a420       ??_C@_1BM@IIODHMJC@?$AA_?$AAt?$AAz?$AAs?$AAe?$AAt?$AA_?$AAn?$AAo?$AAl?$AAo?$AAc?$AAk?$AA?$AA@ 101a8420     LIBCMTD:tzset.obj
 0002:0000a440       ??_C@_1FO@MLHAIHAB@?$AAf?$AA?3?$AA?2?$AAd?$AAd?$AA?2?$AAv?$AAc?$AAt?$AAo?$AAo?$AAl?$AAs?$AA?2?$AAc?$AAr?$AAt?$AA_?$AAb?$AAl?$AAd?$AA?2?$AAs?$AAe?$AAl?$AAf?$AA_?$AAx?$AA8?$AA6?$AA?2?$AAc@ 101a8440     LIBCMTD:tzset.obj
 0002:0000a4a0       ??_C@_1CA@GOLIIEDM@?$AA_?$AAi?$AAs?$AAi?$AAn?$AAd?$AAs?$AAt?$AA_?$AAn?$AAo?$AAl?$AAo?$AAc?$AAk?$AA?$AA@ 101a84a0     LIBCMTD:tzset.obj
 0002:0000a4c0       ??_C@_1BA@GOCKIDGO@?$AAc?$AAv?$AAt?$AAd?$AAa?$AAt?$AAe?$AA?$AA@ 101a84c0     LIBCMTD:tzset.obj
 0002:0000a4d0       ??_C@_1CC@FPMHPAM@?$AA?$CI?$AA?5?$AAt?$AAi?$AAm?$AAp?$AA?5?$AA?$CB?$AA?$DN?$AA?5?$AAN?$AAU?$AAL?$AAL?$AA?5?$AA?$CJ?$AA?$AA@ 101a84d0     LIBCMTD:gmtime64.obj
 0002:0000a4f4       ??_C@_1BI@BFNFPMLP@?$AA_?$AAg?$AAm?$AAt?$AAi?$AAm?$AAe?$AA6?$AA4?$AA_?$AAs?$AA?$AA@ 101a84f4     LIBCMTD:gmtime64.obj
 0002:0000a510       ??_C@_1GE@CKMEKJPD@?$AAf?$AA?3?$AA?2?$AAd?$AAd?$AA?2?$AAv?$AAc?$AAt?$AAo?$AAo?$AAl?$AAs?$AA?2?$AAc?$AAr?$AAt?$AA_?$AAb?$AAl?$AAd?$AA?2?$AAs?$AAe?$AAl?$AAf?$AA_?$AAx?$AA8?$AA6?$AA?2?$AAc@ 101a8510     LIBCMTD:gmtime64.obj
 0002:0000a574       ___dnames                  101a8574     LIBCMTD:timeset.obj
 0002:0000a58c       ___mnames                  101a858c     LIBCMTD:timeset.obj
 0002:0000a5b4       ??_C@_1BM@FIMHBHEB@?$AA_?$AAg?$AAe?$AAt?$AA_?$AAd?$AAa?$AAy?$AAl?$AAi?$AAg?$AAh?$AAt?$AA?$AA@ 101a85b4     LIBCMTD:timeset.obj
 0002:0000a5d0       ??_C@_1GC@NEGFAKA@?$AAf?$AA?3?$AA?2?$AAd?$AAd?$AA?2?$AAv?$AAc?$AAt?$AAo?$AAo?$AAl?$AAs?$AA?2?$AAc?$AAr?$AAt?$AA_?$AAb?$AAl?$AAd?$AA?2?$AAs?$AAe?$AAl?$AAf?$AA_?$AAx?$AA8?$AA6?$AA?2?$AAc@ 101a85d0     LIBCMTD:timeset.obj
 0002:0000a634       ??_C@_1CI@MKJEHFPG@?$AA?$CI?$AA_?$AAD?$AAa?$AAy?$AAl?$AAi?$AAg?$AAh?$AAt?$AA?5?$AA?$CB?$AA?$DN?$AA?5?$AAN?$AAU?$AAL?$AAL?$AA?$CJ?$AA?$AA@ 101a8634     LIBCMTD:timeset.obj
 0002:0000a65c       ??_C@_1BK@EMODDHEE@?$AA_?$AAg?$AAe?$AAt?$AA_?$AAd?$AAs?$AAt?$AAb?$AAi?$AAa?$AAs?$AA?$AA@ 101a865c     LIBCMTD:timeset.obj
 0002:0000a678       ??_C@_1EC@PKDJPAAB@?$AA?$CI?$AA_?$AAD?$AAa?$AAy?$AAl?$AAi?$AAg?$AAh?$AAt?$AA_?$AAs?$AAa?$AAv?$AAi?$AAn?$AAg?$AAs?$AA_?$AAb?$AAi?$AAa?$AAs?$AA?5?$AA?$CB?$AA?$DN?$AA?5?$AAN?$AAU?$AAL?$AAL?$AA?$CJ@ 101a8678     LIBCMTD:timeset.obj
 0002:0000a6bc       ??_C@_1BM@MGEAKPEJ@?$AA_?$AAg?$AAe?$AAt?$AA_?$AAt?$AAi?$AAm?$AAe?$AAz?$AAo?$AAn?$AAe?$AA?$AA@ 101a86bc     LIBCMTD:timeset.obj
 0002:0000a6d8       ??_C@_1CI@PODJJGAL@?$AA?$CI?$AA_?$AAT?$AAi?$AAm?$AAe?$AAz?$AAo?$AAn?$AAe?$AA?5?$AA?$CB?$AA?$DN?$AA?5?$AAN?$AAU?$AAL?$AAL?$AA?$CJ?$AA?$AA@ 101a86d8     LIBCMTD:timeset.obj
 0002:0000a700       ??_C@_1DG@HLGKANIP@?$AA_?$AAI?$AAn?$AAd?$AAe?$AAx?$AA?5?$AA?$DN?$AA?$DN?$AA?5?$AA0?$AA?5?$AA?$HM?$AA?$HM?$AA?5?$AA_?$AAI?$AAn?$AAd?$AAe?$AAx?$AA?5?$AA?$DN?$AA?$DN?$AA?5?$AA1?$AA?$AA@ 101a8700     LIBCMTD:timeset.obj
 0002:0000a738       ??_C@_1CK@GBKHKEI@?$AA_?$AAR?$AAe?$AAt?$AAu?$AAr?$AAn?$AAV?$AAa?$AAl?$AAu?$AAe?$AA?5?$AA?$CB?$AA?$DN?$AA?5?$AAN?$AAU?$AAL?$AAL?$AA?$AA@ 101a8738     LIBCMTD:timeset.obj
 0002:0000a764       ??_C@_1BI@BHCKCCFA@?$AA_?$AAg?$AAe?$AAt?$AA_?$AAt?$AAz?$AAn?$AAa?$AAm?$AAe?$AA?$AA@ 101a8764     LIBCMTD:timeset.obj
 0002:0000a780       ??_C@_1KA@POFLNEC@?$AA?$CI?$AA_?$AAB?$AAu?$AAf?$AAf?$AAe?$AAr?$AA?5?$AA?$CB?$AA?$DN?$AA?5?$AAN?$AAU?$AAL?$AAL?$AA?5?$AA?$CG?$AA?$CG?$AA?5?$AA_?$AAS?$AAi?$AAz?$AAe?$AAI?$AAn?$AAB?$AAy?$AAt?$AAe?$AAs@ 101a8780     LIBCMTD:timeset.obj
 0002:0000a820       ??_C@_1BI@DFJDDOHM@?$AA_?$AAg?$AAm?$AAt?$AAi?$AAm?$AAe?$AA3?$AA2?$AA_?$AAs?$AA?$AA@ 101a8820     LIBCMTD:gmtime.obj
 0002:0000a838       ??_C@_1GA@OAOCHJKE@?$AAf?$AA?3?$AA?2?$AAd?$AAd?$AA?2?$AAv?$AAc?$AAt?$AAo?$AAo?$AAl?$AAs?$AA?2?$AAc?$AAr?$AAt?$AA_?$AAb?$AAl?$AAd?$AA?2?$AAs?$AAe?$AAl?$AAf?$AA_?$AAx?$AA8?$AA6?$AA?2?$AAc@ 101a8838     LIBCMTD:gmtime.obj
 0002:0000a898       ??_C@_0DA@FNHOCICI@f?3?2dd?2vctools?2crt_bld?2self_x86?2c@ 101a8898     LIBCMTD:gmtime.obj
 0002:0000a8c8       ??_C@_0CP@BNKDODJJ@f?3?2dd?2vctools?2crt_bld?2self_x86?2c@ 101a88c8     LIBCMTD:_file.obj
 0002:0000a8f8       ??_C@_1JE@ECKHFIFP@?$AA?$CI?$AA?$CC?$AAI?$AAn?$AAv?$AAa?$AAl?$AAi?$AAd?$AA?5?$AAf?$AAi?$AAl?$AAe?$AA?5?$AAd?$AAe?$AAs?$AAc?$AAr?$AAi?$AAp?$AAt?$AAo?$AAr?$AA?4?$AA?5?$AAF?$AAi?$AAl?$AAe?$AA?5@ 101a88f8     LIBCMTD:write.obj
 0002:0000a98c       ??_C@_1CM@OKGMMMDH@?$AA?$CI?$AA_?$AAo?$AAs?$AAf?$AAi?$AAl?$AAe?$AA?$CI?$AAf?$AAh?$AA?$CJ?$AA?5?$AA?$CG?$AA?5?$AAF?$AAO?$AAP?$AAE?$AAN?$AA?$CJ?$AA?$AA@ 101a898c     LIBCMTD:write.obj
 0002:0000a9b8       ??_C@_1O@KOFKDHPL@?$AA_?$AAw?$AAr?$AAi?$AAt?$AAe?$AA?$AA@ 101a89b8     LIBCMTD:write.obj
 0002:0000a9c8       ??_C@_1FO@EPLDPDDL@?$AAf?$AA?3?$AA?2?$AAd?$AAd?$AA?2?$AAv?$AAc?$AAt?$AAo?$AAo?$AAl?$AAs?$AA?2?$AAc?$AAr?$AAt?$AA_?$AAb?$AAl?$AAd?$AA?2?$AAs?$AAe?$AAl?$AAf?$AA_?$AAx?$AA8?$AA6?$AA?2?$AAc@ 101a89c8     LIBCMTD:write.obj
 0002:0000aa28       ??_C@_1FO@LPCLHKGE@?$AA?$CI?$AAf?$AAh?$AA?5?$AA?$DO?$AA?$DN?$AA?5?$AA0?$AA?5?$AA?$CG?$AA?$CG?$AA?5?$AA?$CI?$AAu?$AAn?$AAs?$AAi?$AAg?$AAn?$AAe?$AAd?$AA?$CJ?$AAf?$AAh?$AA?5?$AA?$DM?$AA?5?$AA?$CI?$AAu?$AAn?$AAs?$AAi@ 101a8a28     LIBCMTD:write.obj
 0002:0000aa88       ??_C@_1DI@CNMHHHLG@?$AAi?$AAs?$AAl?$AAe?$AAa?$AAd?$AAb?$AAy?$AAt?$AAe?$AA?$CI?$AA_?$AAd?$AAb?$AAc?$AAs?$AAB?$AAu?$AAf?$AAf?$AAe?$AAr?$AA?$CI?$AAf?$AAh?$AA?$CJ?$AA?$CJ?$AA?$AA@ 101a8a88     LIBCMTD:write.obj
 0002:0000aac0       ??_C@_1CC@EEOLPHGO@?$AA?$CI?$AA?$CI?$AAc?$AAn?$AAt?$AA?5?$AA?$CG?$AA?5?$AA1?$AA?$CJ?$AA?5?$AA?$DN?$AA?$DN?$AA?5?$AA0?$AA?$CJ?$AA?$AA@ 101a8ac0     LIBCMTD:write.obj
 0002:0000aae4       ??_C@_1BM@NCANHCIP@?$AA_?$AAw?$AAr?$AAi?$AAt?$AAe?$AA_?$AAn?$AAo?$AAl?$AAo?$AAc?$AAk?$AA?$AA@ 101a8ae4     LIBCMTD:write.obj
 0002:0000ab00       ??_C@_1BM@KFJLMBPG@?$AA?$CI?$AAb?$AAu?$AAf?$AA?5?$AA?$CB?$AA?$DN?$AA?5?$AAN?$AAU?$AAL?$AAL?$AA?$CJ?$AA?$AA@ 101a8b00     LIBCMTD:write.obj
 0002:0000ab1c       ??_C@_1BA@JGHIEKKM@?$AA_?$AAf?$AAi?$AAl?$AAe?$AAn?$AAo?$AA?$AA@ 101a8b1c     LIBCMTD:fileno.obj
 0002:0000ab30       ??_C@_1GA@PBJHELNC@?$AAf?$AA?3?$AA?2?$AAd?$AAd?$AA?2?$AAv?$AAc?$AAt?$AAo?$AAo?$AAl?$AAs?$AA?2?$AAc?$AAr?$AAt?$AA_?$AAb?$AAl?$AAd?$AA?2?$AAs?$AAe?$AAl?$AAf?$AA_?$AAx?$AA8?$AA6?$AA?2?$AAc@ 101a8b30     LIBCMTD:fileno.obj
 0002:0000ab90       ??_C@_1O@EDOIKGHF@?$AA_?$AAl?$AAs?$AAe?$AAe?$AAk?$AA?$AA@ 101a8b90     LIBCMTD:lseek.obj
 0002:0000aba0       ??_C@_1FO@LGKMLCAL@?$AAf?$AA?3?$AA?2?$AAd?$AAd?$AA?2?$AAv?$AAc?$AAt?$AAo?$AAo?$AAl?$AAs?$AA?2?$AAc?$AAr?$AAt?$AA_?$AAb?$AAl?$AAd?$AA?2?$AAs?$AAe?$AAl?$AAf?$AA_?$AAx?$AA8?$AA6?$AA?2?$AAc@ 101a8ba0     LIBCMTD:lseek.obj
 0002:0000ac00       ??_C@_1DM@LMLOLGJ@?$AA?$CI?$AA?$CC?$AAI?$AAn?$AAv?$AAa?$AAl?$AAi?$AAd?$AA?5?$AAf?$AAi?$AAl?$AAe?$AA?5?$AAd?$AAe?$AAs?$AAc?$AAr?$AAi?$AAp?$AAt?$AAo?$AAr?$AA?$CC?$AA?0?$AA0?$AA?$CJ?$AA?$AA@ 101a8c00     LIBCMTD:lseek.obj
 0002:0000ac3c       ??_C@_1M@CKCKPMNP@?$AAf?$AAt?$AAe?$AAl?$AAl?$AA?$AA@ 101a8c3c     LIBCMTD:ftell.obj
 0002:0000ac48       ??_C@_1FO@NBACIADE@?$AAf?$AA?3?$AA?2?$AAd?$AAd?$AA?2?$AAv?$AAc?$AAt?$AAo?$AAo?$AAl?$AAs?$AA?2?$AAc?$AAr?$AAt?$AA_?$AAb?$AAl?$AAd?$AA?2?$AAs?$AAe?$AAl?$AAf?$AA_?$AAx?$AA8?$AA6?$AA?2?$AAc@ 101a8c48     LIBCMTD:ftell.obj
 0002:0000aca8       ??_C@_1BM@EPIDANEK@?$AA_?$AAf?$AAt?$AAe?$AAl?$AAl?$AA_?$AAn?$AAo?$AAl?$AAo?$AAc?$AAk?$AA?$AA@ 101a8ca8     LIBCMTD:ftell.obj
 0002:0000acc4       ??_C@_1BA@IIKEPOGH@?$AA_?$AAf?$AAi?$AAl?$AAb?$AAu?$AAf?$AA?$AA@ 101a8cc4     LIBCMTD:_filbuf.obj
 0002:0000acd8       ??_C@_1GC@CHFNJKFB@?$AAf?$AA?3?$AA?2?$AAd?$AAd?$AA?2?$AAv?$AAc?$AAt?$AAo?$AAo?$AAl?$AAs?$AA?2?$AAc?$AAr?$AAt?$AA_?$AAb?$AAl?$AAd?$AA?2?$AAs?$AAe?$AAl?$AAf?$AA_?$AAx?$AA8?$AA6?$AA?2?$AAc@ 101a8cd8     LIBCMTD:_filbuf.obj
 0002:0000ad3c       ??_C@_1CC@HBLPFNKH@?$AA?$CI?$AAc?$AAn?$AAt?$AA?5?$AA?$DM?$AA?$DN?$AA?5?$AAI?$AAN?$AAT?$AA_?$AAM?$AAA?$AAX?$AA?$CJ?$AA?$AA@ 101a8d3c     LIBCMTD:read.obj
 0002:0000ad60       ??_C@_1M@NHJOLLDM@?$AA_?$AAr?$AAe?$AAa?$AAd?$AA?$AA@ 101a8d60     LIBCMTD:read.obj
 0002:0000ad70       ??_C@_1FM@NGICBHLO@?$AAf?$AA?3?$AA?2?$AAd?$AAd?$AA?2?$AAv?$AAc?$AAt?$AAo?$AAo?$AAl?$AAs?$AA?2?$AAc?$AAr?$AAt?$AA_?$AAb?$AAl?$AAd?$AA?2?$AAs?$AAe?$AAl?$AAf?$AA_?$AAx?$AA8?$AA6?$AA?2?$AAc@ 101a8d70     LIBCMTD:read.obj
 0002:0000adcc       ??_C@_0CO@CEGKNHEH@f?3?2dd?2vctools?2crt_bld?2self_x86?2c@ 101a8dcc     LIBCMTD:read.obj
 0002:0000adfc       ??_C@_1CG@OHLJHGGK@?$AA?$CI?$AAi?$AAn?$AAp?$AAu?$AAt?$AAb?$AAu?$AAf?$AA?5?$AA?$CB?$AA?$DN?$AA?5?$AAN?$AAU?$AAL?$AAL?$AA?$CJ?$AA?$AA@ 101a8dfc     LIBCMTD:read.obj
 0002:0000ae24       ??_C@_1BK@JJBHNDKJ@?$AA_?$AAr?$AAe?$AAa?$AAd?$AA_?$AAn?$AAo?$AAl?$AAo?$AAc?$AAk?$AA?$AA@ 101a8e24     LIBCMTD:read.obj
 0002:0000ae40       ??_C@_1CK@DDKKOLAN@?$AAs?$AAi?$AAz?$AAe?$AAI?$AAn?$AAB?$AAy?$AAt?$AAe?$AAs?$AA?5?$AA?$DO?$AA?$DN?$AA?5?$AAc?$AAo?$AAu?$AAn?$AAt?$AA?$AA@ 101a8e40     LIBCMTD:memcpy_s.obj
 0002:0000ae6c       ??_C@_1BC@GKHDJMGB@?$AAm?$AAe?$AAm?$AAc?$AAp?$AAy?$AA_?$AAs?$AA?$AA@ 101a8e6c     LIBCMTD:memcpy_s.obj
 0002:0000ae80       ??_C@_1GE@NEOPGGBM@?$AAf?$AA?3?$AA?2?$AAd?$AAd?$AA?2?$AAv?$AAc?$AAt?$AAo?$AAo?$AAl?$AAs?$AA?2?$AAc?$AAr?$AAt?$AA_?$AAb?$AAl?$AAd?$AA?2?$AAs?$AAe?$AAl?$AAf?$AA_?$AAx?$AA8?$AA6?$AA?2?$AAc@ 101a8e80     LIBCMTD:memcpy_s.obj
 0002:0000aee4       ??_C@_1O@EDEJGJBM@?$AA_?$AAc?$AAl?$AAo?$AAs?$AAe?$AA?$AA@ 101a8ee4     LIBCMTD:close.obj
 0002:0000aef8       ??_C@_1FO@NNGNFGFH@?$AAf?$AA?3?$AA?2?$AAd?$AAd?$AA?2?$AAv?$AAc?$AAt?$AAo?$AAo?$AAl?$AAs?$AA?2?$AAc?$AAr?$AAt?$AA_?$AAb?$AAl?$AAd?$AA?2?$AAs?$AAe?$AAl?$AAf?$AA_?$AAx?$AA8?$AA6?$AA?2?$AAc@ 101a8ef8     LIBCMTD:close.obj
 0002:0000af58       ??_C@_1GE@MIMBMOF@?$AAf?$AA?3?$AA?2?$AAd?$AAd?$AA?2?$AAv?$AAc?$AAt?$AAo?$AAo?$AAl?$AAs?$AA?2?$AAc?$AAr?$AAt?$AA_?$AAb?$AAl?$AAd?$AA?2?$AAs?$AAe?$AAl?$AAf?$AA_?$AAx?$AA8?$AA6?$AA?2?$AAc@ 101a8f58     LIBCMTD:_freebuf.obj
 0002:0000afbc       ??_C@_1BO@KIJENGPH@?$AAs?$AAt?$AAr?$AAe?$AAa?$AAm?$AA?5?$AA?$CB?$AA?$DN?$AA?5?$AAN?$AAU?$AAL?$AAL?$AA?$AA@ 101a8fbc     LIBCMTD:_freebuf.obj
 0002:0000affc       ??_C@_1CI@KEDPFCAL@?$AA?$CI?$AA?$CK?$AAm?$AAo?$AAd?$AAe?$AA?5?$AA?$DN?$AA?$DN?$AA?5?$AA_?$AAT?$AA?$CI?$AA?8?$AA?2?$AA0?$AA?8?$AA?$CJ?$AA?$CJ?$AA?$AA@ 101a8ffc     LIBCMTD:_open.obj
 0002:0000b024       ??_C@_1BE@DONHJJKE@?$AA_?$AAo?$AAp?$AAe?$AAn?$AAf?$AAi?$AAl?$AAe?$AA?$AA@ 101a9024     LIBCMTD:_open.obj
 0002:0000b038       ??_C@_1DK@PKMJBLLN@?$AA?$CI?$AA?$CC?$AAI?$AAn?$AAv?$AAa?$AAl?$AAi?$AAd?$AA?5?$AAf?$AAi?$AAl?$AAe?$AA?5?$AAo?$AAp?$AAe?$AAn?$AA?5?$AAm?$AAo?$AAd?$AAe?$AA?$CC?$AA?0?$AA0?$AA?$CJ?$AA?$AA@ 101a9038     LIBCMTD:_open.obj
 0002:0000b074       ??_C@_1BK@HGLMNMEC@?$AAm?$AAo?$AAd?$AAe?$AA?5?$AA?$CB?$AA?$DN?$AA?5?$AAN?$AAU?$AAL?$AAL?$AA?$AA@ 101a9074     LIBCMTD:_open.obj
 0002:0000b090       ??_C@_1FO@POGAHKND@?$AAf?$AA?3?$AA?2?$AAd?$AAd?$AA?2?$AAv?$AAc?$AAt?$AAo?$AAo?$AAl?$AAs?$AA?2?$AAc?$AAr?$AAt?$AA_?$AAb?$AAl?$AAd?$AA?2?$AAs?$AAe?$AAl?$AAf?$AA_?$AAx?$AA8?$AA6?$AA?2?$AAc@ 101a9090     LIBCMTD:_open.obj
 0002:0000b0f0       ??_C@_1CC@JBMDNKJP@?$AAf?$AAi?$AAl?$AAe?$AAn?$AAa?$AAm?$AAe?$AA?5?$AA?$CB?$AA?$DN?$AA?5?$AAN?$AAU?$AAL?$AAL?$AA?$AA@ 101a90f0     LIBCMTD:_open.obj
 0002:0000b114       ??_C@_0DA@NLPACBPK@f?3?2dd?2vctools?2crt_bld?2self_x86?2c@ 101a9114     LIBCMTD:stream.obj
 0002:0000cac0       ??_C@_1BC@MJNBEDIJ@?$AA_?$AAi?$AAn?$AAp?$AAu?$AAt?$AA_?$AAl?$AA?$AA@ 101aaac0     LIBCMTD:input.obj
 0002:0000cad8       ??_C@_1FO@LDDBLKJ@?$AAf?$AA?3?$AA?2?$AAd?$AAd?$AA?2?$AAv?$AAc?$AAt?$AAo?$AAo?$AAl?$AAs?$AA?2?$AAc?$AAr?$AAt?$AA_?$AAb?$AAl?$AAd?$AA?2?$AAs?$AAe?$AAl?$AAf?$AA_?$AAx?$AA8?$AA6?$AA?2?$AAc@ 101aaad8     LIBCMTD:input.obj
 0002:0000cb38       ??_C@_0CP@MMGCGBFO@f?3?2dd?2vctools?2crt_bld?2self_x86?2c@ 101aab38     LIBCMTD:input.obj
 0002:0000cb68       ??_C@_1DO@MBOKMJPK@?$AAn?$AAF?$AAl?$AAo?$AAa?$AAt?$AAS?$AAt?$AAr?$AAU?$AAs?$AAe?$AAd?$AA?$DM?$AA?$DN?$AA?$CI?$AA?$CK?$AAp?$AAn?$AAF?$AAl?$AAo?$AAa?$AAt?$AAS?$AAt?$AAr?$AAS?$AAz?$AA?$CJ?$AA?$AA@ 101aab68     LIBCMTD:input.obj
 0002:0000cba8       ??_C@_1DG@MPPGJOHD@?$AA?$CI?$AA?$CC?$AAI?$AAn?$AAv?$AAa?$AAl?$AAi?$AAd?$AA?5?$AAI?$AAn?$AAp?$AAu?$AAt?$AA?5?$AAF?$AAo?$AAr?$AAm?$AAa?$AAt?$AA?$CC?$AA?0?$AA0?$AA?$CJ?$AA?$AA@ 101aaba8     LIBCMTD:inputs.obj
 0002:0000cbe0       ??_C@_1BG@LBKFJFHM@?$AA_?$AAi?$AAn?$AAp?$AAu?$AAt?$AA_?$AAs?$AA_?$AAl?$AA?$AA@ 101aabe0     LIBCMTD:inputs.obj
 0002:0000cbf8       ??_C@_0DB@OLNNDFNH@f?3?2dd?2vctools?2crt_bld?2self_x86?2c@ 101aabf8     LIBCMTD:_sftbuf.obj
 0002:0000cc30       ??_C@_1GC@DGAFOCMO@?$AAf?$AA?3?$AA?2?$AAd?$AAd?$AA?2?$AAv?$AAc?$AAt?$AAo?$AAo?$AAl?$AAs?$AA?2?$AAc?$AAr?$AAt?$AA_?$AAb?$AAl?$AAd?$AA?2?$AAs?$AAe?$AAl?$AAf?$AA_?$AAx?$AA8?$AA6?$AA?2?$AAc@ 101aac30     LIBCMTD:_sftbuf.obj
 0002:0000cc94       ??_C@_1CO@KCKAACMI@?$AAf?$AAl?$AAa?$AAg?$AA?5?$AA?$DN?$AA?$DN?$AA?5?$AA0?$AA?5?$AA?$HM?$AA?$HM?$AA?5?$AAf?$AAl?$AAa?$AAg?$AA?5?$AA?$DN?$AA?$DN?$AA?5?$AA1?$AA?$AA@ 101aac94     LIBCMTD:_sftbuf.obj
 0002:0000ccc4       ??_C@_0DA@NBLAKPEL@f?3?2dd?2vctools?2crt_bld?2self_x86?2c@ 101aacc4     LIBCMTD:ioinit.obj
 0002:0000ccf4       ??_C@_1CA@OEHMHBJF@?$AAv?$AAf?$AAp?$AAr?$AAi?$AAn?$AAt?$AAf?$AA_?$AAh?$AAe?$AAl?$AAp?$AAe?$AAr?$AA?$AA@ 101aacf4     LIBCMTD:vfprintf.obj
 0002:0000cd18       ??_C@_1GE@PEEPNGBM@?$AAf?$AA?3?$AA?2?$AAd?$AAd?$AA?2?$AAv?$AAc?$AAt?$AAo?$AAo?$AAl?$AAs?$AA?2?$AAc?$AAr?$AAt?$AA_?$AAb?$AAl?$AAd?$AA?2?$AAs?$AAe?$AAl?$AAf?$AA_?$AAx?$AA8?$AA6?$AA?2?$AAc@ 101aad18     LIBCMTD:vfprintf.obj
 0002:000106c0       ??_C@_1DG@LNNHNFHJ@?$AA?$CI?$AA_?$AAo?$AAs?$AAf?$AAi?$AAl?$AAe?$AA?$CI?$AAf?$AAi?$AAl?$AAe?$AAd?$AAe?$AAs?$AA?$CJ?$AA?5?$AA?$CG?$AA?5?$AAF?$AAO?$AAP?$AAE?$AAN?$AA?$CJ?$AA?$AA@ 101ae6c0     LIBCMTD:commit.obj
 0002:000106f8       ??_C@_1BA@FLNMBBIM@?$AA_?$AAc?$AAo?$AAm?$AAm?$AAi?$AAt?$AA?$AA@ 101ae6f8     LIBCMTD:commit.obj
 0002:00010708       ??_C@_1GA@BOPCOCFN@?$AAf?$AA?3?$AA?2?$AAd?$AAd?$AA?2?$AAv?$AAc?$AAt?$AAo?$AAo?$AAl?$AAs?$AA?2?$AAc?$AAr?$AAt?$AA_?$AAb?$AAl?$AAd?$AA?2?$AAs?$AAe?$AAl?$AAf?$AA_?$AAx?$AA8?$AA6?$AA?2?$AAc@ 101ae708     LIBCMTD:commit.obj
 0002:00010768       ??_C@_1HC@KFLBHHBC@?$AA?$CI?$AAf?$AAi?$AAl?$AAe?$AAd?$AAe?$AAs?$AA?5?$AA?$DO?$AA?$DN?$AA?5?$AA0?$AA?5?$AA?$CG?$AA?$CG?$AA?5?$AA?$CI?$AAu?$AAn?$AAs?$AAi?$AAg?$AAn?$AAe?$AAd?$AA?$CJ?$AAf?$AAi?$AAl?$AAe?$AAd@ 101ae768     LIBCMTD:commit.obj
 0002:000107dc       ??_C@_0CP@MKONOLCI@f?3?2dd?2vctools?2crt_bld?2self_x86?2c@ 101ae7dc     LIBCMTD:mlock.obj
 0002:00011eb0       ??_C@_0P@MIGLKIOC@CorExitProcess?$AA@ 101afeb0     LIBCMTD:crt0dat.obj
 0002:00011ec0       ??_C@_1BI@BGOHAHKC@?$AAm?$AAs?$AAc?$AAo?$AAr?$AAe?$AAe?$AA?4?$AAd?$AAl?$AAl?$AA?$AA@ 101afec0     LIBCMTD:crt0dat.obj
 0002:00011ed8       ??_C@_1CC@CDIPMFPD@?$AA_?$AAw?$AAp?$AAg?$AAm?$AAp?$AAt?$AAr?$AA?5?$AA?$CB?$AA?$DN?$AA?5?$AAN?$AAU?$AAL?$AAL?$AA?$AA@ 101afed8     LIBCMTD:crt0dat.obj
 0002:00011efc       ??_C@_1BK@PNLDCCDP@?$AA_?$AAg?$AAe?$AAt?$AA_?$AAw?$AAp?$AAg?$AAm?$AAp?$AAt?$AAr?$AA?$AA@ 101afefc     LIBCMTD:crt0dat.obj
 0002:00011f18       ??_C@_1GC@DGCPEDNJ@?$AAf?$AA?3?$AA?2?$AAd?$AAd?$AA?2?$AAv?$AAc?$AAt?$AAo?$AAo?$AAl?$AAs?$AA?2?$AAc?$AAr?$AAt?$AA_?$AAb?$AAl?$AAd?$AA?2?$AAs?$AAe?$AAl?$AAf?$AA_?$AAx?$AA8?$AA6?$AA?2?$AAc@ 101aff18     LIBCMTD:crt0dat.obj
 0002:00011f7c       ??_C@_1CA@BBNAFCKO@?$AA_?$AAp?$AAg?$AAm?$AAp?$AAt?$AAr?$AA?5?$AA?$CB?$AA?$DN?$AA?5?$AAN?$AAU?$AAL?$AAL?$AA?$AA@ 101aff7c     LIBCMTD:crt0dat.obj
 0002:00011f9c       ??_C@_1BI@COAAPHJK@?$AA_?$AAg?$AAe?$AAt?$AA_?$AAp?$AAg?$AAm?$AAp?$AAt?$AAr?$AA?$AA@ 101aff9c     LIBCMTD:crt0dat.obj
 0002:00011fb4       ??_C@_1O@EJLDHPPL@?$AAs?$AAi?$AAg?$AAn?$AAa?$AAl?$AA?$AA@ 101affb4     LIBCMTD:winsig.obj
 0002:00011fc8       ??_C@_1GA@DBECNFG@?$AAf?$AA?3?$AA?2?$AAd?$AAd?$AA?2?$AAv?$AAc?$AAt?$AAo?$AAo?$AAl?$AAs?$AA?2?$AAc?$AAr?$AAt?$AA_?$AAb?$AAl?$AAd?$AA?2?$AAs?$AAe?$AAl?$AAf?$AA_?$AAx?$AA8?$AA6?$AA?2?$AAc@ 101affc8     LIBCMTD:winsig.obj
 0002:00012028       ??_C@_1DO@MLNEDKGB@?$AA?$CI?$AA?$CC?$AAI?$AAn?$AAv?$AAa?$AAl?$AAi?$AAd?$AA?5?$AAs?$AAi?$AAg?$AAn?$AAa?$AAl?$AA?5?$AAo?$AAr?$AA?5?$AAe?$AAr?$AAr?$AAo?$AAr?$AA?$CC?$AA?0?$AA?5?$AA0?$AA?$CJ?$AA?$AA@ 101b0028     LIBCMTD:winsig.obj
 0002:00012068       ??_C@_0DA@ELJOOIJF@f?3?2dd?2vctools?2crt_bld?2self_x86?2c@ 101b0068     LIBCMTD:winsig.obj
 0002:00012098       ??_C@_1M@DMJEIKHL@?$AAr?$AAa?$AAi?$AAs?$AAe?$AA?$AA@ 101b0098     LIBCMTD:winsig.obj
 0002:000120a4       ??_C@_0BI@DFKBFLJE@GetProcessWindowStation?$AA@ 101b00a4     LIBCMTD:crtmboxw.obj
 0002:000120bc       ??_C@_0BK@DEKFELLI@GetUserObjectInformationW?$AA@ 101b00bc     LIBCMTD:crtmboxw.obj
 0002:000120d8       ??_C@_0BD@HHGDFDBJ@GetLastActivePopup?$AA@ 101b00d8     LIBCMTD:crtmboxw.obj
 0002:000120ec       ??_C@_0BA@HNOPNCHB@GetActiveWindow?$AA@ 101b00ec     LIBCMTD:crtmboxw.obj
 0002:000120fc       ??_C@_0M@DLDCCGNP@MessageBoxW?$AA@ 101b00fc     LIBCMTD:crtmboxw.obj
 0002:00012108       ??_C@_1BG@GOEBHBDC@?$AAU?$AAS?$AAE?$AAR?$AA3?$AA2?$AA?4?$AAD?$AAL?$AAL?$AA?$AA@ 101b0108     LIBCMTD:crtmboxw.obj
 0002:00012120       ??_C@_1CM@HABGDNLJ@?$AAl?$AAe?$AAn?$AAg?$AAt?$AAh?$AA?5?$AA?$DM?$AA?5?$AAs?$AAi?$AAz?$AAe?$AAI?$AAn?$AAT?$AAC?$AAh?$AAa?$AAr?$AAs?$AA?$AA@ 101b0120     LIBCMTD:xtows.obj
 0002:0001214c       ??_C@_1DE@PCJGDBBD@?$AA2?$AA?5?$AA?$DM?$AA?$DN?$AA?5?$AAr?$AAa?$AAd?$AAi?$AAx?$AA?5?$AA?$CG?$AA?$CG?$AA?5?$AAr?$AAa?$AAd?$AAi?$AAx?$AA?5?$AA?$DM?$AA?$DN?$AA?5?$AA3?$AA6?$AA?$AA@ 101b014c     LIBCMTD:xtows.obj
 0002:00012180       ??_C@_1FA@MKGGAGEI@?$AAs?$AAi?$AAz?$AAe?$AAI?$AAn?$AAT?$AAC?$AAh?$AAa?$AAr?$AAs?$AA?5?$AA?$DO?$AA?5?$AA?$CI?$AAs?$AAi?$AAz?$AAe?$AA_?$AAt?$AA?$CJ?$AA?$CI?$AAi?$AAs?$AA_?$AAn?$AAe?$AAg?$AA?5?$AA?$DP@ 101b0180     LIBCMTD:xtows.obj
 0002:000121d0       ??_C@_1CC@JNJFIMGE@?$AAs?$AAi?$AAz?$AAe?$AAI?$AAn?$AAT?$AAC?$AAh?$AAa?$AAr?$AAs?$AA?5?$AA?$DO?$AA?5?$AA0?$AA?$AA@ 101b01d0     LIBCMTD:xtows.obj
 0002:000121f4       ??_C@_1O@NCBFODOE@?$AAx?$AAt?$AAo?$AAw?$AA_?$AAs?$AA?$AA@ 101b01f4     LIBCMTD:xtows.obj
 0002:00012208       ??_C@_1FM@MFCBFCGB@?$AAf?$AA?3?$AA?2?$AAd?$AAd?$AA?2?$AAv?$AAc?$AAt?$AAo?$AAo?$AAl?$AAs?$AA?2?$AAc?$AAr?$AAt?$AA_?$AAb?$AAl?$AAd?$AA?2?$AAs?$AAe?$AAl?$AAf?$AA_?$AAx?$AA8?$AA6?$AA?2?$AAc@ 101b0208     LIBCMTD:xtows.obj
 0002:00012264       ??_C@_1BC@HDEJCFPB@?$AAx?$AA6?$AA4?$AAt?$AAo?$AAw?$AA_?$AAs?$AA?$AA@ 101b0264     LIBCMTD:xtows.obj
 0002:00012278       ??_C@_1DM@MADKGDLO@?$AA?$CI?$AAL?$AA?$CC?$AAB?$AAu?$AAf?$AAf?$AAe?$AAr?$AA?5?$AAi?$AAs?$AA?5?$AAt?$AAo?$AAo?$AA?5?$AAs?$AAm?$AAa?$AAl?$AAl?$AA?$CC?$AA?5?$AA?$CG?$AA?$CG?$AA?5?$AA0?$AA?$CJ?$AA?$AA@ 101b0278     LIBCMTD:wcsncat_s.obj
 0002:000122b4       ??_C@_1CI@HCPHDDLE@?$AAB?$AAu?$AAf?$AAf?$AAe?$AAr?$AA?5?$AAi?$AAs?$AA?5?$AAt?$AAo?$AAo?$AA?5?$AAs?$AAm?$AAa?$AAl?$AAl?$AA?$AA@ 101b02b4     LIBCMTD:wcsncat_s.obj
 0002:000122e0       ??_C@_1FA@MJKDNFFB@?$AA?$CI?$AAL?$AA?$CC?$AAS?$AAt?$AAr?$AAi?$AAn?$AAg?$AA?5?$AAi?$AAs?$AA?5?$AAn?$AAo?$AAt?$AA?5?$AAn?$AAu?$AAl?$AAl?$AA?5?$AAt?$AAe?$AAr?$AAm?$AAi?$AAn?$AAa?$AAt?$AAe?$AAd@ 101b02e0     LIBCMTD:wcsncat_s.obj
 0002:00012330       ??_C@_1DM@FHLMIEG@?$AAS?$AAt?$AAr?$AAi?$AAn?$AAg?$AA?5?$AAi?$AAs?$AA?5?$AAn?$AAo?$AAt?$AA?5?$AAn?$AAu?$AAl?$AAl?$AA?5?$AAt?$AAe?$AAr?$AAm?$AAi?$AAn?$AAa?$AAt?$AAe?$AAd?$AA?$AA@ 101b0330     LIBCMTD:wcsncat_s.obj
 0002:0001236c       ??_C@_1CG@OFBJMIGJ@?$AA?$CI?$AA?$CI?$AA?$CI?$AA_?$AAS?$AAr?$AAc?$AA?$CJ?$AA?$CJ?$AA?$CJ?$AA?5?$AA?$CB?$AA?$DN?$AA?5?$AAN?$AAU?$AAL?$AAL?$AA?$AA@ 101b036c     LIBCMTD:wcsncat_s.obj
 0002:00012394       ??_C@_1BE@KPKIKKCF@?$AAw?$AAc?$AAs?$AAn?$AAc?$AAa?$AAt?$AA_?$AAs?$AA?$AA@ 101b0394     LIBCMTD:wcsncat_s.obj
 0002:000123a8       ??_C@_1GK@DICCLCDF@?$AAf?$AA?3?$AA?2?$AAd?$AAd?$AA?2?$AAv?$AAc?$AAt?$AAo?$AAo?$AAl?$AAs?$AA?2?$AAc?$AAr?$AAt?$AA_?$AAb?$AAl?$AAd?$AA?2?$AAs?$AAe?$AAl?$AAf?$AA_?$AAx?$AA8?$AA6?$AA?2?$AAc@ 101b03a8     LIBCMTD:wcsncat_s.obj
 0002:00012418       ??_C@_1FC@PFMLEHKI@?$AA?$CI?$AA?$CI?$AA_?$AAD?$AAs?$AAt?$AA?$CJ?$AA?$CJ?$AA?5?$AA?$CB?$AA?$DN?$AA?5?$AAN?$AAU?$AAL?$AAL?$AA?5?$AA?$CG?$AA?$CG?$AA?5?$AA?$CI?$AA?$CI?$AA_?$AAS?$AAi?$AAz?$AAe?$AAI?$AAn?$AAW?$AAo?$AAr@ 101b0418     LIBCMTD:wcsncat_s.obj
 0002:0001246c       ??_C@_1BE@PMMBFFCC@?$AAw?$AAc?$AAs?$AAn?$AAc?$AAp?$AAy?$AA_?$AAs?$AA?$AA@ 101b046c     LIBCMTD:wcsncpy_s.obj
 0002:00012480       ??_C@_1GK@PAJJBKJF@?$AAf?$AA?3?$AA?2?$AAd?$AAd?$AA?2?$AAv?$AAc?$AAt?$AAo?$AAo?$AAl?$AAs?$AA?2?$AAc?$AAr?$AAt?$AA_?$AAb?$AAl?$AAd?$AA?2?$AAs?$AAe?$AAl?$AAf?$AA_?$AAx?$AA8?$AA6?$AA?2?$AAc@ 101b0480     LIBCMTD:wcsncpy_s.obj
 0002:000124ec       ??_C@_1BC@PLIEPKPJ@?$AAw?$AAc?$AAs?$AAc?$AAa?$AAt?$AA_?$AAs?$AA?$AA@ 101b04ec     LIBCMTD:wcscat_s.obj
 0002:00012500       ??_C@_1GI@NOKGIAGA@?$AAf?$AA?3?$AA?2?$AAd?$AAd?$AA?2?$AAv?$AAc?$AAt?$AAo?$AAo?$AAl?$AAs?$AA?2?$AAc?$AAr?$AAt?$AA_?$AAb?$AAl?$AAd?$AA?2?$AAs?$AAe?$AAl?$AAf?$AA_?$AAx?$AA8?$AA6?$AA?2?$AAc@ 101b0500     LIBCMTD:wcscat_s.obj
 0002:00012568       ??_C@_1BC@KIONAFPO@?$AAw?$AAc?$AAs?$AAc?$AAp?$AAy?$AA_?$AAs?$AA?$AA@ 101b0568     LIBCMTD:wcscpy_s.obj
 0002:00012580       ??_C@_1GI@BGBNCIMA@?$AAf?$AA?3?$AA?2?$AAd?$AAd?$AA?2?$AAv?$AAc?$AAt?$AAo?$AAo?$AAl?$AAs?$AA?2?$AAc?$AAr?$AAt?$AA_?$AAb?$AAl?$AAd?$AA?2?$AAs?$AAe?$AAl?$AAf?$AA_?$AAx?$AA8?$AA6?$AA?2?$AAc@ 101b0580     LIBCMTD:wcscpy_s.obj
 0002:000125e8       ??_C@_1BC@BHLPNJBO@?$AAf?$AAw?$AAp?$AAr?$AAi?$AAn?$AAt?$AAf?$AA?$AA@ 101b05e8     LIBCMTD:fwprintf.obj
 0002:00012600       ??_C@_1GE@NIBJAMDO@?$AAf?$AA?3?$AA?2?$AAd?$AAd?$AA?2?$AAv?$AAc?$AAt?$AAo?$AAo?$AAl?$AAs?$AA?2?$AAc?$AAr?$AAt?$AA_?$AAb?$AAl?$AAd?$AA?2?$AAs?$AAe?$AAl?$AAf?$AA_?$AAx?$AA8?$AA6?$AA?2?$AAc@ 101b0600     LIBCMTD:fwprintf.obj
 0002:00012664       ??_C@_0DB@MIGHMKAN@f?3?2dd?2vctools?2crt_bld?2self_x86?2c@ 101b0664     LIBCMTD:setvbuf.obj
 0002:00012698       ??_C@_1EG@IJNJIDNB@?$AA?$CI?$AA?$CI?$AA2?$AA?5?$AA?$DM?$AA?$DN?$AA?5?$AAs?$AAi?$AAz?$AAe?$AA?$CJ?$AA?5?$AA?$CG?$AA?$CG?$AA?5?$AA?$CI?$AAs?$AAi?$AAz?$AAe?$AA?5?$AA?$DM?$AA?$DN?$AA?5?$AAI?$AAN?$AAT?$AA_?$AAM?$AAA?$AAX@ 101b0698     LIBCMTD:setvbuf.obj
 0002:000126e0       ??_C@_1HC@CBFEDAGG@?$AA?$CI?$AAt?$AAy?$AAp?$AAe?$AA?5?$AA?$DN?$AA?$DN?$AA?5?$AA_?$AAI?$AAO?$AAN?$AAB?$AAF?$AA?$CJ?$AA?5?$AA?$HM?$AA?$HM?$AA?5?$AA?$CI?$AAt?$AAy?$AAp?$AAe?$AA?5?$AA?$DN?$AA?$DN?$AA?5?$AA_?$AAI?$AAO@ 101b06e0     LIBCMTD:setvbuf.obj
 0002:00012754       ??_C@_1BA@OGODIODK@?$AAs?$AAe?$AAt?$AAv?$AAb?$AAu?$AAf?$AA?$AA@ 101b0754     LIBCMTD:setvbuf.obj
 0002:00012768       ??_C@_1GC@FPPJLAOD@?$AAf?$AA?3?$AA?2?$AAd?$AAd?$AA?2?$AAv?$AAc?$AAt?$AAo?$AAo?$AAl?$AAs?$AA?2?$AAc?$AAr?$AAt?$AA_?$AAb?$AAl?$AAd?$AA?2?$AAs?$AAe?$AAl?$AAf?$AA_?$AAx?$AA8?$AA6?$AA?2?$AAc@ 101b0768     LIBCMTD:setvbuf.obj
 0002:000127cc       ??_C@_1CA@LFDHAMEM@?$AA_?$AAs?$AAe?$AAt?$AA_?$AAe?$AAr?$AAr?$AAo?$AAr?$AA_?$AAm?$AAo?$AAd?$AAe?$AA?$AA@ 101b07cc     LIBCMTD:errmode.obj
 0002:000127f0       ??_C@_1GC@FGMGFCNB@?$AAf?$AA?3?$AA?2?$AAd?$AAd?$AA?2?$AAv?$AAc?$AAt?$AAo?$AAo?$AAl?$AAs?$AA?2?$AAc?$AAr?$AAt?$AA_?$AAb?$AAl?$AAd?$AA?2?$AAs?$AAe?$AAl?$AAf?$AA_?$AAx?$AA8?$AA6?$AA?2?$AAc@ 101b07f0     LIBCMTD:errmode.obj
 0002:00012854       ??_C@_1DE@BCNCAIK@?$AA?$CI?$AA?$CC?$AAI?$AAn?$AAv?$AAa?$AAl?$AAi?$AAd?$AA?5?$AAe?$AAr?$AAr?$AAo?$AAr?$AA_?$AAm?$AAo?$AAd?$AAe?$AA?$CC?$AA?0?$AA?5?$AA0?$AA?$CJ?$AA?$AA@ 101b0854     LIBCMTD:errmode.obj
 0002:00012888       ??_C@_1CE@IGKFIJFD@?$AA_?$AAv?$AAs?$AAw?$AAp?$AAr?$AAi?$AAn?$AAt?$AAf?$AA_?$AAh?$AAe?$AAl?$AAp?$AAe?$AAr?$AA?$AA@ 101b0888     LIBCMTD:vswprnc.obj
 0002:000128b0       ??_C@_1GE@KINELFI@?$AAf?$AA?3?$AA?2?$AAd?$AAd?$AA?2?$AAv?$AAc?$AAt?$AAo?$AAo?$AAl?$AAs?$AA?2?$AAc?$AAr?$AAt?$AA_?$AAb?$AAl?$AAd?$AA?2?$AAs?$AAe?$AAl?$AAf?$AA_?$AAx?$AA8?$AA6?$AA?2?$AAc@ 101b08b0     LIBCMTD:vswprnc.obj
 0002:00012918       ??_C@_1EE@MPCHJFGP@?$AAs?$AAt?$AAr?$AAi?$AAn?$AAg?$AA?5?$AA?$CB?$AA?$DN?$AA?5?$AAN?$AAU?$AAL?$AAL?$AA?5?$AA?$CG?$AA?$CG?$AA?5?$AAs?$AAi?$AAz?$AAe?$AAI?$AAn?$AAW?$AAo?$AAr?$AAd?$AAs?$AA?5?$AA?$DO?$AA?5@ 101b0918     LIBCMTD:vswprnc.obj
 0002:0001295c       ??_C@_1BO@OALHJLCI@?$AA_?$AAv?$AAs?$AAw?$AAp?$AAr?$AAi?$AAn?$AAt?$AAf?$AA_?$AAs?$AA_?$AAl?$AA?$AA@ 101b095c     LIBCMTD:vswprnc.obj
 0002:0001297c       ??_C@_1CA@BKFKMJFF@?$AA_?$AAv?$AAs?$AAn?$AAw?$AAp?$AAr?$AAi?$AAn?$AAt?$AAf?$AA_?$AAs?$AA_?$AAl?$AA?$AA@ 101b097c     LIBCMTD:vswprnc.obj
 0002:0001299c       ??_C@_1DE@MMOGFGHF@?$AAs?$AAt?$AAr?$AAc?$AAp?$AAy?$AA_?$AAs?$AA?$CI?$AA?$CK?$AAe?$AAn?$AAv?$AA?0?$AA?5?$AAc?$AAc?$AAh?$AAa?$AAr?$AAs?$AA?0?$AA?5?$AAp?$AA?$CJ?$AA?$AA@ 101b099c     LIBCMTD:stdenvp.obj
 0002:000129d0       ??_C@_1BC@GHMCNHHL@?$AA_?$AAs?$AAe?$AAt?$AAe?$AAn?$AAv?$AAp?$AA?$AA@ 101b09d0     LIBCMTD:stdenvp.obj
 0002:000129e8       ??_C@_1GC@DGBFLDBN@?$AAf?$AA?3?$AA?2?$AAd?$AAd?$AA?2?$AAv?$AAc?$AAt?$AAo?$AAo?$AAl?$AAs?$AA?2?$AAc?$AAr?$AAt?$AA_?$AAb?$AAl?$AAd?$AA?2?$AAs?$AAe?$AAl?$AAf?$AA_?$AAx?$AA8?$AA6?$AA?2?$AAc@ 101b09e8     LIBCMTD:stdenvp.obj
 0002:00012a4c       ??_C@_0DB@BMEBJJKP@f?3?2dd?2vctools?2crt_bld?2self_x86?2c@ 101b0a4c     LIBCMTD:stdenvp.obj
 0002:00012a80       ??_C@_0DB@OEPBJOLC@f?3?2dd?2vctools?2crt_bld?2self_x86?2c@ 101b0a80     LIBCMTD:stdargv.obj
 0002:00012ab4       ??_C@_0CP@PPLBCJDN@f?3?2dd?2vctools?2crt_bld?2self_x86?2c@ 101b0ab4     LIBCMTD:a_env.obj
 0002:00012ae8       ??_C@_1GE@JDDMFOID@?$AAf?$AA?3?$AA?2?$AAd?$AAd?$AA?2?$AAv?$AAc?$AAt?$AAo?$AAo?$AAl?$AAs?$AA?2?$AAc?$AAr?$AAt?$AA_?$AAb?$AAl?$AAd?$AA?2?$AAs?$AAe?$AAl?$AAf?$AA_?$AAx?$AA8?$AA6?$AA?2?$AAc@ 101b0ae8     LIBCMTD:heapinit.obj
 0002:00012b4c       ??_C@_1BC@DENNNKIM@?$AA_?$AAc?$AAr?$AAt?$AAh?$AAe?$AAa?$AAp?$AA?$AA@ 101b0b4c     LIBCMTD:heapinit.obj
 0002:00012b60       __XcptActTab               101b0b60     LIBCMTD:winxfltr.obj
 0002:00012bd8       ??_C@_1BK@CDOALEA@?$AA_?$AAc?$AAo?$AAn?$AAt?$AAr?$AAo?$AAl?$AAf?$AAp?$AA_?$AAs?$AA?$AA@ 101b0bd8     LIBCMTD:_contrlfp_.obj
 0002:00012bf8       ??_C@_1HI@JIOCECAH@?$AAf?$AA?3?$AA?2?$AAd?$AAd?$AA?2?$AAv?$AAc?$AAt?$AAo?$AAo?$AAl?$AAs?$AA?2?$AAc?$AAr?$AAt?$AA_?$AAb?$AAl?$AAd?$AA?2?$AAs?$AAe?$AAl?$AAf?$AA_?$AAx?$AA8?$AA6?$AA?2?$AAc@ 101b0bf8     LIBCMTD:_contrlfp_.obj
 0002:00012c70       ??_C@_1DG@JNDMIEJL@?$AA?$CI?$AA?$CC?$AAI?$AAn?$AAv?$AAa?$AAl?$AAi?$AAd?$AA?5?$AAi?$AAn?$AAp?$AAu?$AAt?$AA?5?$AAv?$AAa?$AAl?$AAu?$AAe?$AA?$CC?$AA?0?$AA?5?$AA0?$AA?$CJ?$AA?$AA@ 101b0c70     LIBCMTD:_contrlfp_.obj
 0002:00012ca8       ??_C@_1BK@CLIEHFDF@?$AAp?$AAf?$AAl?$AAt?$AA?5?$AA?$CB?$AA?$DN?$AA?5?$AAN?$AAU?$AAL?$AAL?$AA?$AA@ 101b0ca8     LIBCMTD:_fptostr.obj
 0002:00012cc8       ??_C@_1GM@CEDLGDDI@?$AAs?$AAi?$AAz?$AAe?$AAI?$AAn?$AAB?$AAy?$AAt?$AAe?$AAs?$AA?5?$AA?$DO?$AA?5?$AA?$CI?$AAs?$AAi?$AAz?$AAe?$AA_?$AAt?$AA?$CJ?$AA?$CI?$AA?$CI?$AAd?$AAi?$AAg?$AAi?$AAt?$AAs?$AA?5?$AA?$DO@ 101b0cc8     LIBCMTD:_fptostr.obj
 0002:00012d34       ??_C@_1BC@OPALLEB@?$AA_?$AAf?$AAp?$AAt?$AAo?$AAs?$AAt?$AAr?$AA?$AA@ 101b0d34     LIBCMTD:_fptostr.obj
 0002:00012d48       ??_C@_1GE@BDKOPHIO@?$AAf?$AA?3?$AA?2?$AAd?$AAd?$AA?2?$AAv?$AAc?$AAt?$AAo?$AAo?$AAl?$AAs?$AA?2?$AAc?$AAr?$AAt?$AA_?$AAb?$AAl?$AAd?$AA?2?$AAs?$AAe?$AAl?$AAf?$AA_?$AAx?$AA8?$AA6?$AA?2?$AAc@ 101b0d48     LIBCMTD:_fptostr.obj
 0002:00012db0       ??_C@_1FK@KODCOBKF@?$AAs?$AAt?$AAr?$AAc?$AAp?$AAy?$AA_?$AAs?$AA?$CI?$AAr?$AAe?$AAs?$AAu?$AAl?$AAt?$AAs?$AAt?$AAr?$AA?0?$AA?5?$AAr?$AAe?$AAs?$AAu?$AAl?$AAt?$AAs?$AAi?$AAz?$AAe?$AA?0?$AA?5@ 101b0db0     LIBCMTD:_cfout_.obj
 0002:00012e0c       ??_C@_1BC@BPMMEHLK@?$AA_?$AAf?$AAl?$AAt?$AAo?$AAu?$AAt?$AA2?$AA?$AA@ 101b0e0c     LIBCMTD:_cfout_.obj
 0002:00012e20       ??_C@_1HC@PKFDNKN@?$AAf?$AA?3?$AA?2?$AAd?$AAd?$AA?2?$AAv?$AAc?$AAt?$AAo?$AAo?$AAl?$AAs?$AA?2?$AAc?$AAr?$AAt?$AA_?$AAb?$AAl?$AAd?$AA?2?$AAs?$AAe?$AAl?$AAf?$AA_?$AAx?$AA8?$AA6?$AA?2?$AAc@ 101b0e20     LIBCMTD:_cfout_.obj
 0002:00012e94       ??_C@_1CG@EBJECAJM@?$AA_?$AAs?$AAe?$AAt?$AA_?$AAo?$AAu?$AAt?$AAp?$AAu?$AAt?$AA_?$AAf?$AAo?$AAr?$AAm?$AAa?$AAt?$AA?$AA@ 101b0e94     LIBCMTD:outputformat.obj
 0002:00012ec0       ??_C@_1GM@NFGGJJCM@?$AAf?$AA?3?$AA?2?$AAd?$AAd?$AA?2?$AAv?$AAc?$AAt?$AAo?$AAo?$AAl?$AAs?$AA?2?$AAc?$AAr?$AAt?$AA_?$AAb?$AAl?$AAd?$AA?2?$AAs?$AAe?$AAl?$AAf?$AA_?$AAx?$AA8?$AA6?$AA?2?$AAc@ 101b0ec0     LIBCMTD:outputformat.obj
 0002:00012f30       ??_C@_1EM@EGEEBJLG@?$AA?$CI?$AAo?$AAp?$AAt?$AAi?$AAo?$AAn?$AAs?$AA?5?$AA?$CG?$AA?5?$AA?$HO?$AA_?$AAT?$AAW?$AAO?$AA_?$AAD?$AAI?$AAG?$AAI?$AAT?$AA_?$AAE?$AAX?$AAP?$AAO?$AAN?$AAE?$AAN?$AAT?$AA?$CJ@ 101b0f30     LIBCMTD:outputformat.obj
 0002:00012f7c       ??_C@_1BC@CFJEPFGF@?$AAs?$AAt?$AAr?$AAc?$AAp?$AAy?$AA_?$AAs?$AA?$AA@ 101b0f7c     LIBCMTD:strcpy_s.obj
 0002:00012f90       ??_C@_1FC@NCPEPIBI@?$AA?$CI?$AA?$CI?$AA_?$AAD?$AAs?$AAt?$AA?$CJ?$AA?$CJ?$AA?5?$AA?$CB?$AA?$DN?$AA?5?$AAN?$AAU?$AAL?$AAL?$AA?5?$AA?$CG?$AA?$CG?$AA?5?$AA?$CI?$AA?$CI?$AA_?$AAS?$AAi?$AAz?$AAe?$AAI?$AAn?$AAB?$AAy?$AAt@ 101b0f90     LIBCMTD:strcpy_s.obj
 0002:00012fe8       ??_C@_1GG@CDHAPCGF@?$AAf?$AA?3?$AA?2?$AAd?$AAd?$AA?2?$AAv?$AAc?$AAt?$AAo?$AAo?$AAl?$AAs?$AA?2?$AAc?$AAr?$AAt?$AA_?$AAb?$AAl?$AAd?$AA?2?$AAs?$AAe?$AAl?$AAf?$AA_?$AAx?$AA8?$AA6?$AA?2?$AAc@ 101b0fe8     LIBCMTD:handler.obj
 0002:00013050       ??_C@_1BC@JLLICHIC@?$AAp?$AAn?$AAh?$AA?5?$AA?$DN?$AA?$DN?$AA?5?$AA0?$AA?$AA@ 101b1050     LIBCMTD:handler.obj
 0002:00013064       ??_C@_03KHICJKCI@?4?4?4?$AA@ 101b1064     LIBCMTD:dbgrpt.obj
 0002:00013068       ??_C@_0BB@NAGLCMLI@Assertion?5Failed?$AA@ 101b1068     LIBCMTD:dbgrpt.obj
 0002:0001307c       ??_C@_05NAOIJFC@Error?$AA@ 101b107c     LIBCMTD:dbgrpt.obj
 0002:00013084       ??_C@_07KGMMFLDN@Warning?$AA@ 101b1084     LIBCMTD:dbgrpt.obj
 0002:00013098       ??_C@_1CG@GNMJDMIO@?$AA_?$AAC?$AAr?$AAt?$AAS?$AAe?$AAt?$AAR?$AAe?$AAp?$AAo?$AAr?$AAt?$AAH?$AAo?$AAo?$AAk?$AA2?$AA?$AA@ 101b1098     LIBCMTD:dbgrpt.obj
 0002:000130c0       ??_C@_0CD@EBCGLDDL@Microsoft?5Visual?5C?$CL?$CL?5Debug?5Libra@ 101b10c0     LIBCMTD:dbgrpt.obj
 0002:000130e4       ??_C@_0CL@EACFGMNB@_CrtDbgReport?3?5String?5too?5long?5o@ 101b10e4     LIBCMTD:dbgrpt.obj
 0002:00013110       ??_C@_1JG@CPKCIOEE@?$AAs?$AAt?$AAr?$AAc?$AAp?$AAy?$AA_?$AAs?$AA?$CI?$AAs?$AAz?$AAO?$AAu?$AAt?$AAM?$AAe?$AAs?$AAs?$AAa?$AAg?$AAe?$AA?0?$AA?5?$AA4?$AA0?$AA9?$AA6?$AA?0?$AA?5?$AA?$CC?$AA_?$AAC@ 101b1110     LIBCMTD:dbgrpt.obj
 0002:000131a8       ??_C@_0FF@CCONDJCB@Debug?5?$CFs?$CB?6?6Program?3?5?$CFs?$CFs?$CFs?$CFs?$CFs?$CFs@ 101b11a8     LIBCMTD:dbgrpt.obj
 0002:00013200       ??_C@_09OFBFHMBK@?6Module?3?5?$AA@ 101b1200     LIBCMTD:dbgrpt.obj
 0002:0001320c       ??_C@_07OPHPPLBG@?6File?3?5?$AA@ 101b120c     LIBCMTD:dbgrpt.obj
 0002:00013214       ??_C@_07DBMPPHDI@?6Line?3?5?$AA@ 101b1214     LIBCMTD:dbgrpt.obj
 0002:0001321c       ??_C@_02PHMGELLB@?6?6?$AA@ 101b121c     LIBCMTD:dbgrpt.obj
 0002:00013220       ??_C@_0N@MEECIJGN@Expression?3?5?$AA@ 101b1220     LIBCMTD:dbgrpt.obj
 0002:00013230       ??_C@_0HD@GNBNFCCL@?6?6For?5information?5on?5how?5your?5pr@ 101b1230     LIBCMTD:dbgrpt.obj
 0002:000132a4       ??_C@_0BH@DNAGHKFM@?$DMprogram?5name?5unknown?$DO?$AA@ 101b12a4     LIBCMTD:dbgrpt.obj
 0002:000132c0       ??_C@_1GG@DLDHOIGE@?$AAs?$AAt?$AAr?$AAc?$AAp?$AAy?$AA_?$AAs?$AA?$CI?$AAs?$AAz?$AAE?$AAx?$AAe?$AAN?$AAa?$AAm?$AAe?$AA?0?$AA?5?$AA2?$AA6?$AA0?$AA?0?$AA?5?$AA?$CC?$AA?$DM?$AAp?$AAr?$AAo?$AAg?$AAr@ 101b12c0     LIBCMTD:dbgrpt.obj
 0002:00013328       ??_C@_1CI@IDOKFLAJ@?$AA_?$AA_?$AAc?$AAr?$AAt?$AAM?$AAe?$AAs?$AAs?$AAa?$AAg?$AAe?$AAW?$AAi?$AAn?$AAd?$AAo?$AAw?$AAA?$AA?$AA@ 101b1328     LIBCMTD:dbgrpt.obj
 0002:00013350       ??_C@_1BK@JMCGJOCC@?$AA_?$AAe?$AAx?$AAp?$AAa?$AAn?$AAd?$AA_?$AAb?$AAa?$AAs?$AAe?$AA?$AA@ 101b1350     LIBCMTD:expand.obj
 0002:00013370       ??_C@_1GA@EBHFLDNH@?$AAf?$AA?3?$AA?2?$AAd?$AAd?$AA?2?$AAv?$AAc?$AAt?$AAo?$AAo?$AAl?$AAs?$AA?2?$AAc?$AAr?$AAt?$AA_?$AAb?$AAl?$AAd?$AA?2?$AAs?$AAe?$AAl?$AAf?$AA_?$AAx?$AA8?$AA6?$AA?2?$AAc@ 101b1370     LIBCMTD:expand.obj
 0002:000133d0       ??_C@_1BO@KFIJIAEA@?$AAp?$AAB?$AAl?$AAo?$AAc?$AAk?$AA?5?$AA?$CB?$AA?$DN?$AA?5?$AAN?$AAU?$AAL?$AAL?$AA?$AA@ 101b13d0     LIBCMTD:expand.obj
 0002:000133f0       ??_C@_0BF@PEEJCKGM@HeapQueryInformation?$AA@ 101b13f0     LIBCMTD:expand.obj
 0002:00013408       ??_C@_1BK@MGMFAEKH@?$AAk?$AAe?$AAr?$AAn?$AAe?$AAl?$AA3?$AA2?$AA?4?$AAd?$AAl?$AAl?$AA?$AA@ 101b1408     LIBCMTD:expand.obj
 0002:00013428       ??_C@_1GA@CMCJKKIB@?$AAf?$AA?3?$AA?2?$AAd?$AAd?$AA?2?$AAv?$AAc?$AAt?$AAo?$AAo?$AAl?$AAs?$AA?2?$AAc?$AAr?$AAt?$AA_?$AAb?$AAl?$AAd?$AA?2?$AAs?$AAe?$AAl?$AAf?$AA_?$AAx?$AA8?$AA6?$AA?2?$AAc@ 101b1428     LIBCMTD:sbheap.obj
 0002:00013488       ??_C@_1IC@MOGBEBCE@?$AA?$CI?$AAt?$AAh?$AAr?$AAe?$AAs?$AAh?$AAo?$AAl?$AAd?$AA?5?$AA?$DM?$AA?$DN?$AA?5?$AAM?$AAA?$AAX?$AA_?$AAA?$AAL?$AAL?$AAO?$AAC?$AA_?$AAD?$AAA?$AAT?$AAA?$AA_?$AAS?$AAI?$AAZ@ 101b1488     LIBCMTD:sbheap.obj
 0002:0001350c       ??_C@_1CG@BBFCGKBK@?$AA_?$AAs?$AAe?$AAt?$AA_?$AAs?$AAb?$AAh?$AA_?$AAt?$AAh?$AAr?$AAe?$AAs?$AAh?$AAo?$AAl?$AAd?$AA?$AA@ 101b150c     LIBCMTD:sbheap.obj
 0002:00013538       ??_C@_1EC@DACAONFE@?$AAt?$AAh?$AAr?$AAe?$AAs?$AAh?$AAo?$AAl?$AAd?$AA?5?$AA?$DM?$AA?$DN?$AA?5?$AAM?$AAA?$AAX?$AA_?$AAA?$AAL?$AAL?$AAO?$AAC?$AA_?$AAD?$AAA?$AAT?$AAA?$AA_?$AAS?$AAI?$AAZ?$AAE@ 101b1538     LIBCMTD:sbheap.obj
 0002:0001357c       ??_C@_1BM@GFNECEDD@?$AA_?$AAs?$AAe?$AAt?$AA_?$AAa?$AAm?$AAb?$AAl?$AAk?$AAs?$AAi?$AAz?$AA?$AA@ 101b157c     LIBCMTD:sbheap.obj
 0002:00013598       ??_C@_1DK@BKLENMLC@?$AA0?$AA?5?$AA?$DM?$AA?5?$AAs?$AAi?$AAz?$AAe?$AA?5?$AA?$CG?$AA?$CG?$AA?5?$AAs?$AAi?$AAz?$AAe?$AA?5?$AA?$DM?$AA?$DN?$AA?5?$AAU?$AAI?$AAN?$AAT?$AA_?$AAM?$AAA?$AAX?$AA?$AA@ 101b1598     LIBCMTD:sbheap.obj
 0002:000135d4       ??_C@_1BM@OFBCOJJF@?$AA_?$AAg?$AAe?$AAt?$AA_?$AAa?$AAm?$AAb?$AAl?$AAk?$AAs?$AAi?$AAz?$AA?$AA@ 101b15d4     LIBCMTD:sbheap.obj
 0002:000135f0       ??_C@_1BM@IELHFPPM@?$AAp?$AAS?$AAi?$AAz?$AAe?$AA?5?$AA?$CB?$AA?$DN?$AA?5?$AAN?$AAU?$AAL?$AAL?$AA?$AA@ 101b15f0     LIBCMTD:sbheap.obj
 0002:00013610       ??_C@_1NK@LOFHIHFC@?$AAf?$AAM?$AAo?$AAd?$AAe?$AA?5?$AA?$DN?$AA?$DN?$AA?5?$AA_?$AAC?$AAR?$AAT?$AAD?$AAB?$AAG?$AA_?$AAR?$AAE?$AAP?$AAO?$AAR?$AAT?$AA_?$AAM?$AAO?$AAD?$AAE?$AA?5?$AA?$HM?$AA?$HM?$AA?5@ 101b1610     LIBCMTD:dbgrptt.obj
 0002:000136ec       ??_C@_1CE@FIHIECNJ@?$AA_?$AAC?$AAr?$AAt?$AAS?$AAe?$AAt?$AAR?$AAe?$AAp?$AAo?$AAr?$AAt?$AAM?$AAo?$AAd?$AAe?$AA?$AA@ 101b16ec     LIBCMTD:dbgrptt.obj
 0002:00013710       ??_C@_1GC@FIGJJMEN@?$AAf?$AA?3?$AA?2?$AAd?$AAd?$AA?2?$AAv?$AAc?$AAt?$AAo?$AAo?$AAl?$AAs?$AA?2?$AAc?$AAr?$AAt?$AA_?$AAb?$AAl?$AAd?$AA?2?$AAs?$AAe?$AAl?$AAf?$AA_?$AAx?$AA8?$AA6?$AA?2?$AAc@ 101b1710     LIBCMTD:dbgrptt.obj
 0002:00013778       ??_C@_1FA@IFFFOLDJ@?$AAn?$AAR?$AAp?$AAt?$AAT?$AAy?$AAp?$AAe?$AA?5?$AA?$DO?$AA?$DN?$AA?5?$AA0?$AA?5?$AA?$CG?$AA?$CG?$AA?5?$AAn?$AAR?$AAp?$AAt?$AAT?$AAy?$AAp?$AAe?$AA?5?$AA?$DM?$AA?5?$AA_?$AAC?$AAR?$AAT@ 101b1778     LIBCMTD:dbgrptt.obj
 0002:000137c8       ??_C@_1CE@IKKEDCME@?$AA_?$AAC?$AAr?$AAt?$AAS?$AAe?$AAt?$AAR?$AAe?$AAp?$AAo?$AAr?$AAt?$AAF?$AAi?$AAl?$AAe?$AA?$AA@ 101b17c8     LIBCMTD:dbgrptt.obj
 0002:000137f0       ??_C@_1HO@PJOFIKFE@?$AA_?$AAC?$AAr?$AAt?$AAD?$AAb?$AAg?$AAR?$AAe?$AAp?$AAo?$AAr?$AAt?$AA?3?$AA?5?$AAS?$AAt?$AAr?$AAi?$AAn?$AAg?$AA?5?$AAt?$AAo?$AAo?$AA?5?$AAl?$AAo?$AAn?$AAg?$AA?5?$AAo@ 101b17f0     LIBCMTD:dbgrptt.obj
 0002:00013870       ??_C@_1MC@IGEECMDB@?$AAw?$AAc?$AAs?$AAc?$AAp?$AAy?$AA_?$AAs?$AA?$CI?$AAs?$AAz?$AAO?$AAu?$AAt?$AAM?$AAe?$AAs?$AAs?$AAa?$AAg?$AAe?$AA2?$AA?0?$AA?5?$AA4?$AA0?$AA9?$AA6?$AA?0?$AA?5?$AAL?$AA?$CC@ 101b1870     LIBCMTD:dbgrptt.obj
 0002:00013938       ??_C@_1IM@OOKIFKOH@?$AAe?$AA?5?$AA?$DN?$AA?5?$AAm?$AAb?$AAs?$AAt?$AAo?$AAw?$AAc?$AAs?$AA_?$AAs?$AA?$CI?$AA?$CG?$AAr?$AAe?$AAt?$AA?0?$AA?5?$AAs?$AAz?$AAO?$AAu?$AAt?$AAM?$AAe?$AAs?$AAs?$AAa?$AAg@ 101b1938     LIBCMTD:dbgrptt.obj
 0002:000139c8       ??_C@_1FI@IBIOIHEG@?$AAs?$AAt?$AAr?$AAc?$AAp?$AAy?$AA_?$AAs?$AA?$CI?$AAs?$AAz?$AAO?$AAu?$AAt?$AAM?$AAe?$AAs?$AAs?$AAa?$AAg?$AAe?$AA?0?$AA?5?$AA4?$AA0?$AA9?$AA6?$AA?0?$AA?5?$AAs?$AAz?$AAL@ 101b19c8     LIBCMTD:dbgrptt.obj
 0002:00013a20       ??_C@_0M@IPILFDFN@?$CFs?$CI?$CFd?$CJ?5?3?5?$CFs?$AA@ 101b1a20     LIBCMTD:dbgrptt.obj
 0002:00013a30       ??_C@_1EI@LDHJEDO@?$AAs?$AAt?$AAr?$AAc?$AAa?$AAt?$AA_?$AAs?$AA?$CI?$AAs?$AAz?$AAL?$AAi?$AAn?$AAe?$AAM?$AAe?$AAs?$AAs?$AAa?$AAg?$AAe?$AA?0?$AA?5?$AA4?$AA0?$AA9?$AA6?$AA?0?$AA?5?$AA?$CC?$AA?2@ 101b1a30     LIBCMTD:dbgrptt.obj
 0002:00013a78       ??_C@_01LIIJDEN@?$AN?$AA@  101b1a78     LIBCMTD:dbgrptt.obj
 0002:00013a80       ??_C@_1EI@CACDLAFK@?$AAs?$AAt?$AAr?$AAc?$AAa?$AAt?$AA_?$AAs?$AA?$CI?$AAs?$AAz?$AAL?$AAi?$AAn?$AAe?$AAM?$AAe?$AAs?$AAs?$AAa?$AAg?$AAe?$AA?0?$AA?5?$AA4?$AA0?$AA9?$AA6?$AA?0?$AA?5?$AA?$CC?$AA?2@ 101b1a80     LIBCMTD:dbgrptt.obj
 0002:00013ac8       ??_C@_1FK@NPGBPOFO@?$AAs?$AAt?$AAr?$AAc?$AAa?$AAt?$AA_?$AAs?$AA?$CI?$AAs?$AAz?$AAL?$AAi?$AAn?$AAe?$AAM?$AAe?$AAs?$AAs?$AAa?$AAg?$AAe?$AA?0?$AA?5?$AA4?$AA0?$AA9?$AA6?$AA?0?$AA?5?$AAs?$AAz@ 101b1ac8     LIBCMTD:dbgrptt.obj
 0002:00013b28       ??_C@_1KK@GIGAEDMO@?$AAs?$AAt?$AAr?$AAc?$AAp?$AAy?$AA_?$AAs?$AA?$CI?$AAs?$AAz?$AAL?$AAi?$AAn?$AAe?$AAM?$AAe?$AAs?$AAs?$AAa?$AAg?$AAe?$AA?0?$AA?5?$AA4?$AA0?$AA9?$AA6?$AA?0?$AA?5?$AAs?$AAz@ 101b1b28     LIBCMTD:dbgrptt.obj
 0002:00013bd4       ??_C@_0BC@LAIDCHCH@Assertion?5failed?$CB?$AA@ 101b1bd4     LIBCMTD:dbgrptt.obj
 0002:00013be8       ??_C@_0BD@CAENFOHP@Assertion?5failed?3?5?$AA@ 101b1be8     LIBCMTD:dbgrptt.obj
 0002:00013c00       ??_C@_1JI@GAALPGBM@?$AAs?$AAt?$AAr?$AAc?$AAp?$AAy?$AA_?$AAs?$AA?$CI?$AAs?$AAz?$AAU?$AAs?$AAe?$AAr?$AAM?$AAe?$AAs?$AAs?$AAa?$AAg?$AAe?$AA?0?$AA?5?$AA4?$AA0?$AA9?$AA6?$AA?0?$AA?5?$AA?$CC?$AA_@ 101b1c00     LIBCMTD:dbgrptt.obj
 0002:00013c98       ??_C@_01EEMJAFIK@?6?$AA@   101b1c98     LIBCMTD:dbgrptt.obj
 0002:00013c9c       ??_C@_07BHGABMGB@?0?5Line?5?$AA@ 101b1c9c     LIBCMTD:dbgrptt.obj
 0002:00013ca4       ??_C@_0P@DFJNDPOP@?$DMfile?5unknown?$DO?$AA@ 101b1ca4     LIBCMTD:dbgrptt.obj
 0002:00013cb4       ??_C@_0CG@BNGLOCEO@Second?5Chance?5Assertion?5Failed?3?5@ 101b1cb4     LIBCMTD:dbgrptt.obj
 0002:00013ce0       ??_C@_1FA@JPHJBHEM@?$AA_?$AAi?$AAt?$AAo?$AAa?$AA_?$AAs?$AA?$CI?$AAn?$AAL?$AAi?$AAn?$AAe?$AA?0?$AA?5?$AAs?$AAz?$AAL?$AAi?$AAn?$AAe?$AAM?$AAe?$AAs?$AAs?$AAa?$AAg?$AAe?$AA?0?$AA?5?$AA4?$AA0@ 101b1ce0     LIBCMTD:dbgrptt.obj
 0002:00013d30       ??_C@_1CA@KHJHLKA@?$AA_?$AAV?$AAC?$AAr?$AAt?$AAD?$AAb?$AAg?$AAR?$AAe?$AAp?$AAo?$AAr?$AAt?$AAA?$AA?$AA@ 101b1d30     LIBCMTD:dbgrptt.obj
 0002:00013d50       ??_C@_1IE@CPGKIAGP@?$AAw?$AAc?$AAs?$AAt?$AAo?$AAm?$AAb?$AAs?$AA_?$AAs?$AA?$CI?$AA?$CG?$AAr?$AAe?$AAt?$AA?0?$AA?5?$AAs?$AAz?$AAa?$AAO?$AAu?$AAt?$AAM?$AAe?$AAs?$AAs?$AAa?$AAg?$AAe?$AA?0?$AA?5@ 101b1d50     LIBCMTD:dbgrptt.obj
 0002:00013dd4       ??_C@_0DP@GNPEPHJD@_CrtDbgReport?3?5String?5too?5long?5o@ 101b1dd4     LIBCMTD:dbgrptt.obj
 0002:00013e18       ??_C@_1MA@LBAMNNOB@?$AAs?$AAt?$AAr?$AAc?$AAp?$AAy?$AA_?$AAs?$AA?$CI?$AAs?$AAz?$AAO?$AAu?$AAt?$AAM?$AAe?$AAs?$AAs?$AAa?$AAg?$AAe?$AA2?$AA?0?$AA?5?$AA4?$AA0?$AA9?$AA6?$AA?0?$AA?5?$AA?$CC?$AA_@ 101b1e18     LIBCMTD:dbgrptt.obj
 0002:00013ed8       ??_C@_1JC@EOAPFDLN@?$AAw?$AAc?$AAs?$AAt?$AAo?$AAm?$AAb?$AAs?$AA_?$AAs?$AA?$CI?$AA?$CI?$AA?$CI?$AAv?$AAo?$AAi?$AAd?$AA?5?$AA?$CK?$AA?$CJ?$AA0?$AA?$CJ?$AA?0?$AA?5?$AAs?$AAz?$AAO?$AAu?$AAt?$AAM?$AAe?$AAs@ 101b1ed8     LIBCMTD:dbgrptt.obj
 0002:00013f70       ??_C@_1FI@DBAIJPJE@?$AAw?$AAc?$AAs?$AAc?$AAp?$AAy?$AA_?$AAs?$AA?$CI?$AAs?$AAz?$AAO?$AAu?$AAt?$AAM?$AAe?$AAs?$AAs?$AAa?$AAg?$AAe?$AA?0?$AA?5?$AA4?$AA0?$AA9?$AA6?$AA?0?$AA?5?$AAs?$AAz?$AAL@ 101b1f70     LIBCMTD:dbgrptt.obj
 0002:00013fc8       ??_C@_1BI@JIDBEPIG@?$AA?$CF?$AAs?$AA?$CI?$AA?$CF?$AAd?$AA?$CJ?$AA?5?$AA?3?$AA?5?$AA?$CF?$AAs?$AA?$AA@ 101b1fc8     LIBCMTD:dbgrptt.obj
 0002:00013fe0       ??_C@_1EK@PHCBEDKB@?$AAw?$AAc?$AAs?$AAc?$AAa?$AAt?$AA_?$AAs?$AA?$CI?$AAs?$AAz?$AAL?$AAi?$AAn?$AAe?$AAM?$AAe?$AAs?$AAs?$AAa?$AAg?$AAe?$AA?0?$AA?5?$AA4?$AA0?$AA9?$AA6?$AA?0?$AA?5?$AAL?$AA?$CC@ 101b1fe0     LIBCMTD:dbgrptt.obj
 0002:0001402c       ??_C@_13CMNBPIDO@?$AA?$AN?$AA?$AA@ 101b202c     LIBCMTD:dbgrptt.obj
 0002:00014030       ??_C@_1EK@NMDFGHMF@?$AAw?$AAc?$AAs?$AAc?$AAa?$AAt?$AA_?$AAs?$AA?$CI?$AAs?$AAz?$AAL?$AAi?$AAn?$AAe?$AAM?$AAe?$AAs?$AAs?$AAa?$AAg?$AAe?$AA?0?$AA?5?$AA4?$AA0?$AA9?$AA6?$AA?0?$AA?5?$AAL?$AA?$CC@ 101b2030     LIBCMTD:dbgrptt.obj
 0002:00014080       ??_C@_1FK@HPADHBBD@?$AAw?$AAc?$AAs?$AAc?$AAa?$AAt?$AA_?$AAs?$AA?$CI?$AAs?$AAz?$AAL?$AAi?$AAn?$AAe?$AAM?$AAe?$AAs?$AAs?$AAa?$AAg?$AAe?$AA?0?$AA?5?$AA4?$AA0?$AA9?$AA6?$AA?0?$AA?5?$AAs?$AAz@ 101b2080     LIBCMTD:dbgrptt.obj
 0002:000140e0       ??_C@_1KO@DGAHENCH@?$AAw?$AAc?$AAs?$AAc?$AAp?$AAy?$AA_?$AAs?$AA?$CI?$AAs?$AAz?$AAL?$AAi?$AAn?$AAe?$AAM?$AAe?$AAs?$AAs?$AAa?$AAg?$AAe?$AA?0?$AA?5?$AA4?$AA0?$AA9?$AA6?$AA?0?$AA?5?$AAs?$AAz@ 101b20e0     LIBCMTD:dbgrptt.obj
 0002:00014190       ??_C@_1CG@FFFGGODN@?$AAA?$AAs?$AAs?$AAe?$AAr?$AAt?$AAi?$AAo?$AAn?$AA?5?$AAf?$AAa?$AAi?$AAl?$AAe?$AAd?$AA?3?$AA?5?$AA?$AA@ 101b2190     LIBCMTD:dbgrptt.obj
 0002:000141b8       ??_C@_1JK@KHFABAEO@?$AAw?$AAc?$AAs?$AAc?$AAp?$AAy?$AA_?$AAs?$AA?$CI?$AAs?$AAz?$AAU?$AAs?$AAe?$AAr?$AAM?$AAe?$AAs?$AAs?$AAa?$AAg?$AAe?$AA?0?$AA?5?$AA4?$AA0?$AA9?$AA6?$AA?0?$AA?5?$AAL?$AA?$CC@ 101b21b8     LIBCMTD:dbgrptt.obj
 0002:00014254       ??_C@_1BA@ELMMDCFC@?$AA?0?$AA?5?$AAL?$AAi?$AAn?$AAe?$AA?5?$AA?$AA@ 101b2254     LIBCMTD:dbgrptt.obj
 0002:00014264       ??_C@_1BO@OCHMLCAG@?$AA?$DM?$AAf?$AAi?$AAl?$AAe?$AA?5?$AAu?$AAn?$AAk?$AAn?$AAo?$AAw?$AAn?$AA?$DO?$AA?$AA@ 101b2264     LIBCMTD:dbgrptt.obj
 0002:00014288       ??_C@_1EM@MJFLEDMB@?$AAS?$AAe?$AAc?$AAo?$AAn?$AAd?$AA?5?$AAC?$AAh?$AAa?$AAn?$AAc?$AAe?$AA?5?$AAA?$AAs?$AAs?$AAe?$AAr?$AAt?$AAi?$AAo?$AAn?$AA?5?$AAF?$AAa?$AAi?$AAl?$AAe?$AAd?$AA?3?$AA?5@ 101b2288     LIBCMTD:dbgrptt.obj
 0002:000142d8       ??_C@_1FA@CNLLOMHI@?$AA_?$AAi?$AAt?$AAo?$AAw?$AA_?$AAs?$AA?$CI?$AAn?$AAL?$AAi?$AAn?$AAe?$AA?0?$AA?5?$AAs?$AAz?$AAL?$AAi?$AAn?$AAe?$AAM?$AAe?$AAs?$AAs?$AAa?$AAg?$AAe?$AA?0?$AA?5?$AA4?$AA0@ 101b22d8     LIBCMTD:dbgrptt.obj
 0002:00014328       ??_C@_1CA@HPALHDOD@?$AA_?$AAV?$AAC?$AAr?$AAt?$AAD?$AAb?$AAg?$AAR?$AAe?$AAp?$AAo?$AAr?$AAt?$AAW?$AA?$AA@ 101b2328     LIBCMTD:dbgrptt.obj
 0002:00014348       ??_C@_1BE@BMIJMLDD@?$AA_?$AAs?$AAw?$AAp?$AAr?$AAi?$AAn?$AAt?$AAf?$AA?$AA@ 101b2348     LIBCMTD:swprintf.obj
 0002:00014360       ??_C@_1GE@DKGHLBLP@?$AAf?$AA?3?$AA?2?$AAd?$AAd?$AA?2?$AAv?$AAc?$AAt?$AAo?$AAo?$AAl?$AAs?$AA?2?$AAc?$AAr?$AAt?$AA_?$AAb?$AAl?$AAd?$AA?2?$AAs?$AAe?$AAl?$AAf?$AA_?$AAx?$AA8?$AA6?$AA?2?$AAc@ 101b2360     LIBCMTD:swprintf.obj
 0002:000143c4       ??_C@_1BE@KHFBJMNM@?$AA_?$AAl?$AAs?$AAe?$AAe?$AAk?$AAi?$AA6?$AA4?$AA?$AA@ 101b23c4     LIBCMTD:lseeki64.obj
 0002:000143d8       ??_C@_1GE@MINKPNPH@?$AAf?$AA?3?$AA?2?$AAd?$AAd?$AA?2?$AAv?$AAc?$AAt?$AAo?$AAo?$AAl?$AAs?$AA?2?$AAc?$AAr?$AAt?$AA_?$AAb?$AAl?$AAd?$AA?2?$AAs?$AAe?$AAl?$AAf?$AA_?$AAx?$AA8?$AA6?$AA?2?$AAc@ 101b23d8     LIBCMTD:lseeki64.obj
 0002:0001443c       ??_C@_0DB@JEHOCBEJ@f?3?2dd?2vctools?2crt_bld?2self_x86?2c@ 101b243c     LIBCMTD:_getbuf.obj
 0002:00014470       ??_C@_1GC@DKMGNNCC@?$AAf?$AA?3?$AA?2?$AAd?$AAd?$AA?2?$AAv?$AAc?$AAt?$AAo?$AAo?$AAl?$AAs?$AA?2?$AAc?$AAr?$AAt?$AA_?$AAb?$AAl?$AAd?$AA?2?$AAs?$AAe?$AAl?$AAf?$AA_?$AAx?$AA8?$AA6?$AA?2?$AAc@ 101b2470     LIBCMTD:_getbuf.obj
 0002:000144d4       ??_C@_1BA@LEBDGIHM@?$AA_?$AAi?$AAs?$AAa?$AAt?$AAt?$AAy?$AA?$AA@ 101b24d4     LIBCMTD:isatty.obj
 0002:000144e8       ??_C@_1GA@LPGDJDEN@?$AAf?$AA?3?$AA?2?$AAd?$AAd?$AA?2?$AAv?$AAc?$AAt?$AAo?$AAo?$AAl?$AAs?$AA?2?$AAc?$AAr?$AAt?$AA_?$AAb?$AAl?$AAd?$AA?2?$AAs?$AAe?$AAl?$AAf?$AA_?$AAx?$AA8?$AA6?$AA?2?$AAc@ 101b24e8     LIBCMTD:isatty.obj
 0002:00014548       ??_C@_1O@GKDHFACN@?$AAp?$AAr?$AAi?$AAn?$AAt?$AAf?$AA?$AA@ 101b2548     LIBCMTD:printf.obj
 0002:00014558       ??_C@_1GA@LHEGHOAF@?$AAf?$AA?3?$AA?2?$AAd?$AAd?$AA?2?$AAv?$AAc?$AAt?$AAo?$AAo?$AAl?$AAs?$AA?2?$AAc?$AAr?$AAt?$AA_?$AAb?$AAl?$AAd?$AA?2?$AAs?$AAe?$AAl?$AAf?$AA_?$AAx?$AA8?$AA6?$AA?2?$AAc@ 101b2558     LIBCMTD:printf.obj
 0002:000145b8       ??_C@_1BI@IEADNOHF@?$AA_?$AAw?$AAc?$AAt?$AAo?$AAm?$AAb?$AA_?$AAs?$AA_?$AAl?$AA?$AA@ 101b25b8     LIBCMTD:wctomb.obj
 0002:000145d0       ??_C@_1GA@LDLHPOO@?$AAf?$AA?3?$AA?2?$AAd?$AAd?$AA?2?$AAv?$AAc?$AAt?$AAo?$AAo?$AAl?$AAs?$AA?2?$AAc?$AAr?$AAt?$AA_?$AAb?$AAl?$AAd?$AA?2?$AAs?$AAe?$AAl?$AAf?$AA_?$AAx?$AA8?$AA6?$AA?2?$AAc@ 101b25d0     LIBCMTD:wctomb.obj
 0002:00014630       ??_C@_1CO@HFMIILNF@?$AAs?$AAi?$AAz?$AAe?$AAI?$AAn?$AAB?$AAy?$AAt?$AAe?$AAs?$AA?5?$AA?$DM?$AA?$DN?$AA?5?$AAI?$AAN?$AAT?$AA_?$AAM?$AAA?$AAX?$AA?$AA@ 101b2630     LIBCMTD:wctomb.obj
 0002:00014660       ___lookuptable_s           101b2660     LIBCMTD:outputs.obj
 0002:000146bc       ??_C@_1BI@COFBLHCG@?$AA_?$AAo?$AAu?$AAt?$AAp?$AAu?$AAt?$AA_?$AAs?$AA_?$AAl?$AA?$AA@ 101b26bc     LIBCMTD:outputs.obj
 0002:000146d4       ??_C@_13NOLLCAOD@?$AA?$AA?$AA?$AA@ 101b26d4     LIBCMTD:a_str.obj
 0002:000146d8       ??_C@_1GA@INJGGEBC@?$AAf?$AA?3?$AA?2?$AAd?$AAd?$AA?2?$AAv?$AAc?$AAt?$AAo?$AAo?$AAl?$AAs?$AA?2?$AAc?$AAr?$AAt?$AA_?$AAb?$AAl?$AAd?$AA?2?$AAs?$AAe?$AAl?$AAf?$AA_?$AAx?$AA8?$AA6?$AA?2?$AAc@ 101b26d8     LIBCMTD:a_str.obj
 0002:00014738       ??_C@_1FE@KNPCCODH@?$AA?$CI?$AA?$CC?$AAC?$AAo?$AAr?$AAr?$AAu?$AAp?$AAt?$AAe?$AAd?$AA?5?$AAp?$AAo?$AAi?$AAn?$AAt?$AAe?$AAr?$AA?5?$AAp?$AAa?$AAs?$AAs?$AAe?$AAd?$AA?5?$AAt?$AAo?$AA?5?$AA_?$AAf@ 101b2738     LIBCMTD:a_str.obj
 0002:00014790       ___newctype                101b2790     LIBCMTD:ctype.obj
 0002:00014a90       __wctype                   101b2a90     LIBCMTD:ctype.obj
 0002:00014c98       ___newclmap                101b2c98     LIBCMTD:ctype.obj
 0002:00014e18       ___newcumap                101b2e18     LIBCMTD:ctype.obj
 0002:00014f98       ??_C@_1GE@GJCMHHMH@?$AAf?$AA?3?$AA?2?$AAd?$AAd?$AA?2?$AAv?$AAc?$AAt?$AAo?$AAo?$AAl?$AAs?$AA?2?$AAc?$AAr?$AAt?$AA_?$AAb?$AAl?$AAd?$AA?2?$AAs?$AAe?$AAl?$AAf?$AA_?$AAx?$AA8?$AA6?$AA?2?$AAc@ 101b2f98     LIBCMTD:inittime.obj
 0002:00015000       ??_C@_1EE@FDHCFDHN@?$AAp?$AAl?$AAo?$AAc?$AAi?$AA?9?$AA?$DO?$AAl?$AAc?$AA_?$AAt?$AAi?$AAm?$AAe?$AA_?$AAc?$AAu?$AAr?$AAr?$AA?9?$AA?$DO?$AAr?$AAe?$AAf?$AAc?$AAo?$AAu?$AAn?$AAt?$AA?5?$AA?$DO?$AA?5@ 101b3000     LIBCMTD:inittime.obj
 0002:00015044       ??_C@_0DC@KICHHNFK@f?3?2dd?2vctools?2crt_bld?2self_x86?2c@ 101b3044     LIBCMTD:inittime.obj
 0002:00015078       ??_C@_1GC@EDJOCBCL@?$AAf?$AA?3?$AA?2?$AAd?$AAd?$AA?2?$AAv?$AAc?$AAt?$AAo?$AAo?$AAl?$AAs?$AA?2?$AAc?$AAr?$AAt?$AA_?$AAb?$AAl?$AAd?$AA?2?$AAs?$AAe?$AAl?$AAf?$AA_?$AAx?$AA8?$AA6?$AA?2?$AAc@ 101b3078     LIBCMTD:initnum.obj
 0002:000150dc       ??_C@_1DM@IFKAINNE@?$AAp?$AAl?$AAo?$AAc?$AAi?$AA?9?$AA?$DO?$AAl?$AAc?$AAo?$AAn?$AAv?$AA_?$AAn?$AAu?$AAm?$AA_?$AAr?$AAe?$AAf?$AAc?$AAo?$AAu?$AAn?$AAt?$AA?5?$AA?$DO?$AA?5?$AA0?$AA?$AA@ 101b30dc     LIBCMTD:initnum.obj
 0002:00015118       ??_C@_0DB@KKFMDHFI@f?3?2dd?2vctools?2crt_bld?2self_x86?2c@ 101b3118     LIBCMTD:initnum.obj
 0002:00015150       ??_C@_1GC@IKADOFBJ@?$AAf?$AA?3?$AA?2?$AAd?$AAd?$AA?2?$AAv?$AAc?$AAt?$AAo?$AAo?$AAl?$AAs?$AA?2?$AAc?$AAr?$AAt?$AA_?$AAb?$AAl?$AAd?$AA?2?$AAs?$AAe?$AAl?$AAf?$AA_?$AAx?$AA8?$AA6?$AA?2?$AAc@ 101b3150     LIBCMTD:initmon.obj
 0002:000151b4       ??_C@_1DM@GKAPAMDO@?$AAp?$AAl?$AAo?$AAc?$AAi?$AA?9?$AA?$DO?$AAl?$AAc?$AAo?$AAn?$AAv?$AA_?$AAm?$AAo?$AAn?$AA_?$AAr?$AAe?$AAf?$AAc?$AAo?$AAu?$AAn?$AAt?$AA?5?$AA?$DO?$AA?5?$AA0?$AA?$AA@ 101b31b4     LIBCMTD:initmon.obj
 0002:000151f0       ??_C@_0DB@BECNGFDL@f?3?2dd?2vctools?2crt_bld?2self_x86?2c@ 101b31f0     LIBCMTD:initmon.obj
 0002:00015224       ??_C@_1DG@NMBGBDM@?$AAp?$AAl?$AAo?$AAc?$AAi?$AA?9?$AA?$DO?$AAc?$AAt?$AAy?$AAp?$AAe?$AA1?$AA_?$AAr?$AAe?$AAf?$AAc?$AAo?$AAu?$AAn?$AAt?$AA?5?$AA?$DO?$AA?5?$AA0?$AA?$AA@ 101b3224     LIBCMTD:initctyp.obj
 0002:00015260       ??_C@_1GE@OCPKBDKE@?$AAf?$AA?3?$AA?2?$AAd?$AAd?$AA?2?$AAv?$AAc?$AAt?$AAo?$AAo?$AAl?$AAs?$AA?2?$AAc?$AAr?$AAt?$AA_?$AAb?$AAl?$AAd?$AA?2?$AAs?$AAe?$AAl?$AAf?$AA_?$AAx?$AA8?$AA6?$AA?2?$AAc@ 101b3260     LIBCMTD:initctyp.obj
 0002:000152c4       ??_C@_0DC@EHLBFILA@f?3?2dd?2vctools?2crt_bld?2self_x86?2c@ 101b32c4     LIBCMTD:initctyp.obj
 0002:000152f8       ??_C@_08JCCMCCIL@HH?3mm?3ss?$AA@ 101b32f8     LIBCMTD:strftime.obj
 0002:00015304       ??_C@_0BE@CKGJFCPC@dddd?0?5MMMM?5dd?0?5yyyy?$AA@ 101b3304     LIBCMTD:strftime.obj
 0002:00015318       ??_C@_08BPBNCDIB@MM?1dd?1yy?$AA@ 101b3318     LIBCMTD:strftime.obj
 0002:00015324       ??_C@_02CJNFDJBF@PM?$AA@   101b3324     LIBCMTD:strftime.obj
 0002:00015328       ??_C@_02DEDBPAFC@AM?$AA@   101b3328     LIBCMTD:strftime.obj
 0002:0001532c       ??_C@_08EDHMEBNP@December?$AA@ 101b332c     LIBCMTD:strftime.obj
 0002:00015338       ??_C@_08HCHEGEOA@November?$AA@ 101b3338     LIBCMTD:strftime.obj
 0002:00015344       ??_C@_07JJNFCEND@October?$AA@ 101b3344     LIBCMTD:strftime.obj
 0002:0001534c       ??_C@_09BHHEALKD@September?$AA@ 101b334c     LIBCMTD:strftime.obj
 0002:00015358       ??_C@_06LBBHFDDG@August?$AA@ 101b3358     LIBCMTD:strftime.obj
 0002:00015360       ??_C@_04MIEPOIFP@July?$AA@ 101b3360     LIBCMTD:strftime.obj
 0002:00015368       ??_C@_04CNLMGBGM@June?$AA@ 101b3368     LIBCMTD:strftime.obj
 0002:00015370       ??_C@_05DMJDNLEJ@April?$AA@ 101b3370     LIBCMTD:strftime.obj
 0002:00015378       ??_C@_05HPCKOFNC@March?$AA@ 101b3378     LIBCMTD:strftime.obj
 0002:00015380       ??_C@_08GNJGEPFN@February?$AA@ 101b3380     LIBCMTD:strftime.obj
 0002:0001538c       ??_C@_07CGJPFGJA@January?$AA@ 101b338c     LIBCMTD:strftime.obj
 0002:00015394       ??_C@_03MKABNOCG@Dec?$AA@  101b3394     LIBCMTD:strftime.obj
 0002:00015398       ??_C@_03JPJOFNIA@Nov?$AA@  101b3398     LIBCMTD:strftime.obj
 0002:0001539c       ??_C@_03BMAOKBAD@Oct?$AA@  101b339c     LIBCMTD:strftime.obj
 0002:000153a0       ??_C@_03GGCAPAJC@Sep?$AA@  101b33a0     LIBCMTD:strftime.obj
 0002:000153a4       ??_C@_03IFJFEIGA@Aug?$AA@  101b33a4     LIBCMTD:strftime.obj
 0002:000153a8       ??_C@_03LBGABGKK@Jul?$AA@  101b33a8     LIBCMTD:strftime.obj
 0002:000153ac       ??_C@_03IDFGHECI@Jun?$AA@  101b33ac     LIBCMTD:strftime.obj
 0002:000153b0       ??_C@_03CNMDKL@May?$AA@    101b33b0     LIBCMTD:strftime.obj
 0002:000153b4       ??_C@_03LEOLGMJP@Apr?$AA@  101b33b4     LIBCMTD:strftime.obj
 0002:000153b8       ??_C@_03ODNJBKGA@Mar?$AA@  101b33b8     LIBCMTD:strftime.obj
 0002:000153bc       ??_C@_03HJBDCHOM@Feb?$AA@  101b33bc     LIBCMTD:strftime.obj
 0002:000153c0       ??_C@_03JIHJHPIE@Jan?$AA@  101b33c0     LIBCMTD:strftime.obj
 0002:000153c4       ??_C@_08INBOOONO@Saturday?$AA@ 101b33c4     LIBCMTD:strftime.obj
 0002:000153d0       ??_C@_06JECMNKMI@Friday?$AA@ 101b33d0     LIBCMTD:strftime.obj
 0002:000153d8       ??_C@_08HACCIKIA@Thursday?$AA@ 101b33d8     LIBCMTD:strftime.obj
 0002:000153e4       ??_C@_09DLIGFAKA@Wednesday?$AA@ 101b33e4     LIBCMTD:strftime.obj
 0002:000153f0       ??_C@_07BAAGCFCM@Tuesday?$AA@ 101b33f0     LIBCMTD:strftime.obj
 0002:000153f8       ??_C@_06JLEDEDGH@Monday?$AA@ 101b33f8     LIBCMTD:strftime.obj
 0002:00015400       ??_C@_06OOPIFAJ@Sunday?$AA@ 101b3400     LIBCMTD:strftime.obj
 0002:00015408       ??_C@_03FEFJNEK@Sat?$AA@   101b3408     LIBCMTD:strftime.obj
 0002:0001540c       ??_C@_03IDIOELNC@Fri?$AA@  101b340c     LIBCMTD:strftime.obj
 0002:00015410       ??_C@_03IOFIKPDN@Thu?$AA@  101b3410     LIBCMTD:strftime.obj
 0002:00015414       ??_C@_03MHOMLAJA@Wed?$AA@  101b3414     LIBCMTD:strftime.obj
 0002:00015418       ??_C@_03NAGEINEP@Tue?$AA@  101b3418     LIBCMTD:strftime.obj
 0002:0001541c       ??_C@_03PDAGKDH@Mon?$AA@   101b341c     LIBCMTD:strftime.obj
 0002:00015420       ??_C@_03KOEHGMDN@Sun?$AA@  101b3420     LIBCMTD:strftime.obj
 0002:00015428       ??_C@_1FM@LPEPDBJF@?$AAs?$AAt?$AAr?$AAc?$AAp?$AAy?$AA_?$AAs?$AA?$CI?$AAs?$AA?0?$AA?5?$AA?$CI?$AAl?$AAe?$AAn?$AA?5?$AA?$CL?$AA?5?$AA1?$AA?$CJ?$AA?5?$AA?9?$AA?5?$AA?$CI?$AAs?$AA?5?$AA?9?$AA?5?$AAp?$AA?$CJ?$AA?0@ 101b3428     LIBCMTD:strftime.obj
 0002:00015488       ??_C@_1GG@NAGHPCAA@?$AAs?$AAt?$AAr?$AAc?$AAp?$AAy?$AA_?$AAs?$AA?$CI?$AAs?$AA?0?$AA?5?$AA?$CI?$AAl?$AAe?$AAn?$AA?5?$AA?$CL?$AA?5?$AA1?$AA?$CJ?$AA?5?$AA?9?$AA?5?$AA?$CI?$AAs?$AA?5?$AA?9?$AA?5?$AAp?$AA?$CJ?$AA?0@ 101b3488     LIBCMTD:strftime.obj
 0002:000154f0       ??_C@_1BG@LGACIFJI@?$AA_?$AAG?$AAe?$AAt?$AAd?$AAa?$AAy?$AAs?$AA_?$AAl?$AA?$AA@ 101b34f0     LIBCMTD:strftime.obj
 0002:00015508       ??_C@_1GE@FCOIONJG@?$AAf?$AA?3?$AA?2?$AAd?$AAd?$AA?2?$AAv?$AAc?$AAt?$AAo?$AAo?$AAl?$AAs?$AA?2?$AAc?$AAr?$AAt?$AA_?$AAb?$AAl?$AAd?$AA?2?$AAs?$AAe?$AAl?$AAf?$AA_?$AAx?$AA8?$AA6?$AA?2?$AAc@ 101b3508     LIBCMTD:strftime.obj
 0002:0001556c       ??_C@_0DC@MEPJBKMO@f?3?2dd?2vctools?2crt_bld?2self_x86?2c@ 101b356c     LIBCMTD:strftime.obj
 0002:000155a0       ??_C@_1FO@IFFKPIEL@?$AAs?$AAt?$AAr?$AAc?$AAp?$AAy?$AA_?$AAs?$AA?$CI?$AAs?$AA?0?$AA?5?$AA?$CI?$AAl?$AAe?$AAn?$AA?5?$AA?$CL?$AA?5?$AA1?$AA?$CJ?$AA?5?$AA?9?$AA?5?$AA?$CI?$AAs?$AA?5?$AA?9?$AA?5?$AAp?$AA?$CJ?$AA?0@ 101b35a0     LIBCMTD:strftime.obj
 0002:00015600       ??_C@_1GI@LNJDDNLK@?$AAs?$AAt?$AAr?$AAc?$AAp?$AAy?$AA_?$AAs?$AA?$CI?$AAs?$AA?0?$AA?5?$AA?$CI?$AAl?$AAe?$AAn?$AA?5?$AA?$CL?$AA?5?$AA1?$AA?$CJ?$AA?5?$AA?9?$AA?5?$AA?$CI?$AAs?$AA?5?$AA?9?$AA?5?$AAp?$AA?$CJ?$AA?0@ 101b3600     LIBCMTD:strftime.obj
 0002:00015668       ??_C@_1BK@IDMELNCB@?$AA_?$AAG?$AAe?$AAt?$AAm?$AAo?$AAn?$AAt?$AAh?$AAs?$AA_?$AAl?$AA?$AA@ 101b3668     LIBCMTD:strftime.obj
 0002:00015688       ??_C@_1FG@CJBIADLJ@?$AAs?$AAt?$AAr?$AAc?$AAp?$AAy?$AA_?$AAs?$AA?$CI?$AAs?$AA?0?$AA?5?$AAl?$AAe?$AAn?$AA?5?$AA?9?$AA?5?$AA?$CI?$AAs?$AA?5?$AA?9?$AA?5?$AAp?$AA?$CJ?$AA?0?$AA?5?$AAp?$AAt?$AA?9?$AA?$DO?$AAw@ 101b3688     LIBCMTD:strftime.obj
 0002:000156e0       ??_C@_1FI@PPIHCJGH@?$AAs?$AAt?$AAr?$AAc?$AAp?$AAy?$AA_?$AAs?$AA?$CI?$AAs?$AA?0?$AA?5?$AAl?$AAe?$AAn?$AA?5?$AA?9?$AA?5?$AA?$CI?$AAs?$AA?5?$AA?9?$AA?5?$AAp?$AA?$CJ?$AA?0?$AA?5?$AAp?$AAt?$AA?9?$AA?$DO?$AAw@ 101b36e0     LIBCMTD:strftime.obj
 0002:00015738       ??_C@_1FI@GDNOPCGD@?$AAs?$AAt?$AAr?$AAc?$AAp?$AAy?$AA_?$AAs?$AA?$CI?$AAs?$AA?0?$AA?5?$AAl?$AAe?$AAn?$AA?5?$AA?9?$AA?5?$AA?$CI?$AAs?$AA?5?$AA?9?$AA?5?$AAp?$AA?$CJ?$AA?0?$AA?5?$AAp?$AAt?$AA?9?$AA?$DO?$AAw@ 101b3738     LIBCMTD:strftime.obj
 0002:00015790       ??_C@_1FA@MEHIJEIL@?$AAs?$AAt?$AAr?$AAc?$AAp?$AAy?$AA_?$AAs?$AA?$CI?$AAs?$AA?0?$AA?5?$AAl?$AAe?$AAn?$AA?5?$AA?9?$AA?5?$AA?$CI?$AAs?$AA?5?$AA?9?$AA?5?$AAp?$AA?$CJ?$AA?0?$AA?5?$AAp?$AAt?$AA?9?$AA?$DO?$AAa@ 101b3790     LIBCMTD:strftime.obj
 0002:000157e0       ??_C@_1FA@INCJEBF@?$AAs?$AAt?$AAr?$AAc?$AAp?$AAy?$AA_?$AAs?$AA?$CI?$AAs?$AA?0?$AA?5?$AAl?$AAe?$AAn?$AA?5?$AA?9?$AA?5?$AA?$CI?$AAs?$AA?5?$AA?9?$AA?5?$AAp?$AA?$CJ?$AA?0?$AA?5?$AAp?$AAt?$AA?9?$AA?$DO?$AAa@ 101b37e0     LIBCMTD:strftime.obj
 0002:00015830       ??_C@_1FC@BEAPAEGE@?$AAs?$AAt?$AAr?$AAc?$AAp?$AAy?$AA_?$AAs?$AA?$CI?$AAs?$AA?0?$AA?5?$AAl?$AAe?$AAn?$AA?5?$AA?9?$AA?5?$AA?$CI?$AAs?$AA?5?$AA?9?$AA?5?$AAp?$AA?$CJ?$AA?0?$AA?5?$AAp?$AAt?$AA?9?$AA?$DO?$AAm@ 101b3830     LIBCMTD:strftime.obj
 0002:00015888       ??_C@_1FM@CHHONFED@?$AAs?$AAt?$AAr?$AAc?$AAp?$AAy?$AA_?$AAs?$AA?$CI?$AAs?$AA?0?$AA?5?$AAl?$AAe?$AAn?$AA?5?$AA?9?$AA?5?$AA?$CI?$AAs?$AA?5?$AA?9?$AA?5?$AAp?$AA?$CJ?$AA?0?$AA?5?$AAp?$AAt?$AA?9?$AA?$DO?$AAm@ 101b3888     LIBCMTD:strftime.obj
 0002:000158e8       ??_C@_1FA@EBHJJADL@?$AAs?$AAt?$AAr?$AAc?$AAp?$AAy?$AA_?$AAs?$AA?$CI?$AAs?$AA?0?$AA?5?$AAl?$AAe?$AAn?$AA?5?$AA?9?$AA?5?$AA?$CI?$AAs?$AA?5?$AA?9?$AA?5?$AAp?$AA?$CJ?$AA?0?$AA?5?$AAp?$AAt?$AA?9?$AA?$DO?$AAw@ 101b38e8     LIBCMTD:strftime.obj
 0002:00015938       ??_C@_1FK@ODMKEFLD@?$AAs?$AAt?$AAr?$AAc?$AAp?$AAy?$AA_?$AAs?$AA?$CI?$AAs?$AA?0?$AA?5?$AAl?$AAe?$AAn?$AA?5?$AA?9?$AA?5?$AA?$CI?$AAs?$AA?5?$AA?9?$AA?5?$AAp?$AA?$CJ?$AA?0?$AA?5?$AAp?$AAt?$AA?9?$AA?$DO?$AAw@ 101b3938     LIBCMTD:strftime.obj
 0002:00015994       ??_C@_1BK@MJNHIAGO@?$AA_?$AAG?$AAe?$AAt?$AAt?$AAn?$AAa?$AAm?$AAe?$AAs?$AA_?$AAl?$AA?$AA@ 101b3994     LIBCMTD:strftime.obj
 0002:000159b0       ??_C@_1M@HCOOECOK@?$AAF?$AAA?$AAL?$AAS?$AAE?$AA?$AA@ 101b39b0     LIBCMTD:strftime.obj
 0002:000159c0       ??_C@_1HC@JGDOBCNK@?$AA?$CI?$AA?$CC?$AAI?$AAn?$AAv?$AAa?$AAl?$AAi?$AAd?$AA?5?$AAM?$AAB?$AAC?$AAS?$AA?5?$AAc?$AAh?$AAa?$AAr?$AAa?$AAc?$AAt?$AAe?$AAr?$AA?5?$AAs?$AAe?$AAq?$AAu?$AAe?$AAn?$AAc@ 101b39c0     LIBCMTD:strftime.obj
 0002:00015a34       ??_C@_1CA@COHOENPC@?$AAt?$AAi?$AAm?$AAe?$AAp?$AAt?$AAr?$AA?5?$AA?$CB?$AA?$DN?$AA?5?$AAN?$AAU?$AAL?$AAL?$AA?$AA@ 101b3a34     LIBCMTD:strftime.obj
 0002:00015a54       ??_C@_1CG@MHIOFJLE@?$AA?$CI?$AA?5?$AAf?$AAo?$AAr?$AAm?$AAa?$AAt?$AA?5?$AA?$CB?$AA?$DN?$AA?5?$AAN?$AAU?$AAL?$AAL?$AA?5?$AA?$CJ?$AA?$AA@ 101b3a54     LIBCMTD:strftime.obj
 0002:00015a7c       ??_C@_1CC@IHEJKGMG@?$AA?$CI?$AA?5?$AAm?$AAa?$AAx?$AAs?$AAi?$AAz?$AAe?$AA?5?$AA?$CB?$AA?$DN?$AA?5?$AA0?$AA?5?$AA?$CJ?$AA?$AA@ 101b3a7c     LIBCMTD:strftime.obj
 0002:00015aa0       ??_C@_1BI@ONBMGNNA@?$AA_?$AAS?$AAt?$AAr?$AAf?$AAt?$AAi?$AAm?$AAe?$AA_?$AAl?$AA?$AA@ 101b3aa0     LIBCMTD:strftime.obj
 0002:00015ab8       ??_C@_1CG@MPKJHDAA@?$AA?$CI?$AA?5?$AAs?$AAt?$AAr?$AAi?$AAn?$AAg?$AA?5?$AA?$CB?$AA?$DN?$AA?5?$AAN?$AAU?$AAL?$AAL?$AA?5?$AA?$CJ?$AA?$AA@ 101b3ab8     LIBCMTD:strftime.obj
 0002:00015ae0       ??_C@_1EG@JNJKHKFI@?$AA?$CI?$AA?5?$AA?$CC?$AAI?$AAn?$AAv?$AAa?$AAl?$AAi?$AAd?$AA?5?$AAf?$AAo?$AAr?$AAm?$AAa?$AAt?$AA?5?$AAd?$AAi?$AAr?$AAe?$AAc?$AAt?$AAi?$AAv?$AAe?$AA?$CC?$AA?5?$AA?0?$AA?5?$AA0@ 101b3ae0     LIBCMTD:strftime.obj
 0002:00015b28       ??_C@_1HM@LBNGKIAD@?$AA?$CI?$AA?5?$AAt?$AAi?$AAm?$AAe?$AAp?$AAt?$AAr?$AA?9?$AA?$DO?$AAt?$AAm?$AA_?$AAy?$AAe?$AAa?$AAr?$AA?5?$AA?$DO?$AA?$DN?$AA?5?$AA?9?$AA1?$AA9?$AA0?$AA0?$AA?5?$AA?$CJ?$AA?5?$AA?$CG?$AA?$CG@ 101b3b28     LIBCMTD:strftime.obj
 0002:00015ba4       ??_C@_1DC@NMCFBMJP@?$AA?$CI?$AA?5?$AAt?$AAi?$AAm?$AAe?$AAp?$AAt?$AAr?$AA?9?$AA?$DO?$AAt?$AAm?$AA_?$AAy?$AAe?$AAa?$AAr?$AA?5?$AA?$DO?$AA?$DN?$AA0?$AA?5?$AA?$CJ?$AA?$AA@ 101b3ba4     LIBCMTD:strftime.obj
 0002:00015bd8       ??_C@_1HC@HLKHIKOB@?$AA?$CI?$AA?5?$AA?$CI?$AA?5?$AAt?$AAi?$AAm?$AAe?$AAp?$AAt?$AAr?$AA?9?$AA?$DO?$AAt?$AAm?$AA_?$AAs?$AAe?$AAc?$AA?5?$AA?$DO?$AA?$DN?$AA0?$AA?5?$AA?$CJ?$AA?5?$AA?$CG?$AA?$CG?$AA?5?$AA?$CI?$AA?5?$AAt@ 101b3bd8     LIBCMTD:strftime.obj
 0002:00015c50       ??_C@_1HC@IGKDPPHL@?$AA?$CI?$AA?5?$AA?$CI?$AA?5?$AAt?$AAi?$AAm?$AAe?$AAp?$AAt?$AAr?$AA?9?$AA?$DO?$AAt?$AAm?$AA_?$AAm?$AAi?$AAn?$AA?5?$AA?$DO?$AA?$DN?$AA0?$AA?5?$AA?$CJ?$AA?5?$AA?$CG?$AA?$CG?$AA?5?$AA?$CI?$AA?5?$AAt@ 101b3c50     LIBCMTD:strftime.obj
 0002:00015cc8       ??_C@_1HI@HHCJCPE@?$AA?$CI?$AA?5?$AA?$CI?$AA?5?$AAt?$AAi?$AAm?$AAe?$AAp?$AAt?$AAr?$AA?9?$AA?$DO?$AAt?$AAm?$AA_?$AAy?$AAd?$AAa?$AAy?$AA?5?$AA?$DO?$AA?$DN?$AA0?$AA?5?$AA?$CJ?$AA?5?$AA?$CG?$AA?$CG?$AA?5?$AA?$CI?$AA?5@ 101b3cc8     LIBCMTD:strftime.obj
 0002:00015d40       ??_C@_1HG@KCGGFLNI@?$AA?$CI?$AA?5?$AA?$CI?$AA?5?$AAt?$AAi?$AAm?$AAe?$AAp?$AAt?$AAr?$AA?9?$AA?$DO?$AAt?$AAm?$AA_?$AAh?$AAo?$AAu?$AAr?$AA?5?$AA?$DO?$AA?$DN?$AA0?$AA?5?$AA?$CJ?$AA?5?$AA?$CG?$AA?$CG?$AA?5?$AA?$CI?$AA?5@ 101b3d40     LIBCMTD:strftime.obj
 0002:00015db8       ??_C@_1HG@NFHHOAD@?$AA?$CI?$AA?5?$AA?$CI?$AA?5?$AAt?$AAi?$AAm?$AAe?$AAp?$AAt?$AAr?$AA?9?$AA?$DO?$AAt?$AAm?$AA_?$AAm?$AAd?$AAa?$AAy?$AA?5?$AA?$DO?$AA?$DN?$AA1?$AA?5?$AA?$CJ?$AA?5?$AA?$CG?$AA?$CG?$AA?5?$AA?$CI?$AA?5@ 101b3db8     LIBCMTD:strftime.obj
 0002:00015e30       ??_C@_1HC@OOAMILFB@?$AA?$CI?$AA?5?$AA?$CI?$AA?5?$AAt?$AAi?$AAm?$AAe?$AAp?$AAt?$AAr?$AA?9?$AA?$DO?$AAt?$AAm?$AA_?$AAm?$AAo?$AAn?$AA?5?$AA?$DO?$AA?$DN?$AA0?$AA?5?$AA?$CJ?$AA?5?$AA?$CG?$AA?$CG?$AA?5?$AA?$CI?$AA?5?$AAt@ 101b3e30     LIBCMTD:strftime.obj
 0002:00015ea4       ??_C@_1BI@HBKPAJH@?$AA_?$AAe?$AAx?$AAp?$AAa?$AAn?$AAd?$AAt?$AAi?$AAm?$AAe?$AA?$AA@ 101b3ea4     LIBCMTD:strftime.obj
 0002:00015ec0       ??_C@_1HE@BFLEOKFO@?$AA?$CI?$AA?5?$AA?$CI?$AA?5?$AAt?$AAi?$AAm?$AAe?$AAp?$AAt?$AAr?$AA?9?$AA?$DO?$AAt?$AAm?$AA_?$AAw?$AAd?$AAa?$AAy?$AA?5?$AA?$DO?$AA?$DN?$AA0?$AA?5?$AA?$CJ?$AA?5?$AA?$CG?$AA?$CG?$AA?5?$AA?$CI?$AA?5@ 101b3ec0     LIBCMTD:strftime.obj
 0002:00015f38       ??_C@_1HG@PAEENAPO@?$AA?$CI?$AA?$CC?$AAI?$AAn?$AAv?$AAa?$AAl?$AAi?$AAd?$AA?5?$AAM?$AAB?$AAC?$AAS?$AA?5?$AAc?$AAh?$AAa?$AAr?$AAa?$AAc?$AAt?$AAe?$AAr?$AA?5?$AAs?$AAe?$AAq?$AAu?$AAe?$AAn?$AAc@ 101b3f38     LIBCMTD:strftime.obj
 0002:00015fb0       ??_C@_1IE@EIDABBDG@?$AA?$CI?$AA?$CC?$AAI?$AAn?$AAv?$AAa?$AAl?$AAi?$AAd?$AA?5?$AAM?$AAB?$AAC?$AAS?$AA?5?$AAc?$AAh?$AAa?$AAr?$AAa?$AAc?$AAt?$AAe?$AAr?$AA?5?$AAs?$AAe?$AAq?$AAu?$AAe?$AAn?$AAc@ 101b3fb0     LIBCMTD:strftime.obj
 0002:00016034       ??_C@_03EBAPMIKO@a?1p?$AA@ 101b4034     LIBCMTD:strftime.obj
 0002:00016038       ??_C@_05JAMEPDIN@am?1pm?$AA@ 101b4038     LIBCMTD:strftime.obj
 0002:00016040       ??_C@_1BE@NDMJHJJG@?$AAs?$AAt?$AAr?$AAn?$AAc?$AAp?$AAy?$AA_?$AAs?$AA?$AA@ 101b4040     LIBCMTD:strncpy_s.obj
 0002:00016054       ??_C@_1BC@HGPNAKGC@?$AAs?$AAt?$AAr?$AAc?$AAa?$AAt?$AA_?$AAs?$AA?$AA@ 101b4054     LIBCMTD:strcat_s.obj
 0002:00016068       ??_C@_0O@FMJNFNKE@united?9states?$AA@ 101b4068     LIBCMTD:getqloc.obj
 0002:00016078       ??_C@_0P@NDHFFKCA@united?9kingdom?$AA@ 101b4078     LIBCMTD:getqloc.obj
 0002:00016088       ??_C@_0BC@HHDADLGF@trinidad?5?$CG?5tobago?$AA@ 101b4088     LIBCMTD:getqloc.obj
 0002:0001609c       ??_C@_0M@IOAEBDAC@south?9korea?$AA@ 101b409c     LIBCMTD:getqloc.obj
 0002:000160a8       ??_C@_0N@FIELFKIJ@south?9africa?$AA@ 101b40a8     LIBCMTD:getqloc.obj
 0002:000160b8       ??_C@_0M@OPNDHCMC@south?5korea?$AA@ 101b40b8     LIBCMTD:getqloc.obj
 0002:000160c4       ??_C@_0N@MDEOEPFI@south?5africa?$AA@ 101b40c4     LIBCMTD:getqloc.obj
 0002:000160d4       ??_C@_06FKAPCJLB@slovak?$AA@ 101b40d4     LIBCMTD:getqloc.obj
 0002:000160dc       ??_C@_0M@EFJANOAL@puerto?9rico?$AA@ 101b40dc     LIBCMTD:getqloc.obj
 0002:000160e8       ??_C@_08PGOJKDAI@pr?9china?$AA@ 101b40e8     LIBCMTD:getqloc.obj
 0002:000160f4       ??_C@_08JHDOMCMI@pr?5china?$AA@ 101b40f4     LIBCMTD:getqloc.obj
 0002:00016100       ??_C@_02JHCHFBLL@nz?$AA@   101b4100     LIBCMTD:getqloc.obj
 0002:00016104       ??_C@_0M@LINHDHKP@new?9zealand?$AA@ 101b4104     LIBCMTD:getqloc.obj
 0002:00016110       ??_C@_09IIIPPBDB@hong?9kong?$AA@ 101b4110     LIBCMTD:getqloc.obj
 0002:0001611c       ??_C@_07HJLCKBG@holland?$AA@ 101b411c     LIBCMTD:getqloc.obj
 0002:00016124       ??_C@_0O@LEHGMHAG@great?5britain?$AA@ 101b4124     LIBCMTD:getqloc.obj
 0002:00016134       ??_C@_07FACOMELA@england?$AA@ 101b4134     LIBCMTD:getqloc.obj
 0002:0001613c       ??_C@_05JIHCEICB@czech?$AA@ 101b413c     LIBCMTD:getqloc.obj
 0002:00016144       ??_C@_05BBJOBLGB@china?$AA@ 101b4144     LIBCMTD:getqloc.obj
 0002:0001614c       ??_C@_07GPKPHICP@britain?$AA@ 101b414c     LIBCMTD:getqloc.obj
 0002:00016154       ??_C@_07MHIPBHMG@america?$AA@ 101b4154     LIBCMTD:getqloc.obj
 0002:0001615c       ??_C@_03KIALPMKC@usa?$AA@  101b415c     LIBCMTD:getqloc.obj
 0002:00016160       ??_C@_02FGJGKGGD@us?$AA@   101b4160     LIBCMTD:getqloc.obj
 0002:00016164       ??_C@_02NEINDODK@uk?$AA@   101b4164     LIBCMTD:getqloc.obj
 0002:00016168       ??_C@_05JMPCFJFJ@swiss?$AA@ 101b4168     LIBCMTD:getqloc.obj
 0002:00016170       ??_C@_0BA@HLOCPIOD@swedish?9finland?$AA@ 101b4170     LIBCMTD:getqloc.obj
 0002:00016180       ??_C@_0BC@PKCNIABK@spanish?9venezuela?$AA@ 101b4180     LIBCMTD:getqloc.obj
 0002:00016194       ??_C@_0BA@GBHHMIJI@spanish?9uruguay?$AA@ 101b4194     LIBCMTD:getqloc.obj
 0002:000161a4       ??_C@_0BE@BHDOHPMC@spanish?9puerto?5rico?$AA@ 101b41a4     LIBCMTD:getqloc.obj
 0002:000161b8       ??_C@_0N@KMOIDGGN@spanish?9peru?$AA@ 101b41b8     LIBCMTD:getqloc.obj
 0002:000161c8       ??_C@_0BB@HMHLPGPH@spanish?9paraguay?$AA@ 101b41c8     LIBCMTD:getqloc.obj
 0002:000161dc       ??_C@_0P@MCPKNGFD@spanish?9panama?$AA@ 101b41dc     LIBCMTD:getqloc.obj
 0002:000161ec       ??_C@_0BC@IHOHGAIL@spanish?9nicaragua?$AA@ 101b41ec     LIBCMTD:getqloc.obj
 0002:00016200       ??_C@_0P@KLMJDNFJ@spanish?9modern?$AA@ 101b4200     LIBCMTD:getqloc.obj
 0002:00016210       ??_C@_0BA@BPAPGBCM@spanish?9mexican?$AA@ 101b4210     LIBCMTD:getqloc.obj
 0002:00016220       ??_C@_0BB@PDECHHHE@spanish?9honduras?$AA@ 101b4220     LIBCMTD:getqloc.obj
 0002:00016234       ??_C@_0BC@KLHKFGDB@spanish?9guatemala?$AA@ 101b4234     LIBCMTD:getqloc.obj
 0002:00016248       ??_C@_0BE@MFOOKJAI@spanish?9el?5salvador?$AA@ 101b4248     LIBCMTD:getqloc.obj
 0002:0001625c       ??_C@_0BA@FCOKFPFC@spanish?9ecuador?$AA@ 101b425c     LIBCMTD:getqloc.obj
 0002:0001626c       ??_C@_0BL@PLMGIMOO@spanish?9dominican?5republic?$AA@ 101b426c     LIBCMTD:getqloc.obj
 0002:00016288       ??_C@_0BD@HLGDNMHB@spanish?9costa?5rica?$AA@ 101b4288     LIBCMTD:getqloc.obj
 0002:0001629c       ??_C@_0BB@PKCBKCPE@spanish?9colombia?$AA@ 101b429c     LIBCMTD:getqloc.obj
 0002:000162b0       ??_C@_0O@MCBIJGNE@spanish?9chile?$AA@ 101b42b0     LIBCMTD:getqloc.obj
 0002:000162c0       ??_C@_0BA@BEFEIGJJ@spanish?9bolivia?$AA@ 101b42c0     LIBCMTD:getqloc.obj
 0002:000162d0       ??_C@_0BC@EMECMPD@spanish?9argentina?$AA@ 101b42d0     LIBCMTD:getqloc.obj
 0002:000162e4       ??_C@_0BF@EALFLENP@portuguese?9brazilian?$AA@ 101b42e4     LIBCMTD:getqloc.obj
 0002:000162fc       ??_C@_0BC@HBLEBLNN@norwegian?9nynorsk?$AA@ 101b42fc     LIBCMTD:getqloc.obj
 0002:00016310       ??_C@_0BB@HMACDDCK@norwegian?9bokmal?$AA@ 101b4310     LIBCMTD:getqloc.obj
 0002:00016324       ??_C@_09BAFFPPHE@norwegian?$AA@ 101b4324     LIBCMTD:getqloc.obj
 0002:00016330       ??_C@_0O@EAJFJDFG@italian?9swiss?$AA@ 101b4330     LIBCMTD:getqloc.obj
 0002:00016340       ??_C@_0O@CNOMPGD@irish?9english?$AA@ 101b4340     LIBCMTD:getqloc.obj
 0002:00016350       ??_C@_0N@EDHBGCKG@german?9swiss?$AA@ 101b4350     LIBCMTD:getqloc.obj
 0002:00016360       ??_C@_0BC@JACMHNBP@german?9luxembourg?$AA@ 101b4360     LIBCMTD:getqloc.obj
 0002:00016374       ??_C@_0BE@HBGMGFEG@german?9lichtenstein?$AA@ 101b4374     LIBCMTD:getqloc.obj
 0002:00016388       ??_C@_0BA@HKKBIBKL@german?9austrian?$AA@ 101b4388     LIBCMTD:getqloc.obj
 0002:00016398       ??_C@_0N@GCAEPEBK@french?9swiss?$AA@ 101b4398     LIBCMTD:getqloc.obj
 0002:000163a8       ??_C@_0BC@DJFJJCK@french?9luxembourg?$AA@ 101b43a8     LIBCMTD:getqloc.obj
 0002:000163bc       ??_C@_0BA@NNCEDFIC@french?9canadian?$AA@ 101b43bc     LIBCMTD:getqloc.obj
 0002:000163cc       ??_C@_0P@CMPOCLM@french?9belgian?$AA@ 101b43cc     LIBCMTD:getqloc.obj
 0002:000163dc       ??_C@_0M@GHHDJOK@english?9usa?$AA@ 101b43dc     LIBCMTD:getqloc.obj
 0002:000163e8       ??_C@_0L@PLDJKEIL@english?9us?$AA@ 101b43e8     LIBCMTD:getqloc.obj
 0002:000163f4       ??_C@_0L@HJCCDMNC@english?9uk?$AA@ 101b43f4     LIBCMTD:getqloc.obj
 0002:00016400       ??_C@_0BK@CKLIAGJB@english?9trinidad?5y?5tobago?$AA@ 101b4400     LIBCMTD:getqloc.obj
 0002:0001641c       ??_C@_0BF@JMJMGNNF@english?9south?5africa?$AA@ 101b441c     LIBCMTD:getqloc.obj
 0002:00016434       ??_C@_0L@DKIIFDFD@english?9nz?$AA@ 101b4434     LIBCMTD:getqloc.obj
 0002:00016440       ??_C@_0BA@ONHGJCLH@english?9jamaica?$AA@ 101b4440     LIBCMTD:getqloc.obj
 0002:00016450       ??_C@_0M@HJBGHOPO@english?9ire?$AA@ 101b4450     LIBCMTD:getqloc.obj
 0002:0001645c       ??_C@_0BC@LFEKMIFB@english?9caribbean?$AA@ 101b445c     LIBCMTD:getqloc.obj
 0002:00016470       ??_C@_0M@OLDPFKHI@english?9can?$AA@ 101b4470     LIBCMTD:getqloc.obj
 0002:0001647c       ??_C@_0P@OMDEHBMP@english?9belize?$AA@ 101b447c     LIBCMTD:getqloc.obj
 0002:0001648c       ??_C@_0M@KFHFPFED@english?9aus?$AA@ 101b448c     LIBCMTD:getqloc.obj
 0002:00016498       ??_C@_0BB@MNMBKDFE@english?9american?$AA@ 101b4498     LIBCMTD:getqloc.obj
 0002:000164ac       ??_C@_0O@KIDLNNBA@dutch?9belgian?$AA@ 101b44ac     LIBCMTD:getqloc.obj
 0002:000164bc       ??_C@_0BE@JBKABBMH@chinese?9traditional?$AA@ 101b44bc     LIBCMTD:getqloc.obj
 0002:000164d0       ??_C@_0BC@MJJMPKCG@chinese?9singapore?$AA@ 101b44d0     LIBCMTD:getqloc.obj
 0002:000164e4       ??_C@_0BD@FDKADDCP@chinese?9simplified?$AA@ 101b44e4     LIBCMTD:getqloc.obj
 0002:000164f8       ??_C@_0BB@DBEFDDME@chinese?9hongkong?$AA@ 101b44f8     LIBCMTD:getqloc.obj
 0002:0001650c       ??_C@_07DHNMFMCI@chinese?$AA@ 101b450c     LIBCMTD:getqloc.obj
 0002:00016514       ??_C@_03FNDDCHI@chi?$AA@   101b4514     LIBCMTD:getqloc.obj
 0002:00016518       ??_C@_03BMMIADDJ@chh?$AA@  101b4518     LIBCMTD:getqloc.obj
 0002:0001651c       ??_C@_08OAIPJDGI@canadian?$AA@ 101b451c     LIBCMTD:getqloc.obj
 0002:00016528       ??_C@_07HBPMNPNJ@belgian?$AA@ 101b4528     LIBCMTD:getqloc.obj
 0002:00016530       ??_C@_0L@OEKOPBEL@australian?$AA@ 101b4530     LIBCMTD:getqloc.obj
 0002:0001653c       ??_C@_0BB@MEIMBEDG@american?9english?$AA@ 101b453c     LIBCMTD:getqloc.obj
 0002:00016550       ??_C@_0BB@DFMDPDGB@american?5english?$AA@ 101b4550     LIBCMTD:getqloc.obj
 0002:00016564       ??_C@_08IJLOKOLL@american?$AA@ 101b4564     LIBCMTD:getqloc.obj
 0002:00016570       ___rg_language             101b4570     LIBCMTD:getqloc.obj
 0002:00016778       ___rg_country              101b4778     LIBCMTD:getqloc.obj
 0002:00016830       ___rglangidNotDefault      101b4830     LIBCMTD:getqloc.obj
 0002:00016844       ??_C@_0BC@NFIEMBLL@Norwegian?9Nynorsk?$AA@ 101b4844     LIBCMTD:getqloc.obj
 0002:00016858       ??_C@_1OM@OECHDGCF@?$AAs?$AAt?$AAr?$AAc?$AAp?$AAy?$AA_?$AAs?$AA?$CI?$AAl?$AAp?$AAO?$AAu?$AAt?$AAS?$AAt?$AAr?$AA?9?$AA?$DO?$AAs?$AAz?$AAL?$AAa?$AAn?$AAg?$AAu?$AAa?$AAg?$AAe?$AA?0?$AA?5?$AA?$CI@ 101b4858     LIBCMTD:getqloc.obj
 0002:00016944       ??_C@_1CO@NJACLALJ@?$AA_?$AA_?$AAg?$AAe?$AAt?$AA_?$AAq?$AAu?$AAa?$AAl?$AAi?$AAf?$AAi?$AAe?$AAd?$AA_?$AAl?$AAo?$AAc?$AAa?$AAl?$AAe?$AA?$AA@ 101b4944     LIBCMTD:getqloc.obj
 0002:00016978       ??_C@_1GC@FECJGAE@?$AAf?$AA?3?$AA?2?$AAd?$AAd?$AA?2?$AAv?$AAc?$AAt?$AAo?$AAo?$AAl?$AAs?$AA?2?$AAc?$AAr?$AAt?$AA_?$AAb?$AAl?$AAd?$AA?2?$AAs?$AAe?$AAl?$AAf?$AA_?$AAx?$AA8?$AA6?$AA?2?$AAc@ 101b4978     LIBCMTD:getqloc.obj
 0002:000169dc       ??_C@_03NFKLAGEF@OCP?$AA@  101b49dc     LIBCMTD:getqloc.obj
 0002:000169e0       ??_C@_01GBGANLPD@0?$AA@    101b49e0     LIBCMTD:getqloc.obj
 0002:000169e4       ??_C@_03DFHEHBHG@ACP?$AA@  101b49e4     LIBCMTD:getqloc.obj
 0002:000169e8       ??_C@_1FA@HILOOCMA@?$AA?$CI?$AA_?$AAt?$AAc?$AAs?$AAn?$AAl?$AAe?$AAn?$AA?$CI?$AAo?$AAp?$AAt?$AAi?$AAo?$AAn?$AA?0?$AA?5?$AA_?$AAM?$AAA?$AAX?$AA_?$AAE?$AAN?$AAV?$AA?$CJ?$AA?5?$AA?$DM?$AA?5?$AA_?$AAM@ 101b49e8     LIBCMTD:getenv.obj
 0002:00016a38       ??_C@_1O@GMKGKCJO@?$AAg?$AAe?$AAt?$AAe?$AAn?$AAv?$AA?$AA@ 101b4a38     LIBCMTD:getenv.obj
 0002:00016a48       ??_C@_1GA@IPPICGKB@?$AAf?$AA?3?$AA?2?$AAd?$AAd?$AA?2?$AAv?$AAc?$AAt?$AAo?$AAo?$AAl?$AAs?$AA?2?$AAc?$AAr?$AAt?$AA_?$AAb?$AAl?$AAd?$AA?2?$AAs?$AAe?$AAl?$AAf?$AA_?$AAx?$AA8?$AA6?$AA?2?$AAc@ 101b4a48     LIBCMTD:getenv.obj
 0002:00016aa8       ??_C@_1CC@FKAOHHLO@?$AA?$CI?$AAo?$AAp?$AAt?$AAi?$AAo?$AAn?$AA?5?$AA?$CB?$AA?$DN?$AA?5?$AAN?$AAU?$AAL?$AAL?$AA?$CJ?$AA?$AA@ 101b4aa8     LIBCMTD:getenv.obj
 0002:00016ad0       ??_C@_1GI@JBIFPFJH@?$AA_?$AAt?$AAc?$AAs?$AAn?$AAl?$AAe?$AAn?$AA?$CI?$AA?$CK?$AAs?$AAe?$AAa?$AAr?$AAc?$AAh?$AA?5?$AA?$CL?$AA?5?$AAl?$AAe?$AAn?$AAg?$AAt?$AAh?$AA?5?$AA?$CL?$AA?5?$AA1?$AA?0?$AA?5?$AA_@ 101b4ad0     LIBCMTD:getenv.obj
 0002:00016b38       ??_C@_1EI@HHOBPCFK@?$AAs?$AAt?$AAr?$AAc?$AAp?$AAy?$AA_?$AAs?$AA?$CI?$AAb?$AAu?$AAf?$AAf?$AAe?$AAr?$AA?0?$AA?5?$AAs?$AAi?$AAz?$AAe?$AAI?$AAn?$AAT?$AAC?$AAh?$AAa?$AAr?$AAs?$AA?0?$AA?5?$AAs@ 101b4b38     LIBCMTD:getenv.obj
 0002:00016b80       ??_C@_1JM@NLPGJJPH@?$AA?$CI?$AAb?$AAu?$AAf?$AAf?$AAe?$AAr?$AA?5?$AA?$CB?$AA?$DN?$AA?5?$AAN?$AAU?$AAL?$AAL?$AA?5?$AA?$CG?$AA?$CG?$AA?5?$AAs?$AAi?$AAz?$AAe?$AAI?$AAn?$AAT?$AAC?$AAh?$AAa?$AAr?$AAs?$AA?5@ 101b4b80     LIBCMTD:getenv.obj
 0002:00016c1c       ??_C@_1CC@BAJKDIIF@?$AA_?$AAg?$AAe?$AAt?$AAe?$AAn?$AAv?$AA_?$AAs?$AA_?$AAh?$AAe?$AAl?$AAp?$AAe?$AAr?$AA?$AA@ 101b4c1c     LIBCMTD:getenv.obj
 0002:00016c40       ??_C@_1CK@PIKDAOCL@?$AAp?$AAR?$AAe?$AAt?$AAu?$AAr?$AAn?$AAV?$AAa?$AAl?$AAu?$AAe?$AA?5?$AA?$CB?$AA?$DN?$AA?5?$AAN?$AAU?$AAL?$AAL?$AA?$AA@ 101b4c40     LIBCMTD:getenv.obj
 0002:00016c6c       ??_C@_1DM@GNKNEGJO@?$AAs?$AAt?$AAr?$AAc?$AAp?$AAy?$AA_?$AAs?$AA?$CI?$AA?$CK?$AAp?$AAB?$AAu?$AAf?$AAf?$AAe?$AAr?$AA?0?$AA?5?$AAs?$AAi?$AAz?$AAe?$AA?0?$AA?5?$AAs?$AAt?$AAr?$AA?$CJ?$AA?$AA@ 101b4c6c     LIBCMTD:getenv.obj
 0002:00016ca8       ??_C@_1CA@GDBKELOE@?$AAv?$AAa?$AAr?$AAn?$AAa?$AAm?$AAe?$AA?5?$AA?$CB?$AA?$DN?$AA?5?$AAN?$AAU?$AAL?$AAL?$AA?$AA@ 101b4ca8     LIBCMTD:getenv.obj
 0002:00016cc8       ??_C@_1CC@KPLOPIEM@?$AA_?$AAd?$AAu?$AAp?$AAe?$AAn?$AAv?$AA_?$AAs?$AA_?$AAh?$AAe?$AAl?$AAp?$AAe?$AAr?$AA?$AA@ 101b4cc8     LIBCMTD:getenv.obj
 0002:00016cec       ??_C@_1CA@FHNFMDOJ@?$AAp?$AAB?$AAu?$AAf?$AAf?$AAe?$AAr?$AA?5?$AA?$CB?$AA?$DN?$AA?5?$AAN?$AAU?$AAL?$AAL?$AA?$AA@ 101b4cec     LIBCMTD:getenv.obj
 0002:00016d0c       ??_C@_0DB@KIKNCIEC@f?3?2dd?2vctools?2crt_bld?2self_x86?2c@ 101b4d0c     LIBCMTD:osfinfo.obj
 0002:00016d40       ??_C@_1BO@EMBOBGKE@?$AA_?$AAg?$AAe?$AAt?$AA_?$AAo?$AAs?$AAf?$AAh?$AAa?$AAn?$AAd?$AAl?$AAe?$AA?$AA@ 101b4d40     LIBCMTD:osfinfo.obj
 0002:00016d60       ??_C@_1GC@MLKLDJJG@?$AAf?$AA?3?$AA?2?$AAd?$AAd?$AA?2?$AAv?$AAc?$AAt?$AAo?$AAo?$AAl?$AAs?$AA?2?$AAc?$AAr?$AAt?$AA_?$AAb?$AAl?$AAd?$AA?2?$AAs?$AAe?$AAl?$AAf?$AA_?$AAx?$AA8?$AA6?$AA?2?$AAc@ 101b4d60     LIBCMTD:osfinfo.obj
 0002:00016dc4       ??_C@_1BA@NGNGNDEP@?$AA_?$AAc?$AAp?$AAu?$AAt?$AAw?$AAs?$AA?$AA@ 101b4dc4     LIBCMTD:putwch.obj
 0002:00016dd8       ??_C@_1GA@NKLOJFIJ@?$AAf?$AA?3?$AA?2?$AAd?$AAd?$AA?2?$AAv?$AAc?$AAt?$AAo?$AAo?$AAl?$AAs?$AA?2?$AAc?$AAr?$AAt?$AA_?$AAb?$AAl?$AAd?$AA?2?$AAs?$AAe?$AAl?$AAf?$AA_?$AAx?$AA8?$AA6?$AA?2?$AAc@ 101b4dd8     LIBCMTD:putwch.obj
 0002:00016e38       ??_C@_1GA@GFFDGGFH@?$AAf?$AA?3?$AA?2?$AAd?$AAd?$AA?2?$AAv?$AAc?$AAt?$AAo?$AAo?$AAl?$AAs?$AA?2?$AAc?$AAr?$AAt?$AA_?$AAb?$AAl?$AAd?$AA?2?$AAs?$AAe?$AAl?$AAf?$AA_?$AAx?$AA8?$AA6?$AA?2?$AAc@ 101b4e38     LIBCMTD:mbtowc.obj
 0002:00016e98       ??_C@_1NC@EINCOKCO@?$AA_?$AAl?$AAo?$AAc?$AA_?$AAu?$AAp?$AAd?$AAa?$AAt?$AAe?$AA?4?$AAG?$AAe?$AAt?$AAL?$AAo?$AAc?$AAa?$AAl?$AAe?$AAT?$AA?$CI?$AA?$CJ?$AA?9?$AA?$DO?$AAl?$AAo?$AAc?$AAi?$AAn?$AAf@ 101b4e98     LIBCMTD:mbtowc.obj
 0002:00016f6c       ??_C@_1M@MFLJCMFJ@?$AA_?$AAo?$AAp?$AAe?$AAn?$AA?$AA@ 101b4f6c     LIBCMTD:open.obj
 0002:00016f78       ??_C@_1FM@LFKHNNH@?$AAf?$AA?3?$AA?2?$AAd?$AAd?$AA?2?$AAv?$AAc?$AAt?$AAo?$AAo?$AAl?$AAs?$AA?2?$AAc?$AAr?$AAt?$AA_?$AAb?$AAl?$AAd?$AA?2?$AAs?$AAe?$AAl?$AAf?$AA_?$AAx?$AA8?$AA6?$AA?2?$AAc@ 101b4f78     LIBCMTD:open.obj
 0002:00016fd4       ??_C@_1BO@DPAOGEII@?$AA?$CI?$AAp?$AAa?$AAt?$AAh?$AA?5?$AA?$CB?$AA?$DN?$AA?5?$AAN?$AAU?$AAL?$AAL?$AA?$CJ?$AA?$AA@ 101b4fd4     LIBCMTD:open.obj
 0002:00016ff8       ??_C@_1FG@NFINBJCM@?$AA?$CI?$AA?$CI?$AAp?$AAm?$AAo?$AAd?$AAe?$AA?5?$AA?$CG?$AA?5?$AA?$CI?$AA?$HO?$AA?$CI?$AA_?$AAS?$AA_?$AAI?$AAR?$AAE?$AAA?$AAD?$AA?5?$AA?$HM?$AA?5?$AA_?$AAS?$AA_?$AAI?$AAW?$AAR?$AAI?$AAT@ 101b4ff8     LIBCMTD:open.obj
 0002:00017050       ??_C@_1BM@IOBAMMHO@?$AA_?$AAs?$AAo?$AAp?$AAe?$AAn?$AA_?$AAh?$AAe?$AAl?$AAp?$AAe?$AAr?$AA?$AA@ 101b5050     LIBCMTD:open.obj
 0002:0001706c       ??_C@_1BM@PGEEHLHE@?$AA?$CI?$AAp?$AAf?$AAh?$AA?5?$AA?$CB?$AA?$DN?$AA?5?$AAN?$AAU?$AAL?$AAL?$AA?$CJ?$AA?$AA@ 101b506c     LIBCMTD:open.obj
 0002:00017088       ??_C@_1IA@IENOJNJF@?$AA0?$AA?5?$AA?$CG?$AA?$CG?$AA?5?$AA?$CC?$AAO?$AAn?$AAl?$AAy?$AA?5?$AAU?$AAT?$AAF?$AA?9?$AA1?$AA6?$AA?5?$AAl?$AAi?$AAt?$AAt?$AAl?$AAe?$AA?5?$AAe?$AAn?$AAd?$AAi?$AAa?$AAn?$AA?5@ 101b5088     LIBCMTD:open.obj
 0002:00017108       ??_C@_1CM@IDLMKMPG@?$AA0?$AA?5?$AA?$CG?$AA?$CG?$AA?5?$AA?$CC?$AAI?$AAn?$AAt?$AAe?$AAr?$AAn?$AAa?$AAl?$AA?5?$AAE?$AAr?$AAr?$AAo?$AAr?$AA?$CC?$AA?$AA@ 101b5108     LIBCMTD:open.obj
 0002:00017138       ??_C@_1HM@GJANBLHJ@?$AA?$CI?$AAo?$AAf?$AAl?$AAa?$AAg?$AA?5?$AA?$CG?$AA?5?$AA?$CI?$AA_?$AAO?$AA_?$AAT?$AAE?$AAX?$AAT?$AA?5?$AA?$HM?$AA?5?$AA_?$AAO?$AA_?$AAW?$AAT?$AAE?$AAX?$AAT?$AA?5?$AA?$HM?$AA?5?$AA_@ 101b5138     LIBCMTD:open.obj
 0002:000171b4       ??_C@_1DO@PJLMOANO@?$AA?$CI?$AA?5?$AA?$CC?$AAI?$AAn?$AAv?$AAa?$AAl?$AAi?$AAd?$AA?5?$AAs?$AAh?$AAa?$AAr?$AAi?$AAn?$AAg?$AA?5?$AAf?$AAl?$AAa?$AAg?$AA?$CC?$AA?5?$AA?0?$AA?5?$AA0?$AA?5?$AA?$CJ?$AA?$AA@ 101b51b4     LIBCMTD:open.obj
 0002:000171f4       ??_C@_1DI@DGKIFCCE@?$AA?$CI?$AA?5?$AA?$CC?$AAI?$AAn?$AAv?$AAa?$AAl?$AAi?$AAd?$AA?5?$AAo?$AAp?$AAe?$AAn?$AA?5?$AAf?$AAl?$AAa?$AAg?$AA?$CC?$AA?5?$AA?0?$AA?5?$AA0?$AA?5?$AA?$CJ?$AA?$AA@ 101b51f4     LIBCMTD:open.obj
 0002:0001722c       ??_C@_1CG@ICBEBDJJ@?$AA_?$AAg?$AAe?$AAt?$AA_?$AAf?$AAm?$AAo?$AAd?$AAe?$AA?$CI?$AA?$CG?$AAf?$AAm?$AAo?$AAd?$AAe?$AA?$CJ?$AA?$AA@ 101b522c     LIBCMTD:open.obj
 0002:00017254       ??_C@_1BO@JOPFMPGH@?$AA_?$AAt?$AAs?$AAo?$AAp?$AAe?$AAn?$AA_?$AAn?$AAo?$AAl?$AAo?$AAc?$AAk?$AA?$AA@ 101b5254     LIBCMTD:open.obj
 0002:00017274       ??_C@_1BG@GBJNMPFA@?$AAs?$AA2?$AA?5?$AA?$CB?$AA?$DN?$AA?5?$AAN?$AAU?$AAL?$AAL?$AA?$AA@ 101b5274     LIBCMTD:mbsnbicm.obj
 0002:0001728c       ??_C@_1BK@GEJONGBG@?$AA_?$AAm?$AAb?$AAs?$AAn?$AAb?$AAi?$AAc?$AAm?$AAp?$AA_?$AAl?$AA?$AA@ 101b528c     LIBCMTD:mbsnbicm.obj
 0002:000172a8       ??_C@_1GE@JLFFJINF@?$AAf?$AA?3?$AA?2?$AAd?$AAd?$AA?2?$AAv?$AAc?$AAt?$AAo?$AAo?$AAl?$AAs?$AA?2?$AAc?$AAr?$AAt?$AA_?$AAb?$AAl?$AAd?$AA?2?$AAs?$AAe?$AAl?$AAf?$AA_?$AAx?$AA8?$AA6?$AA?2?$AAc@ 101b52a8     LIBCMTD:mbsnbicm.obj
 0002:0001730c       ??_C@_1BG@MODEICJK@?$AAs?$AA1?$AA?5?$AA?$CB?$AA?$DN?$AA?5?$AAN?$AAU?$AAL?$AAL?$AA?$AA@ 101b530c     LIBCMTD:mbsnbicm.obj
 0002:00017324       ??_C@_1BI@LPHOHGHI@?$AA_?$AAm?$AAb?$AAs?$AAn?$AAb?$AAc?$AAm?$AAp?$AA_?$AAl?$AA?$AA@ 101b5324     LIBCMTD:mbsnbcmp.obj
 0002:00017340       ??_C@_1GE@IIBFGEPN@?$AAf?$AA?3?$AA?2?$AAd?$AAd?$AA?2?$AAv?$AAc?$AAt?$AAo?$AAo?$AAl?$AAs?$AA?2?$AAc?$AAr?$AAt?$AA_?$AAb?$AAl?$AAd?$AA?2?$AAs?$AAe?$AAl?$AAf?$AA_?$AAx?$AA8?$AA6?$AA?2?$AAc@ 101b5340     LIBCMTD:mbsnbcmp.obj
 0002:000173a8       __atan_table               101b53a8     LIBCMTD:_atan_table_.obj
 0002:00018bb8       ??_C@_1O@JDPLECOK@?$AAu?$AAn?$AAg?$AAe?$AAt?$AAc?$AA?$AA@ 101b6bb8     LIBCMTD:ungetc.obj
 0002:00018bc8       ??_C@_1GA@OAFAANFO@?$AAf?$AA?3?$AA?2?$AAd?$AAd?$AA?2?$AAv?$AAc?$AAt?$AAo?$AAo?$AAl?$AAs?$AA?2?$AAc?$AAr?$AAt?$AA_?$AAb?$AAl?$AAd?$AA?2?$AAs?$AAe?$AAl?$AAf?$AA_?$AAx?$AA8?$AA6?$AA?2?$AAc@ 101b6bc8     LIBCMTD:ungetc.obj
 0002:00018c28       ??_C@_1BO@OLMLKKEA@?$AA_?$AAu?$AAn?$AAg?$AAe?$AAt?$AAc?$AA_?$AAn?$AAo?$AAl?$AAo?$AAc?$AAk?$AA?$AA@ 101b6c28     LIBCMTD:ungetc.obj
 0002:00018c48       ??_C@_1HC@OEJDDIIH@?$AAf?$AA?3?$AA?2?$AAd?$AAd?$AA?2?$AAv?$AAc?$AAt?$AAo?$AAo?$AAl?$AAs?$AA?2?$AAc?$AAr?$AAt?$AA_?$AAb?$AAl?$AAd?$AA?2?$AAs?$AAe?$AAl?$AAf?$AA_?$AAx?$AA8?$AA6?$AA?2?$AAc@ 101b6c48     LIBCMTD:ungetc.obj
 0002:00018cbc       ??_C@_0P@GGKDKEEG@runtime?5error?5?$AA@ 101b6cbc     LIBCMTD:crt0msg.obj
 0002:00018ccc       ??_C@_02PCIJFNDE@?$AN?6?$AA@ 101b6ccc     LIBCMTD:crt0msg.obj
 0002:00018cd0       ??_C@_0O@MJNIPGOH@TLOSS?5error?$AN?6?$AA@ 101b6cd0     LIBCMTD:crt0msg.obj
 0002:00018ce0       ??_C@_0N@BONNPDHF@SING?5error?$AN?6?$AA@ 101b6ce0     LIBCMTD:crt0msg.obj
 0002:00018cf0       ??_C@_0P@MBDAJNE@DOMAIN?5error?$AN?6?$AA@ 101b6cf0     LIBCMTD:crt0msg.obj
 0002:00018d00       ??_C@_0BFB@HKKMCDOL@R6034?$AN?6An?5application?5has?5made?5a@ 101b6d00     LIBCMTD:crt0msg.obj
 0002:00018e58       ??_C@_0PH@EPAFIJ@R6033?$AN?6?9?5Attempt?5to?5use?5MSIL?5cod@ 101b6e58     LIBCMTD:crt0msg.obj
 0002:00018f50       ??_C@_0DD@BKEEABMM@R6032?$AN?6?9?5not?5enough?5space?5for?5lo@ 101b6f50     LIBCMTD:crt0msg.obj
 0002:00018f88       ??_C@_0GD@OFKILIED@R6031?$AN?6?9?5Attempt?5to?5initialize?5t@ 101b6f88     LIBCMTD:crt0msg.obj
 0002:00018fec       ??_C@_0BP@LPMHJOKI@R6030?$AN?6?9?5CRT?5not?5initialized?$AN?6?$AA@ 101b6fec     LIBCMTD:crt0msg.obj
 0002:0001900c       ??_C@_0CF@KJDAIALP@R6028?$AN?6?9?5unable?5to?5initialize?5he@ 101b700c     LIBCMTD:crt0msg.obj
 0002:00019034       ??_C@_0DF@GAKBPDFP@R6027?$AN?6?9?5not?5enough?5space?5for?5lo@ 101b7034     LIBCMTD:crt0msg.obj
 0002:0001906c       ??_C@_0DF@IBLNNAIG@R6026?$AN?6?9?5not?5enough?5space?5for?5st@ 101b706c     LIBCMTD:crt0msg.obj
 0002:000190a4       ??_C@_0CG@IOHKGFNJ@R6025?$AN?6?9?5pure?5virtual?5function?5c@ 101b70a4     LIBCMTD:crt0msg.obj
 0002:000190cc       ??_C@_0DF@JIJJFJDC@R6024?$AN?6?9?5not?5enough?5space?5for?5_o@ 101b70cc     LIBCMTD:crt0msg.obj
 0002:00019104       ??_C@_0CJ@EGEJHFME@R6019?$AN?6?9?5unable?5to?5open?5console?5@ 101b7104     LIBCMTD:crt0msg.obj
 0002:00019130       ??_C@_0CB@GNHNIELH@R6018?$AN?6?9?5unexpected?5heap?5error?$AN?6@ 101b7130     LIBCMTD:crt0msg.obj
 0002:00019154       ??_C@_0CN@FOLDKNG@R6017?$AN?6?9?5unexpected?5multithread?5@ 101b7154     LIBCMTD:crt0msg.obj
 0002:00019184       ??_C@_0CM@FAHFJNHO@R6016?$AN?6?9?5not?5enough?5space?5for?5th@ 101b7184     LIBCMTD:crt0msg.obj
 0002:000191b0       ??_C@_0JG@LBKMGKLD@?$AN?6This?5application?5has?5requested@ 101b71b0     LIBCMTD:crt0msg.obj
 0002:00019248       ??_C@_0CM@FLCNIPKK@R6009?$AN?6?9?5not?5enough?5space?5for?5en@ 101b7248     LIBCMTD:crt0msg.obj
 0002:00019274       ??_C@_0CK@KMMJOAPP@R6008?$AN?6?9?5not?5enough?5space?5for?5ar@ 101b7274     LIBCMTD:crt0msg.obj
 0002:000192a0       ??_C@_0CN@LEKKICBM@R6002?$AN?6?9?5floating?5point?5support?5@ 101b72a0     LIBCMTD:crt0msg.obj
 0002:000192d0       ??_C@_0CF@GOGNBNAK@Microsoft?5Visual?5C?$CL?$CL?5Runtime?5Lib@ 101b72d0     LIBCMTD:crt0msg.obj
 0002:000192f8       ??_C@_1KC@JBIKIPNF@?$AAs?$AAt?$AAr?$AAc?$AAa?$AAt?$AA_?$AAs?$AA?$CI?$AAo?$AAu?$AAt?$AAm?$AAs?$AAg?$AA?0?$AA?5?$AA?$CI?$AAs?$AAi?$AAz?$AAe?$AAo?$AAf?$AA?$CI?$AAo?$AAu?$AAt?$AAm?$AAs?$AAg?$AA?$CJ@ 101b72f8     LIBCMTD:crt0msg.obj
 0002:000193a0       ??_C@_1HO@POLIDBMF@?$AAs?$AAt?$AAr?$AAc?$AAa?$AAt?$AA_?$AAs?$AA?$CI?$AAo?$AAu?$AAt?$AAm?$AAs?$AAg?$AA?0?$AA?5?$AA?$CI?$AAs?$AAi?$AAz?$AAe?$AAo?$AAf?$AA?$CI?$AAo?$AAu?$AAt?$AAm?$AAs?$AAg?$AA?$CJ@ 101b73a0     LIBCMTD:crt0msg.obj
 0002:00019420       ??_C@_1HG@CJJGKFHK@?$AAs?$AAt?$AAr?$AAn?$AAc?$AAp?$AAy?$AA_?$AAs?$AA?$CI?$AAp?$AAc?$AAh?$AA?0?$AA?5?$AAp?$AAr?$AAo?$AAg?$AAn?$AAa?$AAm?$AAe?$AA_?$AAs?$AAi?$AAz?$AAe?$AA?5?$AA?9?$AA?5?$AA?$CI@ 101b7420     LIBCMTD:crt0msg.obj
 0002:00019498       ??_C@_1HI@FOOPEDMH@?$AAs?$AAt?$AAr?$AAc?$AAp?$AAy?$AA_?$AAs?$AA?$CI?$AAp?$AAr?$AAo?$AAg?$AAn?$AAa?$AAm?$AAe?$AA?0?$AA?5?$AAp?$AAr?$AAo?$AAg?$AAn?$AAa?$AAm?$AAe?$AA_?$AAs?$AAi?$AAz?$AAe@ 101b7498     LIBCMTD:crt0msg.obj
 0002:00019510       ??_C@_0BK@OFGJDLJJ@Runtime?5Error?$CB?6?6Program?3?5?$AA@ 101b7510     LIBCMTD:crt0msg.obj
 0002:00019530       ??_C@_1KM@NKKPELHG@?$AAs?$AAt?$AAr?$AAc?$AAp?$AAy?$AA_?$AAs?$AA?$CI?$AAo?$AAu?$AAt?$AAm?$AAs?$AAg?$AA?0?$AA?5?$AA?$CI?$AAs?$AAi?$AAz?$AAe?$AAo?$AAf?$AA?$CI?$AAo?$AAu?$AAt?$AAm?$AAs?$AAg?$AA?$CJ@ 101b7530     LIBCMTD:crt0msg.obj
 0002:000195dc       ??_C@_1BI@EAHMBMEC@?$AA_?$AAN?$AAM?$AAS?$AAG?$AA_?$AAW?$AAR?$AAI?$AAT?$AAE?$AA?$AA@ 101b75dc     LIBCMTD:crt0msg.obj
 0002:000195f8       ??_C@_1GC@HKOJBOFF@?$AAf?$AA?3?$AA?2?$AAd?$AAd?$AA?2?$AAv?$AAc?$AAt?$AAo?$AAo?$AAl?$AAs?$AA?2?$AAc?$AAr?$AAt?$AA_?$AAb?$AAl?$AAd?$AA?2?$AAs?$AAe?$AAl?$AAf?$AA_?$AAx?$AA8?$AA6?$AA?2?$AAc@ 101b75f8     LIBCMTD:crt0msg.obj
 0002:0001965c       ??_C@_0DA@HMCPFNKN@f?3?2dd?2vctools?2crt_bld?2self_x86?2c@ 101b765c     LIBCMTD:onexit.obj
 0002:0001968c       ??_C@_0BC@JEAENNKH@SystemFunction036?$AA@ 101b768c     LIBCMTD:rand_s.obj
 0002:000196a0       ??_C@_1GA@EBEDGGGB@?$AA?$CI?$AA?$CC?$AAr?$AAa?$AAn?$AAd?$AA_?$AAs?$AA?5?$AAi?$AAs?$AA?5?$AAn?$AAo?$AAt?$AA?5?$AAa?$AAv?$AAa?$AAi?$AAl?$AAa?$AAb?$AAl?$AAe?$AA?5?$AAo?$AAn?$AA?5?$AAt?$AAh?$AAi@ 101b76a0     LIBCMTD:rand_s.obj
 0002:00019700       ??_C@_0N@JJPEKNFO@ADVAPI32?4DLL?$AA@ 101b7700     LIBCMTD:rand_s.obj
 0002:00019710       ??_C@_1O@IJGPPOGF@?$AAr?$AAa?$AAn?$AAd?$AA_?$AAs?$AA?$AA@ 101b7710     LIBCMTD:rand_s.obj
 0002:00019720       ??_C@_1GA@HBGBBKCD@?$AAf?$AA?3?$AA?2?$AAd?$AAd?$AA?2?$AAv?$AAc?$AAt?$AAo?$AAo?$AAl?$AAs?$AA?2?$AAc?$AAr?$AAt?$AA_?$AAb?$AAl?$AAd?$AA?2?$AAs?$AAe?$AAl?$AAf?$AA_?$AAx?$AA8?$AA6?$AA?2?$AAc@ 101b7720     LIBCMTD:rand_s.obj
 0002:00019780       ??_C@_1CK@GFDNDKK@?$AA_?$AAR?$AAa?$AAn?$AAd?$AAo?$AAm?$AAV?$AAa?$AAl?$AAu?$AAe?$AA?5?$AA?$CB?$AA?$DN?$AA?5?$AAN?$AAU?$AAL?$AAL?$AA?$AA@ 101b7780     LIBCMTD:rand_s.obj
 0002:000197b0       ??_C@_1GO@NGIGJNHH@?$AAs?$AAt?$AAr?$AAn?$AAc?$AAp?$AAy?$AA_?$AAs?$AA?$CI?$AA?$CK?$AAs?$AAt?$AAr?$AAa?$AAd?$AAd?$AAr?$AAe?$AAs?$AAs?$AA?0?$AA?5?$AAo?$AAu?$AAt?$AAs?$AAi?$AAz?$AAe?$AA?0?$AA?5@ 101b77b0     LIBCMTD:inithelp.obj
 0002:00019820       ??_C@_1CA@KHHCPEI@?$AA_?$AA_?$AAg?$AAe?$AAt?$AAl?$AAo?$AAc?$AAa?$AAl?$AAe?$AAi?$AAn?$AAf?$AAo?$AA?$AA@ 101b7820     LIBCMTD:inithelp.obj
 0002:00019840       ??_C@_1GE@PLPIMDHG@?$AAf?$AA?3?$AA?2?$AAd?$AAd?$AA?2?$AAv?$AAc?$AAt?$AAo?$AAo?$AAl?$AAs?$AA?2?$AAc?$AAr?$AAt?$AA_?$AAb?$AAl?$AAd?$AA?2?$AAs?$AAe?$AAl?$AAf?$AA_?$AAx?$AA8?$AA6?$AA?2?$AAc@ 101b7840     LIBCMTD:inithelp.obj
 0002:000198a4       ??_C@_0DC@CFDMMFIG@f?3?2dd?2vctools?2crt_bld?2self_x86?2c@ 101b78a4     LIBCMTD:inithelp.obj
 0002:000198d8       ??_C@_1BG@BBCDFOMA@?$AA_?$AAw?$AAo?$AAu?$AAt?$AAp?$AAu?$AAt?$AA_?$AAl?$AA?$AA@ 101b78d8     LIBCMTD:woutput.obj
 0002:000198f0       ??_C@_1CC@MONNFDCM@?$AAv?$AAf?$AAw?$AAp?$AAr?$AAi?$AAn?$AAt?$AAf?$AA_?$AAh?$AAe?$AAl?$AAp?$AAe?$AAr?$AA?$AA@ 101b78f0     LIBCMTD:vfwprint.obj
 0002:00019918       ??_C@_1GE@MBMBDAGC@?$AAf?$AA?3?$AA?2?$AAd?$AAd?$AA?2?$AAv?$AAc?$AAt?$AAo?$AAo?$AAl?$AAs?$AA?2?$AAc?$AAr?$AAt?$AA_?$AAb?$AAl?$AAd?$AA?2?$AAs?$AAe?$AAl?$AAf?$AA_?$AAx?$AA8?$AA6?$AA?2?$AAc@ 101b7918     LIBCMTD:vfwprint.obj
 0002:0001997c       ??_C@_1BK@ONMFGLDB@?$AA_?$AAw?$AAo?$AAu?$AAt?$AAp?$AAu?$AAt?$AA_?$AAs?$AA_?$AAl?$AA?$AA@ 101b797c     LIBCMTD:woutputs.obj
 0002:00019998       ??_C@_1BK@GDEKGMNC@?$AA_?$AAw?$AAo?$AAu?$AAt?$AAp?$AAu?$AAt?$AA_?$AAp?$AA_?$AAl?$AA?$AA@ 101b7998     LIBCMTD:woutputp.obj
 0002:000199b4       ?commonFlags@?1??_control87@@9@9 101b79b4     LIBCMTD:_ieee87_.obj
 0002:000199b8       ??_C@_1GO@OKJGOMCB@?$AA_?$AAc?$AAo?$AAn?$AAt?$AAr?$AAo?$AAl?$AAf?$AAp?$AA_?$AAs?$AA?$CI?$AA?$CI?$AA?$CI?$AAv?$AAo?$AAi?$AAd?$AA?5?$AA?$CK?$AA?$CJ?$AA0?$AA?$CJ?$AA?0?$AA?5?$AAn?$AAe?$AAw?$AAc?$AAt?$AAr@ 101b79b8     LIBCMTD:_ieee87_.obj
 0002:00019a28       ??_C@_1BO@OFDNCLL@?$AA_?$AAs?$AAe?$AAt?$AA_?$AAc?$AAo?$AAn?$AAt?$AAr?$AAo?$AAl?$AAf?$AAp?$AA?$AA@ 101b7a28     LIBCMTD:_ieee87_.obj
 0002:00019a48       ??_C@_1HO@BFDKGHOI@?$AAf?$AA?3?$AA?2?$AAd?$AAd?$AA?2?$AAv?$AAc?$AAt?$AAo?$AAo?$AAl?$AAs?$AA?2?$AAc?$AAr?$AAt?$AA_?$AAb?$AAl?$AAd?$AA?2?$AAs?$AAe?$AAl?$AAf?$AA_?$AAx?$AA8?$AA6?$AA?2?$AAc@ 101b7a48     LIBCMTD:_ieee87_.obj
 0002:00019ac8       ??_C@_06IMKFLFPG@1?$CDQNAN?$AA@ 101b7ac8     LIBCMTD:_x10fout_.obj
 0002:00019ad0       ??_C@_1EG@MCFPJJEM@?$AAs?$AAt?$AAr?$AAc?$AAp?$AAy?$AA_?$AAs?$AA?$CI?$AAf?$AAo?$AAs?$AA?9?$AA?$DO?$AAm?$AAa?$AAn?$AA?0?$AA?5?$AA2?$AA1?$AA?$CL?$AA1?$AA?0?$AA?5?$AA?$CC?$AA1?$AA?$CD?$AAQ?$AAN?$AAA?$AAN@ 101b7ad0     LIBCMTD:_x10fout_.obj
 0002:00019b18       ??_C@_05DNEBIAHO@1?$CDINF?$AA@ 101b7b18     LIBCMTD:_x10fout_.obj
 0002:00019b20       ??_C@_1EE@ICBBBPAI@?$AAs?$AAt?$AAr?$AAc?$AAp?$AAy?$AA_?$AAs?$AA?$CI?$AAf?$AAo?$AAs?$AA?9?$AA?$DO?$AAm?$AAa?$AAn?$AA?0?$AA?5?$AA2?$AA1?$AA?$CL?$AA1?$AA?0?$AA?5?$AA?$CC?$AA1?$AA?$CD?$AAI?$AAN?$AAF?$AA?$CC@ 101b7b20     LIBCMTD:_x10fout_.obj
 0002:00019b64       ??_C@_05PHHOCPM@1?$CDIND?$AA@ 101b7b64     LIBCMTD:_x10fout_.obj
 0002:00019b70       ??_C@_1EE@MADEBIHF@?$AAs?$AAt?$AAr?$AAc?$AAp?$AAy?$AA_?$AAs?$AA?$CI?$AAf?$AAo?$AAs?$AA?9?$AA?$DO?$AAm?$AAa?$AAn?$AA?0?$AA?5?$AA2?$AA1?$AA?$CL?$AA1?$AA?0?$AA?5?$AA?$CC?$AA1?$AA?$CD?$AAI?$AAN?$AAD?$AA?$CC@ 101b7b70     LIBCMTD:_x10fout_.obj
 0002:00019bb4       ??_C@_06PGGFOGJG@1?$CDSNAN?$AA@ 101b7bb4     LIBCMTD:_x10fout_.obj
 0002:00019bc0       ??_C@_1EG@CDDBFNOB@?$AAs?$AAt?$AAr?$AAc?$AAp?$AAy?$AA_?$AAs?$AA?$CI?$AAf?$AAo?$AAs?$AA?9?$AA?$DO?$AAm?$AAa?$AAn?$AA?0?$AA?5?$AA2?$AA1?$AA?$CL?$AA1?$AA?0?$AA?5?$AA?$CC?$AA1?$AA?$CD?$AAS?$AAN?$AAA?$AAN@ 101b7bc0     LIBCMTD:_x10fout_.obj
 0002:00019c08       ??_C@_1BI@ELMAAFLN@?$AA$?$AAI?$AA1?$AA0?$AA_?$AAO?$AAU?$AAT?$AAP?$AAU?$AAT?$AA?$AA@ 101b7c08     LIBCMTD:_x10fout_.obj
 0002:00019c20       ??_C@_1HG@HFJMHCFK@?$AAf?$AA?3?$AA?2?$AAd?$AAd?$AA?2?$AAv?$AAc?$AAt?$AAo?$AAo?$AAl?$AAs?$AA?2?$AAc?$AAr?$AAt?$AA_?$AAb?$AAl?$AAd?$AA?2?$AAs?$AAe?$AAl?$AAf?$AA_?$AAx?$AA8?$AA6?$AA?2?$AAc@ 101b7c20     LIBCMTD:_x10fout_.obj
 0002:00019c98       ??_C@_0BK@CIDNPOGP@GetUserObjectInformationA?$AA@ 101b7c98     LIBCMTD:crtmbox.obj
 0002:00019cb4       ??_C@_0M@CHKKJDAI@MessageBoxA?$AA@ 101b7cb4     LIBCMTD:crtmbox.obj
 0002:00019cc0       ??_C@_0L@NDEGIDAG@USER32?4DLL?$AA@ 101b7cc0     LIBCMTD:crtmbox.obj
 0002:00019ccc       ??_C@_0P@GHFPNOJB@bad?5allocation?$AA@ 101b7ccc     LIBCMTD:frame.obj
 0002:00019cdc       __pDestructExceptionObject 101b7cdc     LIBCMTD:frame.obj
 0002:00019ce0       ??_C@_0O@DPKOEFFH@bad?5exception?$AA@ 101b7ce0     LIBCMTD:frame.obj
 0002:00019cf4       ??_7bad_exception@std@@6B@ 101b7cf4     LIBCMTD:frame.obj
 0002:00019cfc       ??_C@_1CG@JEHFHLNG@?$AA_?$AAm?$AAb?$AAs?$AAt?$AAo?$AAw?$AAc?$AAs?$AA_?$AAl?$AA_?$AAh?$AAe?$AAl?$AAp?$AAe?$AAr?$AA?$AA@ 101b7cfc     LIBCMTD:mbstowcs.obj
 0002:00019d28       ??_C@_1GE@LCCDHBMH@?$AAf?$AA?3?$AA?2?$AAd?$AAd?$AA?2?$AAv?$AAc?$AAt?$AAo?$AAo?$AAl?$AAs?$AA?2?$AAc?$AAr?$AAt?$AA_?$AAb?$AAl?$AAd?$AA?2?$AAs?$AAe?$AAl?$AAf?$AA_?$AAx?$AA8?$AA6?$AA?2?$AAc@ 101b7d28     LIBCMTD:mbstowcs.obj
 0002:00019d8c       ??_C@_1BE@EEKACIGI@?$AAs?$AA?5?$AA?$CB?$AA?$DN?$AA?5?$AAN?$AAU?$AAL?$AAL?$AA?$AA@ 101b7d8c     LIBCMTD:mbstowcs.obj
 0002:00019da0       ??_C@_1CO@JNPEPJAL@?$AAr?$AAe?$AAt?$AAs?$AAi?$AAz?$AAe?$AA?5?$AA?$DM?$AA?$DN?$AA?5?$AAs?$AAi?$AAz?$AAe?$AAI?$AAn?$AAW?$AAo?$AAr?$AAd?$AAs?$AA?$AA@ 101b7da0     LIBCMTD:mbstowcs.obj
 0002:00019dd0       ??_C@_1CM@LLECFMFH@?$AAb?$AAu?$AAf?$AAf?$AAe?$AAr?$AAS?$AAi?$AAz?$AAe?$AA?5?$AA?$DM?$AA?$DN?$AA?5?$AAI?$AAN?$AAT?$AA_?$AAM?$AAA?$AAX?$AA?$AA@ 101b7dd0     LIBCMTD:mbstowcs.obj
 0002:00019dfc       ??_C@_1BM@PHENIGHD@?$AA_?$AAm?$AAb?$AAs?$AAt?$AAo?$AAw?$AAc?$AAs?$AA_?$AAs?$AA_?$AAl?$AA?$AA@ 101b7dfc     LIBCMTD:mbstowcs.obj
 0002:00019e18       ??_C@_1JA@JKDFMOPO@?$AA?$CI?$AAp?$AAw?$AAc?$AAs?$AA?5?$AA?$DN?$AA?$DN?$AA?5?$AAN?$AAU?$AAL?$AAL?$AA?5?$AA?$CG?$AA?$CG?$AA?5?$AAs?$AAi?$AAz?$AAe?$AAI?$AAn?$AAW?$AAo?$AAr?$AAd?$AAs?$AA?5?$AA?$DN?$AA?$DN?$AA?5@ 101b7e18     LIBCMTD:mbstowcs.obj
 0002:00019ea8       ??_C@_1O@GIMBNLEI@?$AAx?$AAt?$AAo?$AAa?$AA_?$AAs?$AA?$AA@ 101b7ea8     LIBCMTD:xtoas.obj
 0002:00019eb8       ??_C@_1BC@MJJNBNFN@?$AAx?$AA6?$AA4?$AAt?$AAo?$AAa?$AA_?$AAs?$AA?$AA@ 101b7eb8     LIBCMTD:xtoas.obj
 0002:00019ecc       ??_C@_1CG@LLJCAOHF@?$AA_?$AAw?$AAc?$AAs?$AAt?$AAo?$AAm?$AAb?$AAs?$AA_?$AAl?$AA_?$AAh?$AAe?$AAl?$AAp?$AAe?$AAr?$AA?$AA@ 101b7ecc     LIBCMTD:wcstombs.obj
 0002:00019ef8       ??_C@_1GE@OAENIBOD@?$AAf?$AA?3?$AA?2?$AAd?$AAd?$AA?2?$AAv?$AAc?$AAt?$AAo?$AAo?$AAl?$AAs?$AA?2?$AAc?$AAr?$AAt?$AA_?$AAb?$AAl?$AAd?$AA?2?$AAs?$AAe?$AAl?$AAf?$AA_?$AAx?$AA8?$AA6?$AA?2?$AAc@ 101b7ef8     LIBCMTD:wcstombs.obj
 0002:00019f5c       ??_C@_1BK@OIBENBPM@?$AAp?$AAw?$AAc?$AAs?$AA?5?$AA?$CB?$AA?$DN?$AA?5?$AAN?$AAU?$AAL?$AAL?$AA?$AA@ 101b7f5c     LIBCMTD:wcstombs.obj
 0002:00019f78       ??_C@_1CM@KEOGBFLI@?$AAs?$AAi?$AAz?$AAe?$AAI?$AAn?$AAB?$AAy?$AAt?$AAe?$AAs?$AA?5?$AA?$DO?$AA?5?$AAr?$AAe?$AAt?$AAs?$AAi?$AAz?$AAe?$AA?$AA@ 101b7f78     LIBCMTD:wcstombs.obj
 0002:00019fa4       ??_C@_1BM@BDMCLLDL@?$AA_?$AAw?$AAc?$AAs?$AAt?$AAo?$AAm?$AAb?$AAs?$AA_?$AAs?$AA_?$AAl?$AA?$AA@ 101b7fa4     LIBCMTD:wcstombs.obj
 0002:00019fc0       ??_C@_1IM@MFGKHGBP@?$AA?$CI?$AAd?$AAs?$AAt?$AA?5?$AA?$CB?$AA?$DN?$AA?5?$AAN?$AAU?$AAL?$AAL?$AA?5?$AA?$CG?$AA?$CG?$AA?5?$AAs?$AAi?$AAz?$AAe?$AAI?$AAn?$AAB?$AAy?$AAt?$AAe?$AAs?$AA?5?$AA?$DO?$AA?5?$AA0?$AA?$CJ@ 101b7fc0     LIBCMTD:wcstombs.obj
 0002:0001a04c       ??_C@_1BK@EPLNBKAK@?$AA_?$AAv?$AAs?$AAw?$AAp?$AAr?$AAi?$AAn?$AAt?$AAf?$AA_?$AAl?$AA?$AA@ 101b804c     LIBCMTD:vswprint.obj
 0002:0001a068       ??_C@_1CG@IMMIEPNA@?$AA_?$AAv?$AAs?$AAc?$AAw?$AAp?$AAr?$AAi?$AAn?$AAt?$AAf?$AA_?$AAh?$AAe?$AAl?$AAp?$AAe?$AAr?$AA?$AA@ 101b8068     LIBCMTD:vswprint.obj
 0002:0001a090       ??_C@_0BO@GNIAFIKK@Unknown?5Runtime?5Check?5Error?6?$AN?$AA@ 101b8090     LIBCMTD:_error_.obj
 0002:0001a0b0       ??_C@_0CM@NGINOKPC@Stack?5memory?5around?5_alloca?5was?5@ 101b80b0     LIBCMTD:_error_.obj
 0002:0001a0dc       ??_C@_0DG@HKJMLLLP@A?5local?5variable?5was?5used?5before@ 101b80dc     LIBCMTD:_error_.obj
 0002:0001a114       ??_C@_0BN@FFOINMNJ@Stack?5memory?5was?5corrupted?6?$AN?$AA@ 101b8114     LIBCMTD:_error_.obj
 0002:0001a138       ??_C@_0BBN@GPMLNJCF@A?5cast?5to?5a?5smaller?5data?5type?5ha@ 101b8138     LIBCMTD:_error_.obj
 0002:0001a258       ??_C@_0NN@NGPKDKPD@The?5value?5of?5ESP?5was?5not?5properl@ 101b8258     LIBCMTD:_error_.obj
 0002:0001a3d4       ??_C@_0CA@IODNCDPG@Run?9Time?5Check?5Failure?5?$CD?$CFd?5?9?5?$CFs?$AA@ 101b83d4     LIBCMTD:_error_.obj
 0002:0001a3f4       ??_C@_0BE@GNBOBNCK@Unknown?5Module?5Name?$AA@ 101b83f4     LIBCMTD:_error_.obj
 0002:0001a408       ??_C@_0BB@PFFGGCJP@Unknown?5Filename?$AA@ 101b8408     LIBCMTD:_error_.obj
 0002:0001a420       ??_C@_1EA@NFKNIFJP@?$AAR?$AAu?$AAn?$AA?9?$AAT?$AAi?$AAm?$AAe?$AA?5?$AAC?$AAh?$AAe?$AAc?$AAk?$AA?5?$AAF?$AAa?$AAi?$AAl?$AAu?$AAr?$AAe?$AA?5?$AA?$CD?$AA?$CF?$AAd?$AA?5?$AA?9?$AA?5?$AA?$CF?$AAs?$AA?$AA@ 101b8420     LIBCMTD:_error_.obj
 0002:0001a460       ??_C@_1GM@OLMCBDMB@?$AAR?$AAu?$AAn?$AAt?$AAi?$AAm?$AAe?$AA?5?$AAC?$AAh?$AAe?$AAc?$AAk?$AA?5?$AAE?$AAr?$AAr?$AAo?$AAr?$AA?4?$AA?6?$AA?$AN?$AA?5?$AAU?$AAn?$AAa?$AAb?$AAl?$AAe?$AA?5?$AAt?$AAo@ 101b8460     LIBCMTD:_error_.obj
 0002:0001a4cc       ??_C@_0CG@IAFNJNEE@Stack?5corrupted?5near?5unknown?5var@ 101b84cc     LIBCMTD:_error_.obj
 0002:0001a4f8       ??_C@_0EJ@LJKNEOLN@Stack?5area?5around?5_alloca?5memory@ 101b84f8     LIBCMTD:_error_.obj
 0002:0001a544       ??_C@_08KJEDNCKC@?$CFs?$CFs?$CFs?$CFs?$AA@ 101b8544     LIBCMTD:_error_.obj
 0002:0001a550       ??_C@_02LLMPMKNF@?$DO?5?$AA@ 101b8550     LIBCMTD:_error_.obj
 0002:0001a554       ??_C@_0BC@KIBAILCI@?$CFs?$CFs?$CFp?$CFs?$CFld?$CFs?$CFd?$CFs?$AA@ 101b8554     LIBCMTD:_error_.obj
 0002:0001a568       ??_C@_0EI@CLEPFNGI@Stack?5area?5around?5_alloca?5memory@ 101b8568     LIBCMTD:_error_.obj
 0002:0001a5b0       ??_C@_0N@MHFFIMFG@?6Address?3?50x?$AA@ 101b85b0     LIBCMTD:_error_.obj
 0002:0001a5c0       ??_C@_07DFDJCKFN@?6Size?3?5?$AA@ 101b85c0     LIBCMTD:_error_.obj
 0002:0001a5c8       ??_C@_0CK@DKGBICFE@?6Allocation?5number?5within?5this?5f@ 101b85c8     LIBCMTD:_error_.obj
 0002:0001a5f4       ??_C@_08OMAHNMHJ@?6Data?3?5?$DM?$AA@ 101b85f4     LIBCMTD:_error_.obj
 0002:0001a600       ??_C@_09FOPFMPEJ@wsprintfA?$AA@ 101b8600     LIBCMTD:_error_.obj
 0002:0001a60c       ??_C@_0L@GMPLCCII@user32?4dll?$AA@ 101b860c     LIBCMTD:_error_.obj
 0002:0001a618       ??_C@_0DE@OHJBPMBP@A?5variable?5is?5being?5used?5without@ 101b8618     LIBCMTD:_error_.obj
 0002:0001a64c       ??_C@_1BO@JGFPDJCP@?$AAv?$AAp?$AAr?$AAi?$AAn?$AAt?$AAf?$AA_?$AAh?$AAe?$AAl?$AAp?$AAe?$AAr?$AA?$AA@ 101b864c     LIBCMTD:vprintf.obj
 0002:0001a670       ??_C@_1GC@DHFFJKMC@?$AAf?$AA?3?$AA?2?$AAd?$AAd?$AA?2?$AAv?$AAc?$AAt?$AAo?$AAo?$AAl?$AAs?$AA?2?$AAc?$AAr?$AAt?$AA_?$AAb?$AAl?$AAd?$AA?2?$AAs?$AAe?$AAl?$AAf?$AA_?$AAx?$AA8?$AA6?$AA?2?$AAc@ 101b8670     LIBCMTD:vprintf.obj
 0002:0001a6d4       ??_C@_0DC@IHGBBJOH@f?3?2dd?2vctools?2crt_bld?2self_x86?2c@ 101b86d4     LIBCMTD:convrtcp.obj
 0002:0001a708       ??_C@_1CC@JLPHKJPH@?$AAc?$AAo?$AAu?$AAn?$AAt?$AA?5?$AA?$DM?$AA?$DN?$AA?5?$AAI?$AAN?$AAT?$AA_?$AAM?$AAA?$AAX?$AA?$AA@ 101b8708     LIBCMTD:strnicmp.obj
 0002:0001a72c       ??_C@_1BI@BJLEPLEF@?$AA_?$AAs?$AAt?$AAr?$AAn?$AAi?$AAc?$AAm?$AAp?$AA_?$AAl?$AA?$AA@ 101b872c     LIBCMTD:strnicmp.obj
 0002:0001a748       ??_C@_1GE@CONPOJMA@?$AAf?$AA?3?$AA?2?$AAd?$AAd?$AA?2?$AAv?$AAc?$AAt?$AAo?$AAo?$AAl?$AAs?$AA?2?$AAc?$AAr?$AAt?$AA_?$AAb?$AAl?$AAd?$AA?2?$AAs?$AAe?$AAl?$AAf?$AA_?$AAx?$AA8?$AA6?$AA?2?$AAc@ 101b8748     LIBCMTD:strnicmp.obj
 0002:0001a7ac       ??_C@_1BE@BHJDFFNA@?$AA_?$AAs?$AAt?$AAr?$AAn?$AAi?$AAc?$AAm?$AAp?$AA?$AA@ 101b87ac     LIBCMTD:strnicmp.obj
 0002:0001a7c0       ??_C@_1BK@CMPKHPEC@?$AAn?$AA?5?$AA?$DM?$AA?$DN?$AA?5?$AAI?$AAN?$AAT?$AA_?$AAM?$AAA?$AAX?$AA?$AA@ 101b87c0     LIBCMTD:mbsnbico.obj
 0002:0001a7dc       ??_C@_1BM@FKNNDAHH@?$AA_?$AAm?$AAb?$AAs?$AAn?$AAb?$AAi?$AAc?$AAo?$AAl?$AAl?$AA_?$AAl?$AA?$AA@ 101b87dc     LIBCMTD:mbsnbico.obj
 0002:0001a7f8       ??_C@_1GE@NJHAJPKI@?$AAf?$AA?3?$AA?2?$AAd?$AAd?$AA?2?$AAv?$AAc?$AAt?$AAo?$AAo?$AAl?$AAs?$AA?2?$AAc?$AAr?$AAt?$AA_?$AAb?$AAl?$AAd?$AA?2?$AAs?$AAe?$AAl?$AAf?$AA_?$AAx?$AA8?$AA6?$AA?2?$AAc@ 101b87f8     LIBCMTD:mbsnbico.obj
 0002:0001a85c       ??_C@_0DC@CAFDLBC@f?3?2dd?2vctools?2crt_bld?2self_x86?2c@ 101b885c     LIBCMTD:wtombenv.obj
 0002:0001a890       ??_C@_06GDENEHCP@CONIN$?$AA@ 101b8890     LIBCMTD:initcon.obj
 0002:0001a898       ??_C@_07GPDNMNG@CONOUT$?$AA@ 101b8898     LIBCMTD:initcon.obj
 0002:0001a8a0       ??_C@_1BI@GALBKMKE@?$AA?$CI?$AAs?$AAi?$AAz?$AAe?$AA?5?$AA?$DO?$AA?$DN?$AA?5?$AA0?$AA?$CJ?$AA?$AA@ 101b88a0     LIBCMTD:chsize.obj
 0002:0001a8b8       ??_C@_1BE@MAFDNGED@?$AA_?$AAc?$AAh?$AAs?$AAi?$AAz?$AAe?$AA_?$AAs?$AA?$AA@ 101b88b8     LIBCMTD:chsize.obj
 0002:0001a8d0       ??_C@_1GA@DBKMEDOF@?$AAf?$AA?3?$AA?2?$AAd?$AAd?$AA?2?$AAv?$AAc?$AAt?$AAo?$AAo?$AAl?$AAs?$AA?2?$AAc?$AAr?$AAt?$AA_?$AAb?$AAl?$AAd?$AA?2?$AAs?$AAe?$AAl?$AAf?$AA_?$AAx?$AA8?$AA6?$AA?2?$AAc@ 101b88d0     LIBCMTD:chsize.obj
 0002:0001a930       ??_C@_1BC@JBGGJDCM@?$AA_?$AAs?$AAe?$AAt?$AAm?$AAo?$AAd?$AAe?$AA?$AA@ 101b8930     LIBCMTD:setmode.obj
 0002:0001a948       ??_C@_1GC@KODPFLLJ@?$AAf?$AA?3?$AA?2?$AAd?$AAd?$AA?2?$AAv?$AAc?$AAt?$AAo?$AAo?$AAl?$AAs?$AA?2?$AAc?$AAr?$AAt?$AA_?$AAb?$AAl?$AAd?$AA?2?$AAs?$AAe?$AAl?$AAf?$AA_?$AAx?$AA8?$AA6?$AA?2?$AAc@ 101b8948     LIBCMTD:setmode.obj
 0002:0001a9b0       ??_C@_1OA@HGPJIFPM@?$AA?$CI?$AA?$CI?$AAm?$AAo?$AAd?$AAe?$AA?5?$AA?$DN?$AA?$DN?$AA?5?$AA_?$AAO?$AA_?$AAT?$AAE?$AAX?$AAT?$AA?$CJ?$AA?5?$AA?$HM?$AA?$HM?$AA?5?$AA?$CI?$AAm?$AAo?$AAd?$AAe?$AA?5?$AA?$DN?$AA?$DN?$AA?5?$AA_@ 101b89b0     LIBCMTD:setmode.obj
 0002:0001aa90       ??_C@_1BG@IEEHLOCL@?$AA_?$AAs?$AAe?$AAt?$AA_?$AAf?$AAm?$AAo?$AAd?$AAe?$AA?$AA@ 101b8a90     LIBCMTD:setmode.obj
 0002:0001aaa8       ??_C@_1IC@NDCJMLB@?$AA?$CI?$AA?$CI?$AAm?$AAo?$AAd?$AAe?$AA?5?$AA?$DN?$AA?$DN?$AA?5?$AA_?$AAO?$AA_?$AAT?$AAE?$AAX?$AAT?$AA?$CJ?$AA?5?$AA?$HM?$AA?$HM?$AA?5?$AA?$CI?$AAm?$AAo?$AAd?$AAe?$AA?5?$AA?$DN?$AA?$DN?$AA?5?$AA_@ 101b8aa8     LIBCMTD:setmode.obj
 0002:0001ab2c       ??_C@_1BG@CKGMPOFH@?$AA_?$AAg?$AAe?$AAt?$AA_?$AAf?$AAm?$AAo?$AAd?$AAe?$AA?$AA@ 101b8b2c     LIBCMTD:setmode.obj
 0002:0001ab44       ??_C@_1CA@GPIGPPFN@?$AA?$CI?$AAp?$AAM?$AAo?$AAd?$AAe?$AA?5?$AA?$CB?$AA?$DN?$AA?5?$AAN?$AAU?$AAL?$AAL?$AA?$CJ?$AA?$AA@ 101b8b44     LIBCMTD:setmode.obj
 0002:0001ab64       ??_C@_1O@HJNPHHHB@?$AAf?$AAp?$AAu?$AAt?$AAw?$AAc?$AA?$AA@ 101b8b64     LIBCMTD:fputwc.obj
 0002:0001ab78       ??_C@_1GA@BJIGKGEA@?$AAf?$AA?3?$AA?2?$AAd?$AAd?$AA?2?$AAv?$AAc?$AAt?$AAo?$AAo?$AAl?$AAs?$AA?2?$AAc?$AAr?$AAt?$AA_?$AAb?$AAl?$AAd?$AA?2?$AAs?$AAe?$AAl?$AAf?$AA_?$AAx?$AA8?$AA6?$AA?2?$AAc@ 101b8b78     LIBCMTD:fputwc.obj
 0002:0001abd8       ??_C@_1BA@PCFLFGNC@?$AAw?$AAc?$AAs?$AAt?$AAo?$AAx?$AAl?$AA?$AA@ 101b8bd8     LIBCMTD:wcstol.obj
 0002:0001abe8       ??_C@_1GA@CADFOND@?$AAf?$AA?3?$AA?2?$AAd?$AAd?$AA?2?$AAv?$AAc?$AAt?$AAo?$AAo?$AAl?$AAs?$AA?2?$AAc?$AAr?$AAt?$AA_?$AAb?$AAl?$AAd?$AA?2?$AAs?$AAe?$AAl?$AAf?$AA_?$AAx?$AA8?$AA6?$AA?2?$AAc@ 101b8be8     LIBCMTD:wcstol.obj
 0002:0001ac6c       ??_7type_info@@6B@         101b8c6c     LIBCMTD:typinfo.obj
 0002:0001ac74       ??_7exception@std@@6B@     101b8c74     LIBCMTD:stdexcpt.obj
 0002:0001ac7c       ??_C@_0BC@EOODALEL@Unknown?5exception?$AA@ 101b8c7c     LIBCMTD:stdexcpt.obj
 0002:0001ac94       ??_7bad_cast@std@@6B@      101b8c94     LIBCMTD:stdexcpt.obj
 0002:0001aca0       ??_7bad_typeid@std@@6B@    101b8ca0     LIBCMTD:stdexcpt.obj
 0002:0001acac       ??_7__non_rtti_object@std@@6B@ 101b8cac     LIBCMTD:stdexcpt.obj
 0002:0001acb8       ??_C@_1GE@BDAODJCD@?$AAf?$AA?3?$AA?2?$AAd?$AAd?$AA?2?$AAv?$AAc?$AAt?$AAo?$AAo?$AAl?$AAs?$AA?2?$AAc?$AAr?$AAt?$AA_?$AAb?$AAl?$AAd?$AA?2?$AAs?$AAe?$AAl?$AAf?$AA_?$AAx?$AA8?$AA6?$AA?2?$AAc@ 101b8cb8     LIBCMTD:dbgdel.obj
 0002:0001ad1c       ??_C@_0M@EKFFODEC@MSPDB80?4DLL?$AA@ 101b8d1c     LIBCMTD:_pdblkup_.obj
 0002:0001ad28       ??_C@_01KDCPPGHE@r?$AA@    101b8d28     LIBCMTD:_pdblkup_.obj
 0002:0001ad2c       ??_C@_0BB@KCIACLNC@PDBOpenValidate5?$AA@ 101b8d2c     LIBCMTD:_pdblkup_.obj
 0002:0001ad40       ??_C@_0BF@BMIHBHCA@EnvironmentDirectory?$AA@ 101b8d40     LIBCMTD:_pdblkup_.obj
 0002:0001ad58       ??_C@_0CN@JNNIHDGH@SOFTWARE?2Microsoft?2VisualStudio?2@ 101b8d58     LIBCMTD:_pdblkup_.obj
 0002:0001ad88       ??_C@_0M@HLOHPNFA@RegCloseKey?$AA@ 101b8d88     LIBCMTD:_pdblkup_.obj
 0002:0001ad94       ??_C@_0BB@HHEIPGME@RegQueryValueExA?$AA@ 101b8d94     LIBCMTD:_pdblkup_.obj
 0002:0001ada8       ??_C@_0O@DCOGKJGG@RegOpenKeyExA?$AA@ 101b8da8     LIBCMTD:_pdblkup_.obj
 0002:0001adb8       ??_C@_0BP@OGBCLIBO@Stack?5around?5_alloca?5corrupted?$AA@ 101b8db8     LIBCMTD:_userapi_.obj
 0002:0001add8       ??_C@_0CK@CNLNOEPB@Local?5variable?5used?5before?5initi@ 101b8dd8     LIBCMTD:_userapi_.obj
 0002:0001ae04       ??_C@_0BI@CIGMDCBH@Stack?5memory?5corruption?$AA@ 101b8e04     LIBCMTD:_userapi_.obj
 0002:0001ae1c       ??_C@_0CK@FEGOIOPB@Cast?5to?5smaller?5type?5causing?5los@ 101b8e1c     LIBCMTD:_userapi_.obj
 0002:0001ae48       ??_C@_0BJ@HEGAHDFO@Stack?5pointer?5corruption?$AA@ 101b8e48     LIBCMTD:_userapi_.obj
 0002:0001ae78       ??_C@_1FO@IFEMNBMO@?$AAf?$AA?3?$AA?2?$AAd?$AAd?$AA?2?$AAv?$AAc?$AAt?$AAo?$AAo?$AAl?$AAs?$AA?2?$AAc?$AAr?$AAt?$AA_?$AAb?$AAl?$AAd?$AA?2?$AAs?$AAe?$AAl?$AAf?$AA_?$AAx?$AA8?$AA6?$AA?2?$AAc@ 101b8e78     LIBCMTD:a_cmp.obj
 0002:0001aed8       ??_C@_1HK@ELDMAMK@?$AAc?$AAc?$AAh?$AAC?$AAo?$AAu?$AAn?$AAt?$AA1?$AA?$DN?$AA?$DN?$AA0?$AA?5?$AA?$CG?$AA?$CG?$AA?5?$AAc?$AAc?$AAh?$AAC?$AAo?$AAu?$AAn?$AAt?$AA2?$AA?$DN?$AA?$DN?$AA1?$AA?5?$AA?$HM?$AA?$HM?$AA?5@ 101b8ed8     LIBCMTD:a_cmp.obj
 0002:0001af54       ??_C@_1CC@CNADELFK@?$AA_?$AAs?$AAt?$AAr?$AAi?$AAn?$AAg?$AA2?$AA?5?$AA?$CB?$AA?$DN?$AA?5?$AAN?$AAU?$AAL?$AAL?$AA?$AA@ 101b8f54     LIBCMTD:strnicol.obj
 0002:0001af78       ??_C@_1BK@IOJEBPLP@?$AA_?$AAs?$AAt?$AAr?$AAn?$AAi?$AAc?$AAo?$AAl?$AAl?$AA_?$AAl?$AA?$AA@ 101b8f78     LIBCMTD:strnicol.obj
 0002:0001af98       ??_C@_1GE@BDOBNJJ@?$AAf?$AA?3?$AA?2?$AAd?$AAd?$AA?2?$AAv?$AAc?$AAt?$AAo?$AAo?$AAl?$AAs?$AA?2?$AAc?$AAr?$AAt?$AA_?$AAb?$AAl?$AAd?$AA?2?$AAs?$AAe?$AAl?$AAf?$AA_?$AAx?$AA8?$AA6?$AA?2?$AAc@ 101b8f98     LIBCMTD:strnicol.obj
 0002:0001affc       ??_C@_1CC@ICKKAGJA@?$AA_?$AAs?$AAt?$AAr?$AAi?$AAn?$AAg?$AA1?$AA?5?$AA?$CB?$AA?$DN?$AA?5?$AAN?$AAU?$AAL?$AAL?$AA?$AA@ 101b8ffc     LIBCMTD:strnicol.obj
 0002:0001b020       ??_C@_1FG@OKIAKKPK@?$AAs?$AAt?$AAr?$AAc?$AAp?$AAy?$AA_?$AAs?$AA?$CI?$AAn?$AAa?$AAm?$AAe?$AA?0?$AA?5?$AAs?$AAt?$AAr?$AAl?$AAe?$AAn?$AA?$CI?$AAo?$AAp?$AAt?$AAi?$AAo?$AAn?$AA?$CJ?$AA?5?$AA?$CL?$AA?5@ 101b9020     LIBCMTD:setenv.obj
 0002:0001b078       ??_C@_1EI@GHDNAPMG@?$AA?$CI?$AA?$CC?$AAC?$AAR?$AAT?$AA?5?$AAL?$AAo?$AAg?$AAi?$AAc?$AA?5?$AAe?$AAr?$AAr?$AAo?$AAr?$AA?5?$AAd?$AAu?$AAr?$AAi?$AAn?$AAg?$AA?5?$AAs?$AAe?$AAt?$AAe?$AAn?$AAv?$AA?$CC@ 101b9078     LIBCMTD:setenv.obj
 0002:0001b0c0       ??_C@_0DA@NHJGCDK@f?3?2dd?2vctools?2crt_bld?2self_x86?2c@ 101b90c0     LIBCMTD:setenv.obj
 0002:0001b0f0       ??_C@_1FC@EEJIEIDF@?$AA_?$AAt?$AAc?$AAs?$AAn?$AAl?$AAe?$AAn?$AA?$CI?$AAe?$AAq?$AAu?$AAa?$AAl?$AA?5?$AA?$CL?$AA?5?$AA1?$AA?0?$AA?5?$AA_?$AAM?$AAA?$AAX?$AA_?$AAE?$AAN?$AAV?$AA?$CJ?$AA?5?$AA?$DM?$AA?5@ 101b90f0     LIBCMTD:setenv.obj
 0002:0001b144       ??_C@_1DE@EEHFNNGH@?$AAe?$AAq?$AAu?$AAa?$AAl?$AA?5?$AA?9?$AA?5?$AAo?$AAp?$AAt?$AAi?$AAo?$AAn?$AA?5?$AA?$DM?$AA?5?$AA_?$AAM?$AAA?$AAX?$AA_?$AAE?$AAN?$AAV?$AA?$AA@ 101b9144     LIBCMTD:setenv.obj
 0002:0001b178       ??_C@_1BI@CDAFOAAL@?$AA_?$AA_?$AAc?$AAr?$AAt?$AAs?$AAe?$AAt?$AAe?$AAn?$AAv?$AA?$AA@ 101b9178     LIBCMTD:setenv.obj
 0002:0001b190       ??_C@_1GA@KKPDKNLP@?$AAf?$AA?3?$AA?2?$AAd?$AAd?$AA?2?$AAv?$AAc?$AAt?$AAo?$AAo?$AAl?$AAs?$AA?2?$AAc?$AAr?$AAt?$AA_?$AAb?$AAl?$AAd?$AA?2?$AAs?$AAe?$AAl?$AAf?$AA_?$AAx?$AA8?$AA6?$AA?2?$AAc@ 101b9190     LIBCMTD:setenv.obj
 0002:0001b1f0       ??_C@_1CA@LMBEKBDN@?$AAp?$AAo?$AAp?$AAt?$AAi?$AAo?$AAn?$AA?5?$AA?$CB?$AA?$DN?$AA?5?$AAN?$AAU?$AAL?$AAL?$AA?$AA@ 101b91f0     LIBCMTD:setenv.obj
 0002:0001b210       ??_C@_1FK@DNFLNPD@?$AAs?$AAt?$AAr?$AAc?$AAp?$AAy?$AA_?$AAs?$AA?$CI?$AA?$CK?$AAn?$AAe?$AAw?$AAe?$AAn?$AAv?$AAp?$AAt?$AAr?$AA?0?$AA?5?$AAe?$AAn?$AAv?$AAp?$AAt?$AAr?$AAS?$AAi?$AAz?$AAe?$AA?0@ 101b9210     LIBCMTD:setenv.obj
 0002:0001b26c       ??_C@_1BK@ECKIJLPM@?$AAc?$AAo?$AAp?$AAy?$AA_?$AAe?$AAn?$AAv?$AAi?$AAr?$AAo?$AAn?$AA?$AA@ 101b926c     LIBCMTD:setenv.obj
 0002:0001b288       ??_C@_1HG@KNCBMCDD@?$AAf?$AA?3?$AA?2?$AAd?$AAd?$AA?2?$AAv?$AAc?$AAt?$AAo?$AAo?$AAl?$AAs?$AA?2?$AAc?$AAr?$AAt?$AA_?$AAb?$AAl?$AAd?$AA?2?$AAs?$AAe?$AAl?$AAf?$AA_?$AAx?$AA8?$AA6?$AA?2?$AAc@ 101b9288     LIBCMTD:typname.obj
 0002:0001b300       ??_C@_1CI@IDCGDBOP@?$AAp?$AAN?$AAo?$AAd?$AAe?$AA?9?$AA?$DO?$AAn?$AAe?$AAx?$AAt?$AA?5?$AA?$CB?$AA?$DN?$AA?5?$AAN?$AAU?$AAL?$AAL?$AA?$AA@ 101b9300     LIBCMTD:typname.obj
 0002:0001b328       ??_C@_1JK@MLBKHELP@?$AAs?$AAt?$AAr?$AAc?$AAp?$AAy?$AA_?$AAs?$AA?5?$AA?$CI?$AA?$CI?$AAc?$AAh?$AAa?$AAr?$AA?5?$AA?$CK?$AA?$CJ?$AA?$CI?$AA?$CI?$AAt?$AAy?$AAp?$AAe?$AA_?$AAi?$AAn?$AAf?$AAo?$AA?5?$AA?$CK?$AA?$CJ@ 101b9328     LIBCMTD:typname.obj
 0002:0001b3c4       ??_C@_1CM@OOICDMK@?$AAt?$AAy?$AAp?$AAe?$AA_?$AAi?$AAn?$AAf?$AAo?$AA?3?$AA?3?$AA_?$AAN?$AAa?$AAm?$AAe?$AA_?$AAb?$AAa?$AAs?$AAe?$AA?$AA@ 101b93c4     LIBCMTD:typname.obj
 0002:0001b3f0       ??_C@_1GI@EAJKJPED@?$AAs?$AAt?$AAr?$AAc?$AAp?$AAy?$AA_?$AAs?$AA?5?$AA?$CI?$AAp?$AAT?$AAm?$AAp?$AAT?$AAy?$AAp?$AAe?$AAN?$AAa?$AAm?$AAe?$AA?0?$AA?5?$AAl?$AAe?$AAn?$AA?$CL?$AA2?$AA?0?$AA?5?$AA?$CI@ 101b93f0     LIBCMTD:typname.obj
 0002:0001b458       ??_C@_1DO@OJJLFJPE@?$AAt?$AAy?$AAp?$AAe?$AA_?$AAi?$AAn?$AAf?$AAo?$AA?3?$AA?3?$AA_?$AAN?$AAa?$AAm?$AAe?$AA_?$AAb?$AAa?$AAs?$AAe?$AA_?$AAi?$AAn?$AAt?$AAe?$AAr?$AAn?$AAa?$AAl?$AA?$AA@ 101b9458     LIBCMTD:typname.obj
 0002:0001b498       ??_C@_1BE@JKKFLIKJ@?$AA_?$AAm?$AAb?$AAs?$AAc?$AAh?$AAr?$AA_?$AAl?$AA?$AA@ 101b9498     LIBCMTD:mbschr.obj
 0002:0001b4b0       ??_C@_1GA@GDCAGKMG@?$AAf?$AA?3?$AA?2?$AAd?$AAd?$AA?2?$AAv?$AAc?$AAt?$AAo?$AAo?$AAl?$AAs?$AA?2?$AAc?$AAr?$AAt?$AA_?$AAb?$AAl?$AAd?$AA?2?$AAs?$AAe?$AAl?$AAf?$AA_?$AAx?$AA8?$AA6?$AA?2?$AAc@ 101b94b0     LIBCMTD:mbschr.obj
 0002:0001b510       ??_C@_1BO@JIBAMMGI@?$AAs?$AAt?$AAr?$AAi?$AAn?$AAg?$AA?5?$AA?$CB?$AA?$DN?$AA?5?$AAN?$AAU?$AAL?$AAL?$AA?$AA@ 101b9510     LIBCMTD:mbschr.obj
 0002:0001b530       ??_C@_0BK@CFCOFLF@?5Complete?5Object?5Locator?8?$AA@ 101b9530     LIBCMTD:undname.obj
 0002:0001b54c       ??_C@_0BN@MECKDCOJ@?5Class?5Hierarchy?5Descriptor?8?$AA@ 101b954c     LIBCMTD:undname.obj
 0002:0001b56c       ??_C@_0BD@LGICGFMM@?5Base?5Class?5Array?8?$AA@ 101b956c     LIBCMTD:undname.obj
 0002:0001b580       ??_C@_0BM@LDKODKLH@?5Base?5Class?5Descriptor?5at?5?$CI?$AA@ 101b9580     LIBCMTD:undname.obj
 0002:0001b59c       ??_C@_0BC@DAFEJGAK@?5Type?5Descriptor?8?$AA@ 101b959c     LIBCMTD:undname.obj
 0002:0001b5b0       ??_C@_0BM@PMGGMLDN@?$GAlocal?5static?5thread?5guard?8?$AA@ 101b95b0     LIBCMTD:undname.obj
 0002:0001b5cc       ??_C@_0CL@FGIJHLCE@?$GAmanaged?5vector?5copy?5constructor@ 101b95cc     LIBCMTD:undname.obj
 0002:0001b5f8       ??_C@_0CJ@GJELGAMM@?$GAvector?5vbase?5copy?5constructor?5i@ 101b95f8     LIBCMTD:undname.obj
 0002:0001b624       ??_C@_0CD@CGAJBKEJ@?$GAvector?5copy?5constructor?5iterato@ 101b9624     LIBCMTD:undname.obj
 0002:0001b648       ??_C@_0CB@PDBIFEP@?$GAdynamic?5atexit?5destructor?5for?5?8@ 101b9648     LIBCMTD:undname.obj
 0002:0001b66c       ??_C@_0BL@CLIPGLGB@?$GAdynamic?5initializer?5for?5?8?$AA@ 101b966c     LIBCMTD:undname.obj
 0002:0001b688       ??_C@_0CM@FCBBDIGB@?$GAeh?5vector?5vbase?5copy?5constructo@ 101b9688     LIBCMTD:undname.obj
 0002:0001b6b4       ??_C@_0CG@HLDDJMAG@?$GAeh?5vector?5copy?5constructor?5iter@ 101b96b4     LIBCMTD:undname.obj
 0002:0001b6dc       ??_C@_0CF@IMGKMJNO@?$GAmanaged?5vector?5destructor?5itera@ 101b96dc     LIBCMTD:undname.obj
 0002:0001b704       ??_C@_0CG@CFDHKGGD@?$GAmanaged?5vector?5constructor?5iter@ 101b9704     LIBCMTD:undname.obj
 0002:0001b72c       ??_C@_0BN@CKNJLHMB@?$GAplacement?5delete?$FL?$FN?5closure?8?$AA@ 101b972c     LIBCMTD:undname.obj
 0002:0001b74c       ??_C@_0BL@CNOONJFP@?$GAplacement?5delete?5closure?8?$AA@ 101b974c     LIBCMTD:undname.obj
 0002:0001b768       ??_C@_0P@HJKNJFNN@?$GAomni?5callsig?8?$AA@ 101b9768     LIBCMTD:undname.obj
 0002:0001b778       ??_C@_09LBNFPBCA@?5delete?$FL?$FN?$AA@ 101b9778     LIBCMTD:undname.obj
 0002:0001b784       ??_C@_06FHBGPFGH@?5new?$FL?$FN?$AA@ 101b9784     LIBCMTD:undname.obj
 0002:0001b78c       ??_C@_0CE@IIHCMGGL@?$GAlocal?5vftable?5constructor?5closu@ 101b978c     LIBCMTD:undname.obj
 0002:0001b7b0       ??_C@_0BA@KKLDJDLB@?$GAlocal?5vftable?8?$AA@ 101b97b0     LIBCMTD:undname.obj
 0002:0001b7c0       ??_C@_05KHLCHHI@?$GARTTI?$AA@ 101b97c0     LIBCMTD:undname.obj
 0002:0001b7c8       ??_C@_03KLGMFNMG@?$GAEH?$AA@ 101b97c8     LIBCMTD:undname.obj
 0002:0001b7cc       ??_C@_0BA@KBCDOMBN@?$GAudt?5returning?8?$AA@ 101b97cc     LIBCMTD:undname.obj
 0002:0001b7dc       ??_C@_0BL@LLKPOHJI@?$GAcopy?5constructor?5closure?8?$AA@ 101b97dc     LIBCMTD:undname.obj
 0002:0001b7f8       ??_C@_0CH@OOJPLCPH@?$GAeh?5vector?5vbase?5constructor?5ite@ 101b97f8     LIBCMTD:undname.obj
 0002:0001b820       ??_C@_0CA@GCEOPDGL@?$GAeh?5vector?5destructor?5iterator?8?$AA@ 101b9820     LIBCMTD:undname.obj
 0002:0001b840       ??_C@_0CB@JONCMFFK@?$GAeh?5vector?5constructor?5iterator?8@ 101b9840     LIBCMTD:undname.obj
 0002:0001b864       ??_C@_0BL@NILFHHPC@?$GAvirtual?5displacement?5map?8?$AA@ 101b9864     LIBCMTD:undname.obj
 0002:0001b880       ??_C@_0CE@IKBNEHA@?$GAvector?5vbase?5constructor?5iterat@ 101b9880     LIBCMTD:undname.obj
 0002:0001b8a4       ??_C@_0BN@LFPFMEDL@?$GAvector?5destructor?5iterator?8?$AA@ 101b98a4     LIBCMTD:undname.obj
 0002:0001b8c4       ??_C@_0BO@PFGOCPJJ@?$GAvector?5constructor?5iterator?8?$AA@ 101b98c4     LIBCMTD:undname.obj
 0002:0001b8e4       ??_C@_0BN@IMDCHIKM@?$GAscalar?5deleting?5destructor?8?$AA@ 101b98e4     LIBCMTD:undname.obj
 0002:0001b904       ??_C@_0BO@OBMKPJIG@?$GAdefault?5constructor?5closure?8?$AA@ 101b9904     LIBCMTD:undname.obj
 0002:0001b924       ??_C@_0BN@DEGPLNFK@?$GAvector?5deleting?5destructor?8?$AA@ 101b9924     LIBCMTD:undname.obj
 0002:0001b944       ??_C@_0BD@JDLKDPAB@?$GAvbase?5destructor?8?$AA@ 101b9944     LIBCMTD:undname.obj
 0002:0001b958       ??_C@_08OBABFOLI@?$GAstring?8?$AA@ 101b9958     LIBCMTD:undname.obj
 0002:0001b964       ??_C@_0BF@KDPPACIK@?$GAlocal?5static?5guard?8?$AA@ 101b9964     LIBCMTD:undname.obj
 0002:0001b97c       ??_C@_08LLFFHHDJ@?$GAtypeof?8?$AA@ 101b997c     LIBCMTD:undname.obj
 0002:0001b988       ??_C@_07FEEIOKP@?$GAvcall?8?$AA@ 101b9988     LIBCMTD:undname.obj
 0002:0001b990       ??_C@_09BLBHBJP@?$GAvbtable?8?$AA@ 101b9990     LIBCMTD:undname.obj
 0002:0001b99c       ??_C@_09IFPLHPGF@?$GAvftable?8?$AA@ 101b999c     LIBCMTD:undname.obj
 0002:0001b9a8       ??_C@_02MHEGNOJ@?$FO?$DN?$AA@ 101b99a8     LIBCMTD:undname.obj
 0002:0001b9ac       ??_C@_02DHLNPPGH@?$HM?$DN?$AA@ 101b99ac     LIBCMTD:undname.obj
 0002:0001b9b0       ??_C@_02FGJGFEAB@?$CG?$DN?$AA@ 101b99b0     LIBCMTD:undname.obj
 0002:0001b9b4       ??_C@_03CDNPDDLA@?$DM?$DM?$DN?$AA@ 101b99b4     LIBCMTD:undname.obj
 0002:0001b9b8       ??_C@_03IKFCCPFF@?$DO?$DO?$DN?$AA@ 101b99b8     LIBCMTD:undname.obj
 0002:0001b9bc       ??_C@_02FENAOKFI@?$CF?$DN?$AA@ 101b99bc     LIBCMTD:undname.obj
 0002:0001b9c0       ??_C@_02FJEHGPIO@?1?$DN?$AA@ 101b99c0     LIBCMTD:undname.obj
 0002:0001b9c4       ??_C@_02FKMDLLOA@?9?$DN?$AA@ 101b99c4     LIBCMTD:undname.obj
 0002:0001b9c8       ??_C@_02FOEOMHFC@?$CL?$DN?$AA@ 101b99c8     LIBCMTD:undname.obj
 0002:0001b9cc       ??_C@_02FPIMKNGF@?$CK?$DN?$AA@ 101b99cc     LIBCMTD:undname.obj
 0002:0001b9d0       ??_C@_02NONPIBCD@?$HM?$HM?$AA@ 101b99d0     LIBCMTD:undname.obj
 0002:0001b9d4       ??_C@_02PPKAJPJL@?$CG?$CG?$AA@ 101b99d4     LIBCMTD:undname.obj
 0002:0001b9d8       ??_C@_01DNKMNLPK@?$HM?$AA@ 101b99d8     LIBCMTD:undname.obj
 0002:0001b9dc       ??_C@_01JKBOJNNK@?$FO?$AA@ 101b99dc     LIBCMTD:undname.obj
 0002:0001b9e0       ??_C@_01PJKLJHI@?$HO?$AA@  101b99e0     LIBCMTD:undname.obj
 0002:0001b9e4       ??_C@_02HCKGKOFO@?$CI?$CJ?$AA@ 101b99e4     LIBCMTD:undname.obj
 0002:0001b9e8       ??_C@_01IHBHIGKO@?0?$AA@   101b99e8     LIBCMTD:undname.obj
 0002:0001b9ec       ??_C@_02EEKDKGMJ@?$DO?$DN?$AA@ 101b99ec     LIBCMTD:undname.obj
 0002:0001b9f0       ??_C@_01PPODPGHN@?$DO?$AA@ 101b99f0     LIBCMTD:undname.obj
 0002:0001b9f4       ??_C@_02EHCHHCKH@?$DM?$DN?$AA@ 101b99f4     LIBCMTD:undname.obj
 0002:0001b9f8       ??_C@_01MNNFJEPP@?$DM?$AA@ 101b99f8     LIBCMTD:undname.obj
 0002:0001b9fc       ??_C@_01FGNFDNOH@?$CF?$AA@ 101b99fc     LIBCMTD:undname.obj
 0002:0001ba00       ??_C@_01KMDKNFGN@?1?$AA@   101b9a00     LIBCMTD:undname.obj
 0002:0001ba04       ??_C@_03MNHNFDLC@?9?$DO?$CK?$AA@ 101b9a04     LIBCMTD:undname.obj
 0002:0001ba08       ??_C@_01HNPIGOCE@?$CG?$AA@ 101b9a08     LIBCMTD:undname.obj
 0002:0001ba0c       ??_C@_01MIFGBAGJ@?$CL?$AA@ 101b9a0c     LIBCMTD:undname.obj
 0002:0001ba10       ??_C@_01JOAMLHOP@?9?$AA@   101b9a10     LIBCMTD:undname.obj
 0002:0001ba14       ??_C@_02BAABKJLB@?9?9?$AA@ 101b9a14     LIBCMTD:undname.obj
 0002:0001ba18       ??_C@_02ECNGHCIF@?$CL?$CL?$AA@ 101b9a18     LIBCMTD:undname.obj
 0002:0001ba1c       ??_C@_01NBENCBCI@?$CK?$AA@ 101b9a1c     LIBCMTD:undname.obj
 0002:0001ba20       ??_C@_02HBOOOICD@?9?$DO?$AA@ 101b9a20     LIBCMTD:undname.obj
 0002:0001ba24       ??_C@_08LHJFAFGD@operator?$AA@ 101b9a24     LIBCMTD:undname.obj
 0002:0001ba30       ??_C@_02GPECMEKF@?$FL?$FN?$AA@ 101b9a30     LIBCMTD:undname.obj
 0002:0001ba34       ??_C@_02FDNJECIE@?$CB?$DN?$AA@ 101b9a34     LIBCMTD:undname.obj
 0002:0001ba38       ??_C@_02EGOFBIJA@?$DN?$DN?$AA@ 101b9a38     LIBCMTD:undname.obj
 0002:0001ba3c       ??_C@_01DCLJPIOD@?$CB?$AA@ 101b9a3c     LIBCMTD:undname.obj
 0002:0001ba40       ??_C@_02FODMEDOG@?$DM?$DM?$AA@ 101b9a40     LIBCMTD:undname.obj
 0002:0001ba44       ??_C@_02GPIOPFAK@?$DO?$DO?$AA@ 101b9a44     LIBCMTD:undname.obj
 0002:0001ba48       ??_C@_07FPCDHGMM@?5delete?$AA@ 101b9a48     LIBCMTD:undname.obj
 0002:0001ba50       ??_C@_04NIHEBCM@?5new?$AA@ 101b9a50     LIBCMTD:undname.obj
 0002:0001ba58       ??_C@_0M@GFIIJFMG@__unaligned?$AA@ 101b9a58     LIBCMTD:undname.obj
 0002:0001ba64       ??_C@_0L@PILCLIHE@__restrict?$AA@ 101b9a64     LIBCMTD:undname.obj
 0002:0001ba70       ??_C@_07JOMMBBKO@__ptr64?$AA@ 101b9a70     LIBCMTD:undname.obj
 0002:0001ba78       ??_C@_09HIJEGCPM@__clrcall?$AA@ 101b9a78     LIBCMTD:undname.obj
 0002:0001ba84       ??_C@_0L@JMKHOMEK@__fastcall?$AA@ 101b9a84     LIBCMTD:undname.obj
 0002:0001ba90       ??_C@_0L@NPHFGOKO@__thiscall?$AA@ 101b9a90     LIBCMTD:undname.obj
 0002:0001ba9c       ??_C@_09IFJBGAPI@__stdcall?$AA@ 101b9a9c     LIBCMTD:undname.obj
 0002:0001baa8       ??_C@_08GHMPAG@__pascal?$AA@ 101b9aa8     LIBCMTD:undname.obj
 0002:0001bab4       ??_C@_07KOLFKCDI@__cdecl?$AA@ 101b9ab4     LIBCMTD:undname.obj
 0002:0001babc       ??_C@_08EHJDFFNH@__based?$CI?$AA@ 101b9abc     LIBCMTD:undname.obj
 0002:0001bc48       ??_C@_04HEJADOOB@CV?3?5?$AA@ 101b9c48     LIBCMTD:undname.obj
 0002:0001bc50       ??_C@_02MOLJINC@?3?3?$AA@  101b9c50     LIBCMTD:undname.obj
 0002:0001bc54       ??_C@_01GEODFPGF@?8?$AA@   101b9c54     LIBCMTD:undname.obj
 0002:0001bc58       ??_C@_01NLNLIGKH@?$GA?$AA@ 101b9c58     LIBCMTD:undname.obj
 0002:0001bc5c       ??_C@_0O@KHGCOMHP@generic?9type?9?$AA@ 101b9c5c     LIBCMTD:undname.obj
 0002:0001bc6c       ??_C@_0BE@JAEOCHPE@template?9parameter?9?$AA@ 101b9c6c     LIBCMTD:undname.obj
 0002:0001bc80       ??_C@_02OHHJMEON@?8?8?$AA@ 101b9c80     LIBCMTD:undname.obj
 0002:0001bc84       ??_C@_0BG@JNJLAMPM@?$GAanonymous?5namespace?8?$AA@ 101b9c84     LIBCMTD:undname.obj
 0002:0001bc9c       ??_C@_0BN@IBLMMFAP@?$GAnon?9type?9template?9parameter?$AA@ 101b9c9c     LIBCMTD:undname.obj
 0002:0001bcbc       ??_C@_0BE@EODMJLIF@?$GAtemplate?9parameter?$AA@ 101b9cbc     LIBCMTD:undname.obj
 0002:0001bcd0       ??_C@_04GKJNKENE@void?$AA@ 101b9cd0     LIBCMTD:undname.obj
 0002:0001bcd8       ??_C@_04HIBGFPH@NULL?$AA@  101b9cd8     LIBCMTD:undname.obj
 0002:0001bce0       ??_C@_0M@DHNBOJMP@extern?5?$CCC?$CC?5?$AA@ 101b9ce0     LIBCMTD:undname.obj
 0002:0001bcec       ??_C@_08KJLFOPNE@?$FLthunk?$FN?3?$AA@ 101b9cec     LIBCMTD:undname.obj
 0002:0001bcf8       ??_C@_08GPDDCMKI@public?3?5?$AA@ 101b9cf8     LIBCMTD:undname.obj
 0002:0001bd04       ??_C@_0M@GAIFPFIP@protected?3?5?$AA@ 101b9d04     LIBCMTD:undname.obj
 0002:0001bd10       ??_C@_09LAPHOOG@private?3?5?$AA@ 101b9d10     LIBCMTD:undname.obj
 0002:0001bd1c       ??_C@_08NIEOINHE@virtual?5?$AA@ 101b9d1c     LIBCMTD:undname.obj
 0002:0001bd28       ??_C@_07PGOEDBHP@static?5?$AA@ 101b9d28     LIBCMTD:undname.obj
 0002:0001bd30       ??_C@_0DA@HGFJFBBE@?$GAtemplate?5static?5data?5member?5des@ 101b9d30     LIBCMTD:undname.obj
 0002:0001bd60       ??_C@_0DB@ILEFOCIJ@?$GAtemplate?5static?5data?5member?5con@ 101b9d60     LIBCMTD:undname.obj
 0002:0001bd94       ??_C@_0CB@KJDOOODE@?$GAlocal?5static?5destructor?5helper?8@ 101b9d94     LIBCMTD:undname.obj
 0002:0001bdb8       ??_C@_0L@HNGCOGAE@?$GAadjustor?$HL?$AA@ 101b9db8     LIBCMTD:undname.obj
 0002:0001bdc4       ??_C@_0L@GHPFDFH@?$GAvtordisp?$HL?$AA@ 101b9dc4     LIBCMTD:undname.obj
 0002:0001bdd0       ??_C@_0N@CBHHHENL@?$GAvtordispex?$HL?$AA@ 101b9dd0     LIBCMTD:undname.obj
 0002:0001bde0       ??_C@_01CLKCMJKC@?5?$AA@   101b9de0     LIBCMTD:undname.obj
 0002:0001bde4       ??_C@_02IGFCGPIL@?$HN?8?$AA@ 101b9de4     LIBCMTD:undname.obj
 0002:0001bde8       ??_C@_03OPGICMGF@?$HN?8?5?$AA@ 101b9de8     LIBCMTD:undname.obj
 0002:0001bdec       ??_C@_02KCKGHPCA@?$CJ?5?$AA@ 101b9dec     LIBCMTD:undname.obj
 0002:0001bdf0       ??_C@_05BEFAKPML@void?5?$AA@ 101b9df0     LIBCMTD:undname.obj
 0002:0001bdf8       ??_C@_08PABEKFH@volatile?$AA@ 101b9df8     LIBCMTD:undname.obj
 0002:0001be04       ??_C@_0M@ELJOJFFH@?0?$DMellipsis?$DO?$AA@ 101b9e04     LIBCMTD:undname.obj
 0002:0001be10       ??_C@_04EENFHACM@?0?4?4?4?$AA@ 101b9e10     LIBCMTD:undname.obj
 0002:0001be18       ??_C@_0L@EGPHHEKN@?$DMellipsis?$DO?$AA@ 101b9e18     LIBCMTD:undname.obj
 0002:0001be24       ??_C@_07HDJPLPEK@?5throw?$CI?$AA@ 101b9e24     LIBCMTD:undname.obj
 0002:0001be2c       ??_C@_09EFNPDFFP@?5volatile?$AA@ 101b9e2c     LIBCMTD:undname.obj
 0002:0001be38       ??_C@_05BNCCCJPP@const?$AA@ 101b9e38     LIBCMTD:undname.obj
 0002:0001be40       ??_C@_07EDHNAJHC@signed?5?$AA@ 101b9e40     LIBCMTD:undname.obj
 0002:0001be48       ??_C@_09EBBEKKIH@unsigned?5?$AA@ 101b9e48     LIBCMTD:undname.obj
 0002:0001be54       ??_C@_07NFANNNEC@UNKNOWN?$AA@ 101b9e54     LIBCMTD:undname.obj
 0002:0001be5c       ??_C@_06GCICPBLB@__w64?5?$AA@ 101b9e5c     LIBCMTD:undname.obj
 0002:0001be64       ??_C@_07CLGGIAMF@wchar_t?$AA@ 101b9e64     LIBCMTD:undname.obj
 0002:0001be6c       ??_C@_08GAHOLHEO@__int128?$AA@ 101b9e6c     LIBCMTD:undname.obj
 0002:0001be78       ??_C@_07LFCOJCAC@__int64?$AA@ 101b9e78     LIBCMTD:undname.obj
 0002:0001be80       ??_C@_07OFLPPHGP@__int32?$AA@ 101b9e80     LIBCMTD:undname.obj
 0002:0001be88       ??_C@_07ICFHOGAF@__int16?$AA@ 101b9e88     LIBCMTD:undname.obj
 0002:0001be90       ??_C@_06EBGKOKIG@__int8?$AA@ 101b9e90     LIBCMTD:undname.obj
 0002:0001be98       ??_C@_04DDKJGDCM@bool?$AA@ 101b9e98     LIBCMTD:undname.obj
 0002:0001bea0       ??_C@_06BNJCAIGJ@double?$AA@ 101b9ea0     LIBCMTD:undname.obj
 0002:0001bea8       ??_C@_05CJIMAING@long?5?$AA@ 101b9ea8     LIBCMTD:undname.obj
 0002:0001beb0       ??_C@_05KNFBNCOH@float?$AA@ 101b9eb0     LIBCMTD:undname.obj
 0002:0001beb8       ??_C@_04GOKPGOLB@long?$AA@ 101b9eb8     LIBCMTD:undname.obj
 0002:0001bec0       ??_C@_03JBIPMCLC@int?$AA@  101b9ec0     LIBCMTD:undname.obj
 0002:0001bec4       ??_C@_05BFKKPKCG@short?$AA@ 101b9ec4     LIBCMTD:undname.obj
 0002:0001becc       ??_C@_04ENMBGAPA@char?$AA@ 101b9ecc     LIBCMTD:undname.obj
 0002:0001bed4       ??_C@_05LJGMCFOG@enum?5?$AA@ 101b9ed4     LIBCMTD:undname.obj
 0002:0001bedc       ??_C@_0N@DLIEFKNA@cointerface?5?$AA@ 101b9edc     LIBCMTD:undname.obj
 0002:0001beec       ??_C@_08KOFANOFK@coclass?5?$AA@ 101b9eec     LIBCMTD:undname.obj
 0002:0001bef8       ??_C@_06LJBABKPM@class?5?$AA@ 101b9ef8     LIBCMTD:undname.obj
 0002:0001bf00       ??_C@_07DIBCDNGL@struct?5?$AA@ 101b9f00     LIBCMTD:undname.obj
 0002:0001bf08       ??_C@_06MOJHIBMG@union?5?$AA@ 101b9f08     LIBCMTD:undname.obj
 0002:0001bf10       ??_C@_0P@GCIFDJCJ@?$GAunknown?5ecsu?8?$AA@ 101b9f10     LIBCMTD:undname.obj
 0002:0001bf20       ??_C@_04LAHKHJMA@int?5?$AA@ 101b9f20     LIBCMTD:undname.obj
 0002:0001bf28       ??_C@_06EHJMALKF@short?5?$AA@ 101b9f28     LIBCMTD:undname.obj
 0002:0001bf30       ??_C@_05CIHEBHNO@char?5?$AA@ 101b9f30     LIBCMTD:undname.obj
 0002:0001bf38       ??_C@_06LIJLOJAG@const?5?$AA@ 101b9f38     LIBCMTD:undname.obj
 0002:0001bf40       ??_C@_09GAIEOBLP@volatile?5?$AA@ 101b9f40     LIBCMTD:undname.obj
 0002:0001bf4c       ??_C@_0O@GKABPPIF@cli?3?3pin_ptr?$DM?$AA@ 101b9f4c     LIBCMTD:undname.obj
 0002:0001bf5c       ??_C@_0M@EALIELKG@cli?3?3array?$DM?$AA@ 101b9f5c     LIBCMTD:undname.obj
 0002:0001bf68       ??_C@_02GOGNNPBN@?$CJ?$FL?$AA@ 101b9f68     LIBCMTD:undname.obj
 0002:0001bf6c       ??_C@_06EEGAIFAK@?$HLflat?$HN?$AA@ 101b9f6c     LIBCMTD:undname.obj
 0002:0001bf74       ??_C@_02MDINNEEG@s?5?$AA@  101b9f74     LIBCMTD:undname.obj
 0002:0001bf78       ??_C@_05JIBOFOHK@?$HLfor?5?$AA@ 101b9f78     LIBCMTD:undname.obj
 0002:0001bf80       ??_7DNameNode@@6B@         101b9f80     LIBCMTD:undname.obj
 0002:0001bf8c       ??_7charNode@@6B@          101b9f8c     LIBCMTD:undname.obj
 0002:0001bf98       ??_7pcharNode@@6B@         101b9f98     LIBCMTD:undname.obj
 0002:0001bfa4       ??_7pDNameNode@@6B@        101b9fa4     LIBCMTD:undname.obj
 0002:0001bfb0       ??_7DNameStatusNode@@6B@   101b9fb0     LIBCMTD:undname.obj
 0002:0001bfbc       ??_C@_04OKOHEJBO@?5?$DP?$DP?5?$AA@ 101b9fbc     LIBCMTD:undname.obj
 0002:0001bfc4       ??_7pairNode@@6B@          101b9fc4     LIBCMTD:undname.obj
 0002:0001bfd0       ??_C@_1BA@EGFMICNO@?$AA_?$AAs?$AAt?$AAr?$AAl?$AAw?$AAr?$AA?$AA@ 101b9fd0     LIBCMTD:strlwr.obj
 0002:0001bfe0       ??_C@_1GA@NICGNHEP@?$AAf?$AA?3?$AA?2?$AAd?$AAd?$AA?2?$AAv?$AAc?$AAt?$AAo?$AAo?$AAl?$AAs?$AA?2?$AAc?$AAr?$AAt?$AA_?$AAb?$AAl?$AAd?$AA?2?$AAs?$AAe?$AAl?$AAf?$AA_?$AAx?$AA8?$AA6?$AA?2?$AAc@ 101b9fe0     LIBCMTD:strlwr.obj
 0002:0001c040       ??_C@_1CC@PMAIDLKG@?$AA_?$AAs?$AAt?$AAr?$AAl?$AAw?$AAr?$AA_?$AAs?$AA_?$AAl?$AA_?$AAs?$AAt?$AAa?$AAt?$AA?$AA@ 101ba040     LIBCMTD:strlwr.obj
 0002:0001c064       ??_C@_1DO@MOGEFOMO@?$AAs?$AAt?$AAr?$AAc?$AAp?$AAy?$AA_?$AAs?$AA?$CI?$AAm?$AAe?$AAm?$AAo?$AAr?$AAy?$AA?0?$AA?5?$AAs?$AAi?$AAz?$AAe?$AA?0?$AA?5?$AAs?$AAt?$AAr?$AAi?$AAn?$AAg?$AA?$CJ?$AA?$AA@ 101ba064     LIBCMTD:strdup.obj
 0002:0001c0a4       ??_C@_1BI@CBNECNIC@?$AA_?$AAs?$AAt?$AAr?$AAd?$AAu?$AAp?$AA_?$AAd?$AAb?$AAg?$AA?$AA@ 101ba0a4     LIBCMTD:strdup.obj
 0002:0001c0c0       ??_C@_1GA@JIPKHGPB@?$AAf?$AA?3?$AA?2?$AAd?$AAd?$AA?2?$AAv?$AAc?$AAt?$AAo?$AAo?$AAl?$AAs?$AA?2?$AAc?$AAr?$AAt?$AA_?$AAb?$AAl?$AAd?$AA?2?$AAs?$AAe?$AAl?$AAf?$AA_?$AAx?$AA8?$AA6?$AA?2?$AAc@ 101ba0c0     LIBCMTD:strdup.obj
 0002:0001c120       __load_config_used         101ba120     LIBCMTD:loadcfg.obj
 0002:00021a6c       ??_R4bad_exception@std@@6B@ 101bfa6c     LIBCMTD:frame.obj
 0002:00021a80       ??_R3bad_exception@std@@8  101bfa80     LIBCMTD:frame.obj
 0002:00021a90       ??_R2bad_exception@std@@8  101bfa90     LIBCMTD:frame.obj
 0002:00021a9c       ??_R1A@?0A@EA@bad_exception@std@@8 101bfa9c     LIBCMTD:frame.obj
 0002:00021ab8       ??_R1A@?0A@EA@exception@std@@8 101bfab8     LIBCMTD:frame.obj
 0002:00021ad4       ??_R3exception@std@@8      101bfad4     LIBCMTD:frame.obj
 0002:00021ae4       ??_R2exception@std@@8      101bfae4     LIBCMTD:frame.obj
 0002:00021aec       ??_R4type_info@@6B@        101bfaec     LIBCMTD:typinfo.obj
 0002:00021b00       ??_R3type_info@@8          101bfb00     LIBCMTD:typinfo.obj
 0002:00021b10       ??_R2type_info@@8          101bfb10     LIBCMTD:typinfo.obj
 0002:00021b18       ??_R1A@?0A@EA@type_info@@8 101bfb18     LIBCMTD:typinfo.obj
 0002:00021b34       ??_R4exception@std@@6B@    101bfb34     LIBCMTD:stdexcpt.obj
 0002:00021b48       ??_R4bad_cast@std@@6B@     101bfb48     LIBCMTD:stdexcpt.obj
 0002:00021b5c       ??_R3bad_cast@std@@8       101bfb5c     LIBCMTD:stdexcpt.obj
 0002:00021b6c       ??_R2bad_cast@std@@8       101bfb6c     LIBCMTD:stdexcpt.obj
 0002:00021b78       ??_R1A@?0A@EA@bad_cast@std@@8 101bfb78     LIBCMTD:stdexcpt.obj
 0002:00021b94       ??_R4bad_typeid@std@@6B@   101bfb94     LIBCMTD:stdexcpt.obj
 0002:00021ba8       ??_R3bad_typeid@std@@8     101bfba8     LIBCMTD:stdexcpt.obj
 0002:00021bb8       ??_R2bad_typeid@std@@8     101bfbb8     LIBCMTD:stdexcpt.obj
 0002:00021bc4       ??_R1A@?0A@EA@bad_typeid@std@@8 101bfbc4     LIBCMTD:stdexcpt.obj
 0002:00021be0       ??_R4__non_rtti_object@std@@6B@ 101bfbe0     LIBCMTD:stdexcpt.obj
 0002:00021bf4       ??_R3__non_rtti_object@std@@8 101bfbf4     LIBCMTD:stdexcpt.obj
 0002:00021c04       ??_R2__non_rtti_object@std@@8 101bfc04     LIBCMTD:stdexcpt.obj
 0002:00021c14       ??_R1A@?0A@EA@__non_rtti_object@std@@8 101bfc14     LIBCMTD:stdexcpt.obj
 0002:00021d90       ___safe_se_handler_table   101bfd90     <linker-defined>
 0002:00021ecc       ___rtc_iaa                 101bfecc     LIBCMTD:_initsect_.obj
 0002:00021fd0       ___rtc_izz                 101bffd0     LIBCMTD:_initsect_.obj
 0002:000220d4       ___rtc_taa                 101c00d4     LIBCMTD:_initsect_.obj
 0002:000221d8       ___rtc_tzz                 101c01d8     LIBCMTD:_initsect_.obj
 0002:00022e00       __TI2?AVbad_exception@std@@ 101c0e00     LIBCMTD:frame.obj
 0002:00022e10       __CTA2?AVbad_exception@std@@ 101c0e10     LIBCMTD:frame.obj
 0002:00022e1c       __CT??_R0?AVbad_exception@std@@@8??0bad_exception@std@@QAE@ABV01@@Z12 101c0e1c     LIBCMTD:frame.obj
 0002:00022e38       __CT??_R0?AVexception@std@@@8??0exception@std@@QAE@ABV01@@Z12 101c0e38     LIBCMTD:frame.obj
 0003:000016e8       _GLModels                  101c36e8     g_fog.obj
 0003:00002aa0       _jacketarmor_info          101c4aa0     g_items.obj
 0003:00002ab4       _combatarmor_info          101c4ab4     g_items.obj
 0003:00002ac8       _bodyarmor_info            101c4ac8     g_items.obj
 0003:00005d08       _itemlist                  101c7d08     g_items.obj
 0003:0000e678       _fields                    101d0678     g_save.obj
 0003:0000f658       _levelfields               101d1658     g_save.obj
 0003:0000f738       _clientfields              101d1738     g_save.obj
 0003:00011fa8       _spawns                    101d3fa8     g_spawn.obj
 0003:00013160       _single_statusbar          101d5160     g_spawn.obj
 0003:00013164       _dm_statusbar              101d5164     g_spawn.obj
 0003:00015928       _DoNotMove                 101d7928     g_trigger.obj
 0003:000161b8       _VEC_UP                    101d81b8     g_utils.obj
 0003:000161c4       _MOVEDIR_UP                101d81c4     g_utils.obj
 0003:000161d0       _VEC_DOWN                  101d81d0     g_utils.obj
 0003:000161dc       _MOVEDIR_DOWN              101d81dc     g_utils.obj
 0003:00018488       _actor_frames_stand        101da488     m_actor.obj
 0003:00018668       _actor_move_stand          101da668     m_actor.obj
 0003:00018678       _actor_frames_walk         101da678     m_actor.obj
 0003:00018708       _actor_move_walk           101da708     m_actor.obj
 0003:00018718       _actor_frames_walk_back    101da718     m_actor.obj
 0003:000187a8       _actor_move_walk_back      101da7a8     m_actor.obj
 0003:000187b8       _actor_frames_crouchwalk_back 101da7b8     m_actor.obj
 0003:00018800       _actor_move_crouchwalk_back 101da800     m_actor.obj
 0003:00018810       _actor_frames_crouch       101da810     m_actor.obj
 0003:000188f4       _actor_move_crouch         101da8f4     m_actor.obj
 0003:00018904       _actor_frames_switch       101da904     m_actor.obj
 0003:00018928       _actor_frames_crouchwalk   101da928     m_actor.obj
 0003:00018970       _actor_move_crouchwalk     101da970     m_actor.obj
 0003:00018980       _actor_frames_run          101da980     m_actor.obj
 0003:000189c8       _actor_move_run            101da9c8     m_actor.obj
 0003:000189d8       _actor_frames_run_bad      101da9d8     m_actor.obj
 0003:00018a20       _actor_move_run_bad        101daa20     m_actor.obj
 0003:00018a30       _actor_frames_run_back     101daa30     m_actor.obj
 0003:00018a78       _actor_move_run_back       101daa78     m_actor.obj
 0003:00018a88       _actor_frames_pain1        101daa88     m_actor.obj
 0003:00018ab8       _actor_move_pain1          101daab8     m_actor.obj
 0003:00018ac8       _actor_frames_pain2        101daac8     m_actor.obj
 0003:00018af8       _actor_move_pain2          101daaf8     m_actor.obj
 0003:00018b08       _actor_frames_pain3        101dab08     m_actor.obj
 0003:00018b38       _actor_move_pain3          101dab38     m_actor.obj
 0003:00018b48       _actor_frames_flipoff      101dab48     m_actor.obj
 0003:00018bd8       _actor_move_flipoff        101dabd8     m_actor.obj
 0003:00018be8       _actor_frames_taunt        101dabe8     m_actor.obj
 0003:00018cb4       _actor_move_taunt          101dacb4     m_actor.obj
 0003:00018cc4       _actor_move_switch         101dacc4     m_actor.obj
 0003:00018cf8       _actor_frames_death1       101dacf8     m_actor.obj
 0003:00018d40       _actor_move_death1         101dad40     m_actor.obj
 0003:00018d50       _actor_frames_death2       101dad50     m_actor.obj
 0003:00018d98       _actor_move_death2         101dad98     m_actor.obj
 0003:00018e38       _actor_frames_attack       101dae38     m_actor.obj
 0003:00018e98       _actor_move_attack         101dae98     m_actor.obj
 0003:00018ea8       _actor_frames_crattack     101daea8     m_actor.obj
 0003:00018f14       _actor_move_crattack       101daf14     m_actor.obj
 0003:00018fd0       _actor_frames_jump         101dafd0     m_actor.obj
 0003:00019018       _actor_move_jump           101db018     m_actor.obj
 0003:00019028       _actor_frames_salute       101db028     m_actor.obj
 0003:000190ac       _actor_move_salute         101db0ac     m_actor.obj
 0003:000190c8       _ActorNames                101db0c8     m_actor.obj
 0003:00019b58       _berserk_frames_stand      101dbb58     m_berserk.obj
 0003:00019b94       _berserk_move_stand        101dbb94     m_berserk.obj
 0003:00019bb0       _berserk_frames_stand_fidget 101dbbb0     m_berserk.obj
 0003:00019ca0       _berserk_move_stand_fidget 101dbca0     m_berserk.obj
 0003:00019cb0       _berserk_frames_walk       101dbcb0     m_berserk.obj
 0003:00019d40       _berserk_move_walk         101dbd40     m_berserk.obj
 0003:00019d50       _berserk_frames_run1       101dbd50     m_berserk.obj
 0003:00019d98       _berserk_move_run1         101dbd98     m_berserk.obj
 0003:00019da8       _berserk_frames_attack_spike 101dbda8     m_berserk.obj
 0003:00019e08       _berserk_move_attack_spike 101dbe08     m_berserk.obj
 0003:00019e18       _berserk_frames_attack_club 101dbe18     m_berserk.obj
 0003:00019ea8       _berserk_move_attack_club  101dbea8     m_berserk.obj
 0003:00019eb8       _berserk_frames_attack_strike 101dbeb8     m_berserk.obj
 0003:00019f60       _berserk_move_attack_strike 101dbf60     m_berserk.obj
 0003:00019f70       _berserk_frames_pain1      101dbf70     m_berserk.obj
 0003:00019fa0       _berserk_move_pain1        101dbfa0     m_berserk.obj
 0003:00019fb0       _berserk_frames_pain2      101dbfb0     m_berserk.obj
 0003:0001a0a0       _berserk_move_pain2        101dc0a0     m_berserk.obj
 0003:0001a0b0       _berserk_frames_death1     101dc0b0     m_berserk.obj
 0003:0001a14c       _berserk_move_death1       101dc14c     m_berserk.obj
 0003:0001a180       _berserk_frames_death2     101dc180     m_berserk.obj
 0003:0001a1e0       _berserk_move_death2       101dc1e0     m_berserk.obj
 0003:0001a250       _berserk_frames_jump       101dc250     m_berserk.obj
 0003:0001a2bc       _berserk_move_jump         101dc2bc     m_berserk.obj
 0003:0001a2d0       _berserk_frames_jump2      101dc2d0     m_berserk.obj
 0003:0001a33c       _berserk_move_jump2        101dc33c     m_berserk.obj
 0003:0001a5e8       _boss2_frames_stand        101dc5e8     m_boss2.obj
 0003:0001a6e4       _boss2_move_stand          101dc6e4     m_boss2.obj
 0003:0001a6f8       _boss2_frames_fidget       101dc6f8     m_boss2.obj
 0003:0001a860       _boss2_move_fidget         101dc860     m_boss2.obj
 0003:0001a870       _boss2_frames_walk         101dc870     m_boss2.obj
 0003:0001a960       _boss2_move_walk           101dc960     m_boss2.obj
 0003:0001a970       _boss2_frames_run          101dc970     m_boss2.obj
 0003:0001aa60       _boss2_move_run            101dca60     m_boss2.obj
 0003:0001aa70       _boss2_frames_attack_pre_mg 101dca70     m_boss2.obj
 0003:0001aadc       _boss2_move_attack_pre_mg  101dcadc     m_boss2.obj
 0003:0001aaf0       _boss2_frames_attack_mg    101dcaf0     m_boss2.obj
 0003:0001ab38       _boss2_move_attack_mg      101dcb38     m_boss2.obj
 0003:0001ab48       _boss2_frames_attack_post_mg 101dcb48     m_boss2.obj
 0003:0001ab78       _boss2_move_attack_post_mg 101dcb78     m_boss2.obj
 0003:0001ab88       _boss2_frames_attack_rocket 101dcb88     m_boss2.obj
 0003:0001ac84       _boss2_move_attack_rocket  101dcc84     m_boss2.obj
 0003:0001ac98       _boss2_frames_pain_heavy   101dcc98     m_boss2.obj
 0003:0001ad70       _boss2_move_pain_heavy     101dcd70     m_boss2.obj
 0003:0001ad80       _boss2_frames_pain_light   101dcd80     m_boss2.obj
 0003:0001adb0       _boss2_move_pain_light     101dcdb0     m_boss2.obj
 0003:0001adc0       _boss2_frames_death        101dcdc0     m_boss2.obj
 0003:0001b00c       _boss2_move_death          101dd00c     m_boss2.obj
 0003:0001b370       _jorg_frames_stand         101dd370     m_boss31.obj
 0003:0001b5d4       _jorg_move_stand           101dd5d4     m_boss31.obj
 0003:0001b5e4       _jorg_frames_start_walk    101dd5e4     m_boss31.obj
 0003:0001b620       _jorg_frames_run           101dd620     m_boss31.obj
 0003:0001b6c8       _jorg_move_run             101dd6c8     m_boss31.obj
 0003:0001b6d8       _jorg_move_start_walk      101dd6d8     m_boss31.obj
 0003:0001b6e8       _jorg_frames_walk          101dd6e8     m_boss31.obj
 0003:0001b790       _jorg_move_walk            101dd790     m_boss31.obj
 0003:0001b7a0       _jorg_frames_end_walk      101dd7a0     m_boss31.obj
 0003:0001b7e8       _jorg_move_end_walk        101dd7e8     m_boss31.obj
 0003:0001b7f8       _jorg_frames_pain3         101dd7f8     m_boss31.obj
 0003:0001b924       _jorg_move_pain3           101dd924     m_boss31.obj
 0003:0001b934       _jorg_frames_pain2         101dd934     m_boss31.obj
 0003:0001b958       _jorg_move_pain2           101dd958     m_boss31.obj
 0003:0001b968       _jorg_frames_pain1         101dd968     m_boss31.obj
 0003:0001b98c       _jorg_move_pain1           101dd98c     m_boss31.obj
 0003:0001b9b0       _jorg_frames_death1        101dd9b0     m_boss31.obj
 0003:0001bc08       _jorg_move_death           101ddc08     m_boss31.obj
 0003:0001bc18       _jorg_frames_attack2       101ddc18     m_boss31.obj
 0003:0001bcb4       _jorg_move_attack2         101ddcb4     m_boss31.obj
 0003:0001bcc8       _jorg_frames_start_attack1 101ddcc8     m_boss31.obj
 0003:0001bd28       _jorg_move_start_attack1   101ddd28     m_boss31.obj
 0003:0001bd38       _jorg_frames_attack1       101ddd38     m_boss31.obj
 0003:0001bd80       _jorg_move_attack1         101ddd80     m_boss31.obj
 0003:0001bd90       _jorg_frames_end_attack1   101ddd90     m_boss31.obj
 0003:0001bdc0       _jorg_move_end_attack1     101dddc0     m_boss31.obj
 0003:0001c288       _makron_frames_stand       101de288     m_boss32.obj
 0003:0001c558       _makron_move_stand         101de558     m_boss32.obj
 0003:0001c568       _makron_frames_run         101de568     m_boss32.obj
 0003:0001c5e0       _makron_move_run           101de5e0     m_boss32.obj
 0003:0001c5f0       _makron_frames_walk        101de5f0     m_boss32.obj
 0003:0001c668       _makron_move_walk          101de668     m_boss32.obj
 0003:0001c678       _makron_frames_pain6       101de678     m_boss32.obj
 0003:0001c7bc       _makron_move_pain6         101de7bc     m_boss32.obj
 0003:0001c7cc       _makron_frames_pain5       101de7cc     m_boss32.obj
 0003:0001c7fc       _makron_move_pain5         101de7fc     m_boss32.obj
 0003:0001c80c       _makron_frames_pain4       101de80c     m_boss32.obj
 0003:0001c83c       _makron_move_pain4         101de83c     m_boss32.obj
 0003:0001c858       _makron_frames_death2      101de858     m_boss32.obj
 0003:0001cccc       _makron_move_death2        101deccc     m_boss32.obj
 0003:0001cce0       _makron_frames_death3      101dece0     m_boss32.obj
 0003:0001cdd0       _makron_move_death3        101dedd0     m_boss32.obj
 0003:0001cde0       _makron_frames_sight       101dede0     m_boss32.obj
 0003:0001ce7c       _makron_move_sight         101dee7c     m_boss32.obj
 0003:0001ce90       _makron_frames_attack3     101dee90     m_boss32.obj
 0003:0001cef0       _makron_move_attack3       101deef0     m_boss32.obj
 0003:0001cf00       _makron_frames_attack4     101def00     m_boss32.obj
 0003:0001d038       _makron_move_attack4       101df038     m_boss32.obj
 0003:0001d048       _makron_frames_attack5     101df048     m_boss32.obj
 0003:0001d108       _makron_move_attack5       101df108     m_boss32.obj
 0003:0001d6d8       _boss5_frames_stand        101df6d8     m_boss5.obj
 0003:0001d9a8       _boss5_move_stand          101df9a8     m_boss5.obj
 0003:0001d9b8       _boss5_frames_run          101df9b8     m_boss5.obj
 0003:0001da90       _boss5_move_run            101dfa90     m_boss5.obj
 0003:0001daa0       _boss5_frames_forward      101dfaa0     m_boss5.obj
 0003:0001db78       _boss5_move_forward        101dfb78     m_boss5.obj
 0003:0001db88       _boss5_frames_turn_right   101dfb88     m_boss5.obj
 0003:0001dc60       _boss5_move_turn_right     101dfc60     m_boss5.obj
 0003:0001dc70       _boss5_frames_turn_left    101dfc70     m_boss5.obj
 0003:0001dd48       _boss5_move_turn_left      101dfd48     m_boss5.obj
 0003:0001dd58       _boss5_frames_pain3        101dfd58     m_boss5.obj
 0003:0001dd88       _boss5_move_pain3          101dfd88     m_boss5.obj
 0003:0001dd98       _boss5_frames_pain2        101dfd98     m_boss5.obj
 0003:0001ddc8       _boss5_move_pain2          101dfdc8     m_boss5.obj
 0003:0001ddd8       _boss5_frames_pain1        101dfdd8     m_boss5.obj
 0003:0001de08       _boss5_move_pain1          101dfe08     m_boss5.obj
 0003:0001de18       _boss5_frames_death1       101dfe18     m_boss5.obj
 0003:0001df38       _boss5_move_death          101dff38     m_boss5.obj
 0003:0001df48       _boss5_frames_backward     101dff48     m_boss5.obj
 0003:0001e020       _boss5_move_backward       101e0020     m_boss5.obj
 0003:0001e030       _boss5_frames_attack4      101e0030     m_boss5.obj
 0003:0001e078       _boss5_move_attack4        101e0078     m_boss5.obj
 0003:0001e088       _boss5_frames_attack3      101e0088     m_boss5.obj
 0003:0001e1cc       _boss5_move_attack3        101e01cc     m_boss5.obj
 0003:0001e1e0       _boss5_frames_attack2      101e01e0     m_boss5.obj
 0003:0001e324       _boss5_move_attack2        101e0324     m_boss5.obj
 0003:0001e338       _boss5_frames_attack1      101e0338     m_boss5.obj
 0003:0001e380       _boss5_move_attack1        101e0380     m_boss5.obj
 0003:0001e390       _boss5_frames_end_attack1  101e0390     m_boss5.obj
 0003:0001e438       _boss5_move_end_attack1    101e0438     m_boss5.obj
 0003:0001e828       _brain_frames_stand        101e0828     m_brain.obj
 0003:0001e990       _brain_move_stand          101e0990     m_brain.obj
 0003:0001e9a0       _brain_frames_idle         101e09a0     m_brain.obj
 0003:0001eb08       _brain_move_idle           101e0b08     m_brain.obj
 0003:0001eb18       _brain_frames_walk1        101e0b18     m_brain.obj
 0003:0001eb9c       _brain_move_walk1          101e0b9c     m_brain.obj
 0003:0001ebac       _brain_frames_death2       101e0bac     m_brain.obj
 0003:0001ebe8       _brain_frames_defense      101e0be8     m_brain.obj
 0003:0001ec54       _brain_move_defense        101e0c54     m_brain.obj
 0003:0001ec88       _brain_frames_pain3        101e0c88     m_brain.obj
 0003:0001ecd0       _brain_move_pain3          101e0cd0     m_brain.obj
 0003:0001ece0       _brain_frames_pain2        101e0ce0     m_brain.obj
 0003:0001ed40       _brain_move_pain2          101e0d40     m_brain.obj
 0003:0001ed50       _brain_frames_pain1        101e0d50     m_brain.obj
 0003:0001ee4c       _brain_move_pain1          101e0e4c     m_brain.obj
 0003:0001ee60       _brain_frames_duck         101e0e60     m_brain.obj
 0003:0001eec0       _brain_move_duck           101e0ec0     m_brain.obj
 0003:0001eed0       _brain_move_death2         101e0ed0     m_brain.obj
 0003:0001eee0       _brain_frames_death1       101e0ee0     m_brain.obj
 0003:0001efb8       _brain_move_death1         101e0fb8     m_brain.obj
 0003:0001efc8       _brain_frames_attack1      101e0fc8     m_brain.obj
 0003:0001f0a0       _brain_move_attack1        101e10a0     m_brain.obj
 0003:0001f0b0       _brain_frames_attack2      101e10b0     m_brain.obj
 0003:0001f17c       _brain_move_attack2        101e117c     m_brain.obj
 0003:0001f190       _brain_frames_run          101e1190     m_brain.obj
 0003:0001f214       _brain_move_run            101e1214     m_brain.obj
 0003:0001f638       _brainbeta_frames_stand    101e1638     m_brainbeta.obj
 0003:0001f7a0       _brainbeta_move_stand      101e17a0     m_brainbeta.obj
 0003:0001f7b0       _brainbeta_frames_idle     101e17b0     m_brainbeta.obj
 0003:0001f918       _brainbeta_move_idle       101e1918     m_brainbeta.obj
 0003:0001f928       _brainbeta_frames_walk1    101e1928     m_brainbeta.obj
 0003:0001f9ac       _brainbeta_move_walk1      101e19ac     m_brainbeta.obj
 0003:0001f9bc       _brainbeta_frames_death2   101e19bc     m_brainbeta.obj
 0003:0001f9f8       _brainbeta_frames_defense  101e19f8     m_brainbeta.obj
 0003:0001fa64       _brainbeta_move_defense    101e1a64     m_brainbeta.obj
 0003:0001fa98       _brainbeta_frames_pain3    101e1a98     m_brainbeta.obj
 0003:0001fae0       _brainbeta_move_pain3      101e1ae0     m_brainbeta.obj
 0003:0001faf0       _brainbeta_frames_pain2    101e1af0     m_brainbeta.obj
 0003:0001fb50       _brainbeta_move_pain2      101e1b50     m_brainbeta.obj
 0003:0001fb60       _brainbeta_frames_pain1    101e1b60     m_brainbeta.obj
 0003:0001fc5c       _brainbeta_move_pain1      101e1c5c     m_brainbeta.obj
 0003:0001fc70       _brainbeta_frames_duck     101e1c70     m_brainbeta.obj
 0003:0001fcd0       _brainbeta_move_duck       101e1cd0     m_brainbeta.obj
 0003:0001fce0       _brainbeta_move_death2     101e1ce0     m_brainbeta.obj
 0003:0001fcf0       _brainbeta_frames_death1   101e1cf0     m_brainbeta.obj
 0003:0001fdc8       _brainbeta_move_death1     101e1dc8     m_brainbeta.obj
 0003:0001fdd8       _brainbeta_frames_attack1  101e1dd8     m_brainbeta.obj
 0003:0001feb0       _brainbeta_move_attack1    101e1eb0     m_brainbeta.obj
 0003:0001fec0       _brainbeta_frames_attack2  101e1ec0     m_brainbeta.obj
 0003:0001ff8c       _brainbeta_move_attack2    101e1f8c     m_brainbeta.obj
 0003:0001ffa0       _brain_reye                101e1fa0     m_brainbeta.obj
 0003:00020028       _brain_leye                101e2028     m_brainbeta.obj
 0003:000200c0       _brainbeta_frames_attack3  101e20c0     m_brainbeta.obj
 0003:0002018c       _brainbeta_move_attack3    101e218c     m_brainbeta.obj
 0003:000201a0       _brainbeta_frames_attack4  101e21a0     m_brainbeta.obj
 0003:00020224       _brainbeta_move_attack4    101e2224     m_brainbeta.obj
 0003:00020238       _brainbeta_frames_run      101e2238     m_brainbeta.obj
 0003:000202bc       _brainbeta_move_run        101e22bc     m_brainbeta.obj
 0003:00020770       _flyer_mins                101e2770     m_carrier.obj
 0003:0002077c       _flyer_maxs                101e277c     m_carrier.obj
 0003:000207b0       _carrier_frames_stand      101e27b0     m_carrier.obj
 0003:0002084c       _carrier_move_stand        101e284c     m_carrier.obj
 0003:00020860       _carrier_frames_walk       101e2860     m_carrier.obj
 0003:000208fc       _carrier_move_walk         101e28fc     m_carrier.obj
 0003:00020910       _carrier_frames_run        101e2910     m_carrier.obj
 0003:000209ac       _carrier_move_run          101e29ac     m_carrier.obj
 0003:000209c0       _carrier_frames_attack_pre_mg 101e29c0     m_carrier.obj
 0003:00020a20       _carrier_move_attack_pre_mg 101e2a20     m_carrier.obj
 0003:00020a30       _carrier_frames_attack_mg  101e2a30     m_carrier.obj
 0003:00020a54       _carrier_move_attack_mg    101e2a54     m_carrier.obj
 0003:00020a64       _carrier_frames_attack_post_mg 101e2a64     m_carrier.obj
 0003:00020a94       _carrier_move_attack_post_mg 101e2a94     m_carrier.obj
 0003:00020aa8       _carrier_frames_attack_pre_gren 101e2aa8     m_carrier.obj
 0003:00020af0       _carrier_move_attack_pre_gren 101e2af0     m_carrier.obj
 0003:00020b00       _carrier_frames_attack_gren 101e2b00     m_carrier.obj
 0003:00020b30       _carrier_move_attack_gren  101e2b30     m_carrier.obj
 0003:00020b40       _carrier_frames_attack_post_gren 101e2b40     m_carrier.obj
 0003:00020b88       _carrier_move_attack_post_gren 101e2b88     m_carrier.obj
 0003:00020b98       _carrier_frames_attack_rocket 101e2b98     m_carrier.obj
 0003:00020ba4       _carrier_move_attack_rocket 101e2ba4     m_carrier.obj
 0003:00020bb8       _carrier_frames_attack_rail 101e2bb8     m_carrier.obj
 0003:00020c24       _carrier_move_attack_rail  101e2c24     m_carrier.obj
 0003:00020c38       _carrier_frames_spawn      101e2c38     m_carrier.obj
 0003:00020d10       _carrier_move_spawn        101e2d10     m_carrier.obj
 0003:00020d20       _carrier_frames_pain_heavy 101e2d20     m_carrier.obj
 0003:00020d98       _carrier_move_pain_heavy   101e2d98     m_carrier.obj
 0003:00020da8       _carrier_frames_pain_light 101e2da8     m_carrier.obj
 0003:00020dd8       _carrier_move_pain_light   101e2dd8     m_carrier.obj
 0003:00020de8       _carrier_frames_death      101e2de8     m_carrier.obj
 0003:00020ea8       _carrier_move_death        101e2ea8     m_carrier.obj
 0003:00021400       _chick_frames_fidget       101e3400     m_chick.obj
 0003:00021568       _chick_move_fidget         101e3568     m_chick.obj
 0003:00021578       _chick_frames_stand        101e3578     m_chick.obj
 0003:000216e0       _chick_move_stand          101e36e0     m_chick.obj
 0003:000216f0       _chick_frames_start_run    101e36f0     m_chick.obj
 0003:00021768       _chick_move_start_run      101e3768     m_chick.obj
 0003:00021778       _chick_frames_run          101e3778     m_chick.obj
 0003:000217f0       _chick_move_run            101e37f0     m_chick.obj
 0003:00021800       _chick_frames_walk         101e3800     m_chick.obj
 0003:00021878       _chick_move_walk           101e3878     m_chick.obj
 0003:00021888       _chick_frames_pain1        101e3888     m_chick.obj
 0003:000218c4       _chick_move_pain1          101e38c4     m_chick.obj
 0003:000218d4       _chick_frames_pain2        101e38d4     m_chick.obj
 0003:00021910       _chick_move_pain2          101e3910     m_chick.obj
 0003:00021920       _chick_frames_pain3        101e3920     m_chick.obj
 0003:00021a1c       _chick_move_pain3          101e3a1c     m_chick.obj
 0003:00021a50       _chick_frames_death2       101e3a50     m_chick.obj
 0003:00021b64       _chick_move_death2         101e3b64     m_chick.obj
 0003:00021b78       _chick_frames_death1       101e3b78     m_chick.obj
 0003:00021c08       _chick_move_death1         101e3c08     m_chick.obj
 0003:00021cc8       _chick_frames_duck         101e3cc8     m_chick.obj
 0003:00021d1c       _chick_move_duck           101e3d1c     m_chick.obj
 0003:00021d30       _chick_frames_start_attack1 101e3d30     m_chick.obj
 0003:00021dcc       _chick_move_start_attack1  101e3dcc     m_chick.obj
 0003:00021de0       _chick_frames_attack1      101e3de0     m_chick.obj
 0003:00021e88       _chick_move_attack1        101e3e88     m_chick.obj
 0003:00021e98       _chick_frames_end_attack1  101e3e98     m_chick.obj
 0003:00021ed4       _chick_move_end_attack1    101e3ed4     m_chick.obj
 0003:00021ee8       _chick_frames_slash        101e3ee8     m_chick.obj
 0003:00021f54       _chick_move_slash          101e3f54     m_chick.obj
 0003:00021f64       _chick_frames_end_slash    101e3f64     m_chick.obj
 0003:00021f94       _chick_move_end_slash      101e3f94     m_chick.obj
 0003:00021fa4       _chick_frames_start_slash  101e3fa4     m_chick.obj
 0003:00021fc8       _chick_move_start_slash    101e3fc8     m_chick.obj
 0003:00022430       _dog_frames_stand          101e4430     m_dog.obj
 0003:0002249c       _dog_move_stand            101e449c     m_dog.obj
 0003:000224d0       _dog_frames_walk           101e44d0     m_dog.obj
 0003:00022530       _dog_move_walk             101e4530     m_dog.obj
 0003:00022540       _dog_frames_run            101e4540     m_dog.obj
 0003:000225d0       _dog_move_run              101e45d0     m_dog.obj
 0003:000225e0       _dog_frames_pain1          101e45e0     m_dog.obj
 0003:00022628       _dog_move_pain1            101e4628     m_dog.obj
 0003:00022638       _dog_frames_pain2          101e4638     m_dog.obj
 0003:000226f8       _dog_move_pain2            101e46f8     m_dog.obj
 0003:00022708       _dog_frames_attack         101e4708     m_dog.obj
 0003:00022768       _dog_move_attack           101e4768     m_dog.obj
 0003:00022778       _dog_frames_leap           101e4778     m_dog.obj
 0003:000227e4       _dog_move_leap             101e47e4     m_dog.obj
 0003:000227f8       _dog_frames_death1         101e47f8     m_dog.obj
 0003:00022864       _dog_move_death1           101e4864     m_dog.obj
 0003:00022878       _dog_frames_death2         101e4878     m_dog.obj
 0003:000228e4       _dog_move_death2           101e48e4     m_dog.obj
 0003:00022b80       _fixbot_frames_landing     101e4b80     m_fixbot.obj
 0003:00022e38       _fixbot_move_landing       101e4e38     m_fixbot.obj
 0003:00022e48       _fixbot_frames_stand       101e4e48     m_fixbot.obj
 0003:00022f2c       _fixbot_move_stand         101e4f2c     m_fixbot.obj
 0003:00022f3c       _fixbot_frames_roamgoal    101e4f3c     m_fixbot.obj
 0003:00022f48       _fixbot_frames_stand2      101e4f48     m_fixbot.obj
 0003:0002302c       _fixbot_move_stand2        101e502c     m_fixbot.obj
 0003:0002303c       _fixbot_frames_turn        101e503c     m_fixbot.obj
 0003:00023048       _fixbot_frames_pickup      101e5048     m_fixbot.obj
 0003:0002318c       _fixbot_move_pickup        101e518c     m_fixbot.obj
 0003:0002319c       _fixbot_move_roamgoal      101e519c     m_fixbot.obj
 0003:000231ac       _fixbot_move_turn          101e51ac     m_fixbot.obj
 0003:000231bc       _fixbot_frames_pain3       101e51bc     m_fixbot.obj
 0003:000231c8       _fixbot_frames_takeoff     101e51c8     m_fixbot.obj
 0003:00023288       _fixbot_move_takeoff       101e5288     m_fixbot.obj
 0003:00023298       _fixbot_frames_paina       101e5298     m_fixbot.obj
 0003:000232e0       _fixbot_move_paina         101e52e0     m_fixbot.obj
 0003:000232f0       _fixbot_frames_painb       101e52f0     m_fixbot.obj
 0003:00023350       _fixbot_move_painb         101e5350     m_fixbot.obj
 0003:00023360       _fixbot_move_pain3         101e5360     m_fixbot.obj
 0003:00023370       _fixbot_frames_land        101e5370     m_fixbot.obj
 0003:0002337c       _fixbot_move_land          101e537c     m_fixbot.obj
 0003:0002338c       _fixbot_frames_forward     101e538c     m_fixbot.obj
 0003:00023398       _fixbot_move_forward       101e5398     m_fixbot.obj
 0003:000233a8       _fixbot_frames_walk        101e53a8     m_fixbot.obj
 0003:000233b4       _fixbot_move_walk          101e53b4     m_fixbot.obj
 0003:000233c4       _fixbot_frames_run         101e53c4     m_fixbot.obj
 0003:000233d0       _fixbot_move_run           101e53d0     m_fixbot.obj
 0003:000233e0       _fixbot_frames_death1      101e53e0     m_fixbot.obj
 0003:000233ec       _fixbot_move_death1        101e53ec     m_fixbot.obj
 0003:000233fc       _fixbot_frames_backward    101e53fc     m_fixbot.obj
 0003:00023408       _fixbot_move_backward      101e5408     m_fixbot.obj
 0003:00023418       _fixbot_frames_start_attack 101e5418     m_fixbot.obj
 0003:00023424       _fixbot_move_start_attack  101e5424     m_fixbot.obj
 0003:00023458       _fixbot_frames_attack1     101e5458     m_fixbot.obj
 0003:000234a0       _fixbot_move_attack1       101e54a0     m_fixbot.obj
 0003:000234c0       _fixbot_frames_laserattack 101e54c0     m_fixbot.obj
 0003:00023508       _fixbot_move_laserattack   101e5508     m_fixbot.obj
 0003:00023518       _fixbot_frames_attack2     101e5518     m_fixbot.obj
 0003:0002368c       _fixbot_move_attack2       101e568c     m_fixbot.obj
 0003:000236c0       _fixbot_frames_weld_start  101e56c0     m_fixbot.obj
 0003:00023738       _fixbot_move_weld_start    101e5738     m_fixbot.obj
 0003:00023748       _fixbot_frames_weld        101e5748     m_fixbot.obj
 0003:0002379c       _fixbot_move_weld          101e579c     m_fixbot.obj
 0003:000237d0       _fixbot_frames_weld_end    101e57d0     m_fixbot.obj
 0003:00023824       _fixbot_move_weld_end      101e5824     m_fixbot.obj
 0003:00023be8       _monster_flash_offset      101e5be8     m_flash.obj
 0003:000247d8       _flipper_frames_stand      101e67d8     m_flipper.obj
 0003:000247e4       _flipper_move_stand        101e67e4     m_flipper.obj
 0003:000247f4       _flipper_frames_start_run  101e67f4     m_flipper.obj
 0003:00024830       _flipper_frames_run        101e6830     m_flipper.obj
 0003:00024950       _flipper_move_run_loop     101e6950     m_flipper.obj
 0003:00024960       _flipper_frames_run_start  101e6960     m_flipper.obj
 0003:000249a8       _flipper_move_run_start    101e69a8     m_flipper.obj
 0003:000249b8       _flipper_frames_walk       101e69b8     m_flipper.obj
 0003:00024ad8       _flipper_move_walk         101e6ad8     m_flipper.obj
 0003:00024ae8       _flipper_move_start_run    101e6ae8     m_flipper.obj
 0003:00024af8       _flipper_frames_pain2      101e6af8     m_flipper.obj
 0003:00024b34       _flipper_move_pain2        101e6b34     m_flipper.obj
 0003:00024b44       _flipper_frames_pain1      101e6b44     m_flipper.obj
 0003:00024b80       _flipper_move_pain1        101e6b80     m_flipper.obj
 0003:00024b90       _flipper_frames_attack     101e6b90     m_flipper.obj
 0003:00024c80       _flipper_move_attack       101e6c80     m_flipper.obj
 0003:00024c90       _flipper_frames_death      101e6c90     m_flipper.obj
 0003:00024f30       _flipper_move_death        101e6f30     m_flipper.obj
 0003:000252b0       _floater_frames_stand1     101e72b0     m_float.obj
 0003:00025520       _floater_move_stand1       101e7520     m_float.obj
 0003:00025530       _floater_frames_stand2     101e7530     m_float.obj
 0003:000257a0       _floater_move_stand2       101e77a0     m_float.obj
 0003:000257b0       _floater_frames_activate   101e77b0     m_float.obj
 0003:00025918       _floater_move_activate     101e7918     m_float.obj
 0003:00025928       _floater_frames_attack1    101e7928     m_float.obj
 0003:000259d0       _floater_move_attack1      101e79d0     m_float.obj
 0003:000259e0       _floater_frames_attack1a   101e79e0     m_float.obj
 0003:00025a88       _floater_move_attack1a     101e7a88     m_float.obj
 0003:00025a98       _floater_frames_attack2    101e7a98     m_float.obj
 0003:00025bc4       _floater_move_attack2      101e7bc4     m_float.obj
 0003:00025be0       _floater_frames_attack3    101e7be0     m_float.obj
 0003:00025d78       _floater_move_attack3      101e7d78     m_float.obj
 0003:00025d88       _floater_frames_death      101e7d88     m_float.obj
 0003:00025e24       _floater_move_death        101e7e24     m_float.obj
 0003:00025e58       _floater_frames_pain1      101e7e58     m_float.obj
 0003:00025eac       _floater_move_pain1        101e7eac     m_float.obj
 0003:00025ec0       _floater_frames_pain2      101e7ec0     m_float.obj
 0003:00025f20       _floater_move_pain2        101e7f20     m_float.obj
 0003:00025f30       _floater_frames_pain3      101e7f30     m_float.obj
 0003:00025fc0       _floater_move_pain3        101e7fc0     m_float.obj
 0003:00025fd0       _floater_frames_walk       101e7fd0     m_float.obj
 0003:00026240       _floater_move_walk         101e8240     m_float.obj
 0003:00026250       _floater_frames_run        101e8250     m_float.obj
 0003:000264c0       _floater_move_run          101e84c0     m_float.obj
 0003:00026a30       _flyer_frames_stand        101e8a30     m_flyer.obj
 0003:00026c4c       _flyer_move_stand          101e8c4c     m_flyer.obj
 0003:00026c5c       _flyer_frames_kamizake     101e8c5c     m_flyer.obj
 0003:00026c98       _flyer_frames_walk         101e8c98     m_flyer.obj
 0003:00026eb4       _flyer_move_walk           101e8eb4     m_flyer.obj
 0003:00026ed8       _flyer_frames_run          101e8ed8     m_flyer.obj
 0003:000270f4       _flyer_move_run            101e90f4     m_flyer.obj
 0003:00027104       _flyer_move_kamikaze       101e9104     m_flyer.obj
 0003:00027150       _flyer_frames_start        101e9150     m_flyer.obj
 0003:00027198       _flyer_move_start          101e9198     m_flyer.obj
 0003:000271a8       _flyer_frames_stop         101e91a8     m_flyer.obj
 0003:000271fc       _flyer_move_stop           101e91fc     m_flyer.obj
 0003:00027210       _flyer_frames_rollright    101e9210     m_flyer.obj
 0003:0002727c       _flyer_move_rollright      101e927c     m_flyer.obj
 0003:00027290       _flyer_frames_rollleft     101e9290     m_flyer.obj
 0003:000272fc       _flyer_move_rollleft       101e92fc     m_flyer.obj
 0003:0002730c       _flyer_frames_pain3        101e930c     m_flyer.obj
 0003:0002733c       _flyer_move_pain3          101e933c     m_flyer.obj
 0003:0002734c       _flyer_frames_pain2        101e934c     m_flyer.obj
 0003:0002737c       _flyer_move_pain2          101e937c     m_flyer.obj
 0003:00027390       _flyer_frames_pain1        101e9390     m_flyer.obj
 0003:000273fc       _flyer_move_pain1          101e93fc     m_flyer.obj
 0003:00027410       _flyer_frames_defense      101e9410     m_flyer.obj
 0003:00027458       _flyer_move_defense        101e9458     m_flyer.obj
 0003:00027468       _flyer_frames_bankright    101e9468     m_flyer.obj
 0003:000274bc       _flyer_move_bankright      101e94bc     m_flyer.obj
 0003:000274d0       _flyer_frames_bankleft     101e94d0     m_flyer.obj
 0003:00027524       _flyer_move_bankleft       101e9524     m_flyer.obj
 0003:00027538       _flyer_frames_attack2      101e9538     m_flyer.obj
 0003:00027604       _flyer_move_attack2        101e9604     m_flyer.obj
 0003:00027618       _flyer_frames_attack3      101e9618     m_flyer.obj
 0003:000276e4       _flyer_move_attack3        101e96e4     m_flyer.obj
 0003:000276f8       _flyer_frames_start_melee  101e96f8     m_flyer.obj
 0003:00027740       _flyer_move_start_melee    101e9740     m_flyer.obj
 0003:00027750       _flyer_frames_end_melee    101e9750     m_flyer.obj
 0003:00027774       _flyer_move_end_melee      101e9774     m_flyer.obj
 0003:00027788       _flyer_frames_loop_melee   101e9788     m_flyer.obj
 0003:00027818       _flyer_move_loop_melee     101e9818     m_flyer.obj
 0003:00027e68       _gekk_frames_stand         101e9e68     m_gekk.obj
 0003:0002803c       _gekk_move_stand           101ea03c     m_gekk.obj
 0003:0002804c       _gekk_frames_standunderwater 101ea04c     m_gekk.obj
 0003:0002807c       _gekk_move_standunderwater 101ea07c     m_gekk.obj
 0003:0002808c       _gekk_frames_swim          101ea08c     m_gekk.obj
 0003:000280bc       _gekk_move_swim_loop       101ea0bc     m_gekk.obj
 0003:000280d0       _gekk_frames_swim_start    101ea0d0     m_gekk.obj
 0003:00028250       _gekk_move_swim_start      101ea250     m_gekk.obj
 0003:00028260       _gekk_frames_idle          101ea260     m_gekk.obj
 0003:000283e0       _gekk_move_idle            101ea3e0     m_gekk.obj
 0003:000283f0       _gekk_move_idle2           101ea3f0     m_gekk.obj
 0003:00028400       _gekk_frames_idle2         101ea400     m_gekk.obj
 0003:00028580       _gekk_move_chant           101ea580     m_gekk.obj
 0003:00028590       _gekk_frames_walk          101ea590     m_gekk.obj
 0003:000285d8       _gekk_move_walk            101ea5d8     m_gekk.obj
 0003:000285e8       _gekk_frames_run           101ea5e8     m_gekk.obj
 0003:00028630       _gekk_move_run             101ea630     m_gekk.obj
 0003:00028640       _gekk_frames_run_st        101ea640     m_gekk.obj
 0003:00028658       _gekk_move_run_start       101ea658     m_gekk.obj
 0003:000286a8       _gekk_frames_spit          101ea6a8     m_gekk.obj
 0003:000286fc       _gekk_move_spit            101ea6fc     m_gekk.obj
 0003:00028710       _gekk_frames_attack1       101ea710     m_gekk.obj
 0003:0002877c       _gekk_move_attack1         101ea77c     m_gekk.obj
 0003:00028790       _gekk_frames_attack2       101ea790     m_gekk.obj
 0003:000287fc       _gekk_move_attack2         101ea7fc     m_gekk.obj
 0003:00028810       _gekk_frames_leapatk       101ea810     m_gekk.obj
 0003:000288f4       _gekk_move_leapatk         101ea8f4     m_gekk.obj
 0003:00028908       _gekk_frames_leapatk2      101ea908     m_gekk.obj
 0003:000289ec       _gekk_move_leapatk2        101ea9ec     m_gekk.obj
 0003:00028a00       _gekk_frames_attack        101eaa00     m_gekk.obj
 0003:00028afc       _gekk_move_attack          101eaafc     m_gekk.obj
 0003:00028b10       _gekk_frames_pain          101eab10     m_gekk.obj
 0003:00028b58       _gekk_move_pain            101eab58     m_gekk.obj
 0003:00028b68       _gekk_frames_pain1         101eab68     m_gekk.obj
 0003:00028bec       _gekk_move_pain1           101eabec     m_gekk.obj
 0003:00028c00       _gekk_frames_pain2         101eac00     m_gekk.obj
 0003:00028c9c       _gekk_move_pain2           101eac9c     m_gekk.obj
 0003:00028df0       _gekk_frames_death1        101eadf0     m_gekk.obj
 0003:00028e68       _gekk_move_death1          101eae68     m_gekk.obj
 0003:00028e78       _gekk_frames_death3        101eae78     m_gekk.obj
 0003:00028ecc       _gekk_move_death3          101eaecc     m_gekk.obj
 0003:00028ee0       _gekk_frames_death4        101eaee0     m_gekk.obj
 0003:00029084       _gekk_move_death4          101eb084     m_gekk.obj
 0003:00029098       _gekk_frames_wdeath        101eb098     m_gekk.obj
 0003:000292b4       _gekk_move_wdeath          101eb2b4     m_gekk.obj
 0003:00029408       _gekk_frames_lduck         101eb408     m_gekk.obj
 0003:000294a4       _gekk_move_lduck           101eb4a4     m_gekk.obj
 0003:000294b8       _gekk_frames_rduck         101eb4b8     m_gekk.obj
 0003:00029554       _gekk_move_rduck           101eb554     m_gekk.obj
 0003:00029cb8       _gladb_frames_stand        101ebcb8     m_gladb.obj
 0003:00029d0c       _gladb_move_stand          101ebd0c     m_gladb.obj
 0003:00029d40       _gladb_frames_walk         101ebd40     m_gladb.obj
 0003:00029e00       _gladb_move_walk           101ebe00     m_gladb.obj
 0003:00029e10       _gladb_frames_run          101ebe10     m_gladb.obj
 0003:00029e58       _gladb_move_run            101ebe58     m_gladb.obj
 0003:00029e68       _gladb_frames_attack_melee 101ebe68     m_gladb.obj
 0003:00029f34       _gladb_move_attack_melee   101ebf34     m_gladb.obj
 0003:00029f48       _gladb_frames_attack_gun   101ebf48     m_gladb.obj
 0003:00029fb4       _gladb_move_attack_gun     101ebfb4     m_gladb.obj
 0003:00029fc8       _gladb_frames_pain         101ebfc8     m_gladb.obj
 0003:0002a010       _gladb_move_pain           101ec010     m_gladb.obj
 0003:0002a020       _gladb_frames_pain_air     101ec020     m_gladb.obj
 0003:0002a074       _gladb_move_pain_air       101ec074     m_gladb.obj
 0003:0002a088       _gladb_frames_death        101ec088     m_gladb.obj
 0003:0002a190       _gladb_move_death          101ec190     m_gladb.obj
 0003:0002a488       _gladiator_frames_stand    101ec488     m_gladiator.obj
 0003:0002a4dc       _gladiator_move_stand      101ec4dc     m_gladiator.obj
 0003:0002a510       _gladiator_frames_walk     101ec510     m_gladiator.obj
 0003:0002a5d0       _gladiator_move_walk       101ec5d0     m_gladiator.obj
 0003:0002a5e0       _gladiator_frames_run      101ec5e0     m_gladiator.obj
 0003:0002a628       _gladiator_move_run        101ec628     m_gladiator.obj
 0003:0002a638       _gladiator_frames_attack_melee 101ec638     m_gladiator.obj
 0003:0002a704       _gladiator_move_attack_melee 101ec704     m_gladiator.obj
 0003:0002a718       _gladiator_frames_attack_gun 101ec718     m_gladiator.obj
 0003:0002a784       _gladiator_move_attack_gun 101ec784     m_gladiator.obj
 0003:0002a798       _gladiator_frames_pain     101ec798     m_gladiator.obj
 0003:0002a7e0       _gladiator_move_pain       101ec7e0     m_gladiator.obj
 0003:0002a7f0       _gladiator_frames_pain_air 101ec7f0     m_gladiator.obj
 0003:0002a844       _gladiator_move_pain_air   101ec844     m_gladiator.obj
 0003:0002a858       _gladiator_frames_death    101ec858     m_gladiator.obj
 0003:0002a960       _gladiator_move_death      101ec960     m_gladiator.obj
 0003:0002ac58       _gunner_frames_fidget      101ecc58     m_gunner.obj
 0003:0002aea4       _gunner_move_fidget        101ecea4     m_gunner.obj
 0003:0002aeb4       _gunner_frames_pain3       101eceb4     m_gunner.obj
 0003:0002aef0       _gunner_frames_stand       101ecef0     m_gunner.obj
 0003:0002b058       _gunner_move_stand         101ed058     m_gunner.obj
 0003:0002b068       _gunner_frames_walk        101ed068     m_gunner.obj
 0003:0002b104       _gunner_move_walk          101ed104     m_gunner.obj
 0003:0002b138       _gunner_frames_run         101ed138     m_gunner.obj
 0003:0002b198       _gunner_move_run           101ed198     m_gunner.obj
 0003:0002b1a8       _gunner_frames_runandshoot 101ed1a8     m_gunner.obj
 0003:0002b1f0       _gunner_move_runandshoot   101ed1f0     m_gunner.obj
 0003:0002b200       _gunner_move_pain3         101ed200     m_gunner.obj
 0003:0002b210       _gunner_frames_pain2       101ed210     m_gunner.obj
 0003:0002b270       _gunner_move_pain2         101ed270     m_gunner.obj
 0003:0002b280       _gunner_frames_pain1       101ed280     m_gunner.obj
 0003:0002b358       _gunner_move_pain1         101ed358     m_gunner.obj
 0003:0002b368       _gunner_frames_death       101ed368     m_gunner.obj
 0003:0002b3ec       _gunner_move_death         101ed3ec     m_gunner.obj
 0003:0002b480       _gunner_frames_duck        101ed480     m_gunner.obj
 0003:0002b4e0       _gunner_move_duck          101ed4e0     m_gunner.obj
 0003:0002b4f0       _gunner_frames_attack_chain 101ed4f0     m_gunner.obj
 0003:0002b544       _gunner_move_attack_chain  101ed544     m_gunner.obj
 0003:0002b558       _gunner_frames_fire_chain  101ed558     m_gunner.obj
 0003:0002b5b8       _gunner_move_fire_chain    101ed5b8     m_gunner.obj
 0003:0002b5c8       _gunner_frames_endfire_chain 101ed5c8     m_gunner.obj
 0003:0002b61c       _gunner_move_endfire_chain 101ed61c     m_gunner.obj
 0003:0002b630       _gunner_frames_attack_grenade 101ed630     m_gunner.obj
 0003:0002b72c       _gunner_move_attack_grenade 101ed72c     m_gunner.obj
 0003:0002b740       _gunner_frames_jump        101ed740     m_gunner.obj
 0003:0002b7b8       _gunner_move_jump          101ed7b8     m_gunner.obj
 0003:0002b7c8       _gunner_frames_jump2       101ed7c8     m_gunner.obj
 0003:0002b840       _gunner_move_jump2         101ed840     m_gunner.obj
 0003:0002bc48       _hover_frames_stand        101edc48     m_hover.obj
 0003:0002bdb0       _hover_move_stand          101eddb0     m_hover.obj
 0003:0002bdc0       _hover_frames_pain3        101eddc0     m_hover.obj
 0003:0002be2c       _hover_move_pain3          101ede2c     m_hover.obj
 0003:0002be40       _hover_frames_pain2        101ede40     m_hover.obj
 0003:0002bed0       _hover_move_pain2          101eded0     m_hover.obj
 0003:0002bee0       _hover_frames_pain1        101edee0     m_hover.obj
 0003:0002c030       _hover_move_pain1          101ee030     m_hover.obj
 0003:0002c040       _hover_frames_walk         101ee040     m_hover.obj
 0003:0002c1e4       _hover_move_walk           101ee1e4     m_hover.obj
 0003:0002c1f8       _hover_frames_run          101ee1f8     m_hover.obj
 0003:0002c39c       _hover_move_run            101ee39c     m_hover.obj
 0003:0002c3b0       _hover_frames_death1       101ee3b0     m_hover.obj
 0003:0002c434       _hover_move_death1         101ee434     m_hover.obj
 0003:0002c444       _hover_frames_start_attack 101ee444     m_hover.obj
 0003:0002c468       _hover_move_start_attack   101ee468     m_hover.obj
 0003:0002c478       _hover_frames_attack1      101ee478     m_hover.obj
 0003:0002c49c       _hover_move_attack1        101ee49c     m_hover.obj
 0003:0002c4ac       _hover_frames_end_attack   101ee4ac     m_hover.obj
 0003:0002c4c4       _hover_move_end_attack     101ee4c4     m_hover.obj
 0003:0002c4d4       _hover_frames_start_attack2 101ee4d4     m_hover.obj
 0003:0002c4f8       _hover_move_start_attack2  101ee4f8     m_hover.obj
 0003:0002c508       _hover_frames_attack2      101ee508     m_hover.obj
 0003:0002c52c       _hover_move_attack2        101ee52c     m_hover.obj
 0003:0002c53c       _hover_frames_end_attack2  101ee53c     m_hover.obj
 0003:0002c554       _hover_move_end_attack2    101ee554     m_hover.obj
 0003:0002cca8       _infantry_frames_stand     101eeca8     m_infantry.obj
 0003:0002cdb0       _infantry_move_stand       101eedb0     m_infantry.obj
 0003:0002cdc0       _infantry_frames_fidget    101eedc0     m_infantry.obj
 0003:0002d00c       _infantry_move_fidget      101ef00c     m_infantry.obj
 0003:0002d040       _infantry_frames_walk      101ef040     m_infantry.obj
 0003:0002d0d0       _infantry_move_walk        101ef0d0     m_infantry.obj
 0003:0002d0e0       _infantry_frames_run       101ef0e0     m_infantry.obj
 0003:0002d140       _infantry_move_run         101ef140     m_infantry.obj
 0003:0002d150       _infantry_frames_pain1     101ef150     m_infantry.obj
 0003:0002d1c8       _infantry_move_pain1       101ef1c8     m_infantry.obj
 0003:0002d1d8       _infantry_frames_pain2     101ef1d8     m_infantry.obj
 0003:0002d250       _infantry_move_pain2       101ef250     m_infantry.obj
 0003:0002d260       _aimangles                 101ef260     m_infantry.obj
 0003:0002d2f0       _infantry_frames_death1    101ef2f0     m_infantry.obj
 0003:0002d3e0       _infantry_move_death1      101ef3e0     m_infantry.obj
 0003:0002d3f0       _infantry_frames_death2    101ef3f0     m_infantry.obj
 0003:0002d51c       _infantry_move_death2      101ef51c     m_infantry.obj
 0003:0002d530       _infantry_frames_death3    101ef530     m_infantry.obj
 0003:0002d59c       _infantry_move_death3      101ef59c     m_infantry.obj
 0003:0002d608       _infantry_frames_duck      101ef608     m_infantry.obj
 0003:0002d644       _infantry_move_duck        101ef644     m_infantry.obj
 0003:0002d658       _infantry_frames_attack1   101ef658     m_infantry.obj
 0003:0002d70c       _infantry_move_attack1     101ef70c     m_infantry.obj
 0003:0002d720       _infantry_frames_attack2   101ef720     m_infantry.obj
 0003:0002d780       _infantry_move_attack2     101ef780     m_infantry.obj
 0003:0002d790       _infantry_frames_jump      101ef790     m_infantry.obj
 0003:0002d808       _infantry_move_jump        101ef808     m_infantry.obj
 0003:0002d818       _infantry_frames_jump2     101ef818     m_infantry.obj
 0003:0002d890       _infantry_move_jump2       101ef890     m_infantry.obj
 0003:0002dca0       _insane_frames_stand_normal 101efca0     m_insane.obj
 0003:0002dce8       _insane_move_stand_normal  101efce8     m_insane.obj
 0003:0002dcf8       _insane_frames_stand_insane 101efcf8     m_insane.obj
 0003:0002de60       _insane_move_stand_insane  101efe60     m_insane.obj
 0003:0002de70       _insane_frames_uptodown    101efe70     m_insane.obj
 0003:0002e050       _insane_move_uptodown      101f0050     m_insane.obj
 0003:0002e060       _insane_frames_downtoup    101f0060     m_insane.obj
 0003:0002e144       _insane_move_downtoup      101f0144     m_insane.obj
 0003:0002e154       _insane_frames_jumpdown    101f0154     m_insane.obj
 0003:0002e190       _insane_move_jumpdown      101f0190     m_insane.obj
 0003:0002e1a0       _insane_frames_down        101f01a0     m_insane.obj
 0003:0002e47c       _insane_move_down          101f047c     m_insane.obj
 0003:0002e4a8       _insane_frames_walk_normal 101f04a8     m_insane.obj
 0003:0002e544       _insane_move_walk_normal   101f0544     m_insane.obj
 0003:0002e554       _insane_move_run_normal    101f0554     m_insane.obj
 0003:0002e568       _insane_frames_walk_insane 101f0568     m_insane.obj
 0003:0002e6a0       _insane_move_walk_insane   101f06a0     m_insane.obj
 0003:0002e6b0       _insane_move_run_insane    101f06b0     m_insane.obj
 0003:0002e6c0       _insane_frames_stand_pain  101f06c0     m_insane.obj
 0003:0002e744       _insane_move_stand_pain    101f0744     m_insane.obj
 0003:0002e758       _insane_frames_stand_death 101f0758     m_insane.obj
 0003:0002e824       _insane_move_stand_death   101f0824     m_insane.obj
 0003:0002e838       _insane_frames_crawl       101f0838     m_insane.obj
 0003:0002e8a4       _insane_move_crawl         101f08a4     m_insane.obj
 0003:0002e8b4       _insane_move_runcrawl      101f08b4     m_insane.obj
 0003:0002e8c8       _insane_frames_crawl_pain  101f08c8     m_insane.obj
 0003:0002e934       _insane_move_crawl_pain    101f0934     m_insane.obj
 0003:0002e948       _insane_frames_crawl_death 101f0948     m_insane.obj
 0003:0002e99c       _insane_move_crawl_death   101f099c     m_insane.obj
 0003:0002e9b0       _insane_frames_cross       101f09b0     m_insane.obj
 0003:0002ea64       _insane_move_cross         101f0a64     m_insane.obj
 0003:0002ea78       _insane_frames_struggle_cross 101f0a78     m_insane.obj
 0003:0002eb2c       _insane_move_struggle_cross 101f0b2c     m_insane.obj
 0003:0002f0a4       _reinforcements            101f10a4     m_medic.obj
 0003:0002f0c0       _reinforcement_mins        101f10c0     m_medic.obj
 0003:0002f118       _reinforcement_maxs        101f1118     m_medic.obj
 0003:0002f16c       _reinforcement_position    101f116c     m_medic.obj
 0003:0002f250       _medic_frames_stand        101f1250     m_medic.obj
 0003:0002f688       _medic_move_stand          101f1688     m_medic.obj
 0003:0002f698       _medic_frames_walk         101f1698     m_medic.obj
 0003:0002f728       _medic_move_walk           101f1728     m_medic.obj
 0003:0002f738       _medic_frames_run          101f1738     m_medic.obj
 0003:0002f780       _medic_move_run            101f1780     m_medic.obj
 0003:0002f790       _medic_frames_pain1        101f1790     m_medic.obj
 0003:0002f7f0       _medic_move_pain1          101f17f0     m_medic.obj
 0003:0002f800       _medic_frames_pain2        101f1800     m_medic.obj
 0003:0002f8b4       _medic_move_pain2          101f18b4     m_medic.obj
 0003:0002f900       _medic_frames_death        101f1900     m_medic.obj
 0003:0002fa68       _medic_move_death          101f1a68     m_medic.obj
 0003:0002fb10       _medic_frames_duck         101f1b10     m_medic.obj
 0003:0002fbd0       _medic_move_duck           101f1bd0     m_medic.obj
 0003:0002fbe0       _medic_frames_attackHyperBlaster 101f1be0     m_medic.obj
 0003:0002fca0       _medic_move_attackHyperBlaster 101f1ca0     m_medic.obj
 0003:0002fcb0       _medic_frames_attackBlaster 101f1cb0     m_medic.obj
 0003:0002fd58       _medic_move_attackBlaster  101f1d58     m_medic.obj
 0003:0002fec8       _medic_frames_attackCable  101f1ec8     m_medic.obj
 0003:00030018       _medic_move_attackCable    101f2018     m_medic.obj
 0003:00030028       _medic_frames_callReinforcements 101f2028     m_medic.obj
 0003:00030178       _medic_move_callReinforcements 101f2178     m_medic.obj
 0003:000309a8       _mutant_frames_stand       101f29a8     m_mutant.obj
 0003:00030c0c       _mutant_move_stand         101f2c0c     m_mutant.obj
 0003:00030c1c       _mutant_frames_pain1       101f2c1c     m_mutant.obj
 0003:00030c58       _mutant_frames_idle        101f2c58     m_mutant.obj
 0003:00030cf4       _mutant_move_idle          101f2cf4     m_mutant.obj
 0003:00030d28       _mutant_frames_walk        101f2d28     m_mutant.obj
 0003:00030db8       _mutant_move_walk          101f2db8     m_mutant.obj
 0003:00030dc8       _mutant_frames_start_walk  101f2dc8     m_mutant.obj
 0003:00030df8       _mutant_move_start_walk    101f2df8     m_mutant.obj
 0003:00030e08       _mutant_frames_run         101f2e08     m_mutant.obj
 0003:00030e50       _mutant_move_run           101f2e50     m_mutant.obj
 0003:00030e60       _mutant_frames_attack      101f2e60     m_mutant.obj
 0003:00030eb4       _mutant_move_attack        101f2eb4     m_mutant.obj
 0003:00030ec8       _mutant_frames_jump        101f2ec8     m_mutant.obj
 0003:00030f28       _mutant_move_jump          101f2f28     m_mutant.obj
 0003:00030f38       _mutant_move_pain1         101f2f38     m_mutant.obj
 0003:00030f48       _mutant_frames_pain2       101f2f48     m_mutant.obj
 0003:00030f90       _mutant_move_pain2         101f2f90     m_mutant.obj
 0003:00030fa0       _mutant_frames_pain3       101f2fa0     m_mutant.obj
 0003:00031024       _mutant_move_pain3         101f3024     m_mutant.obj
 0003:00031038       _mutant_frames_death1      101f3038     m_mutant.obj
 0003:000310a4       _mutant_move_death1        101f30a4     m_mutant.obj
 0003:000310b8       _mutant_frames_death2      101f30b8     m_mutant.obj
 0003:00031130       _mutant_move_death2        101f3130     m_mutant.obj
 0003:0003119c       _mutant_frames_jump_up     101f319c     m_mutant.obj
 0003:000311d8       _mutant_move_jump_up       101f31d8     m_mutant.obj
 0003:000311e8       _mutant_frames_jump_down   101f31e8     m_mutant.obj
 0003:00031224       _mutant_move_jump_down     101f3224     m_mutant.obj
 0003:00031578       _parasite_frames_start_fidget 101f3578     m_parasite.obj
 0003:000315a8       _parasite_move_start_fidget 101f35a8     m_parasite.obj
 0003:000315b8       _parasite_frames_fidget    101f35b8     m_parasite.obj
 0003:00031600       _parasite_move_fidget      101f3600     m_parasite.obj
 0003:00031610       _parasite_frames_end_fidget 101f3610     m_parasite.obj
 0003:00031670       _parasite_move_end_fidget  101f3670     m_parasite.obj
 0003:00031680       _parasite_frames_stand     101f3680     m_parasite.obj
 0003:0003174c       _parasite_move_stand       101f374c     m_parasite.obj
 0003:00031780       _parasite_frames_run       101f3780     m_parasite.obj
 0003:000317d4       _parasite_move_run         101f37d4     m_parasite.obj
 0003:000317e4       _parasite_frames_start_run 101f37e4     m_parasite.obj
 0003:000317fc       _parasite_move_start_run   101f37fc     m_parasite.obj
 0003:00031810       _parasite_frames_stop_run  101f3810     m_parasite.obj
 0003:00031858       _parasite_move_stop_run    101f3858     m_parasite.obj
 0003:00031868       _parasite_frames_walk      101f3868     m_parasite.obj
 0003:000318bc       _parasite_move_walk        101f38bc     m_parasite.obj
 0003:000318cc       _parasite_frames_start_walk 101f38cc     m_parasite.obj
 0003:000318e4       _parasite_move_start_walk  101f38e4     m_parasite.obj
 0003:000318f8       _parasite_frames_stop_walk 101f38f8     m_parasite.obj
 0003:00031940       _parasite_move_stop_walk   101f3940     m_parasite.obj
 0003:00031950       _parasite_frames_pain1     101f3950     m_parasite.obj
 0003:000319d4       _parasite_move_pain1       101f39d4     m_parasite.obj
 0003:000319e8       _parasite_frames_drain     101f39e8     m_parasite.obj
 0003:00031ac0       _parasite_move_drain       101f3ac0     m_parasite.obj
 0003:00031ad0       _parasite_frames_break     101f3ad0     m_parasite.obj
 0003:00031c50       _parasite_move_break       101f3c50     m_parasite.obj
 0003:00031c60       _parasite_frames_jump_up   101f3c60     m_parasite.obj
 0003:00031cc0       _parasite_move_jump_up     101f3cc0     m_parasite.obj
 0003:00031cd0       _parasite_frames_jump_down 101f3cd0     m_parasite.obj
 0003:00031d30       _parasite_move_jump_down   101f3d30     m_parasite.obj
 0003:00031d40       _parasite_frames_death     101f3d40     m_parasite.obj
 0003:00031d94       _parasite_move_death       101f3d94     m_parasite.obj
 0003:00032158       _soldier_frames_stand1     101f4158     m_soldier.obj
 0003:000322c0       _soldier_move_stand1       101f42c0     m_soldier.obj
 0003:000322d0       _soldier_frames_stand3     101f42d0     m_soldier.obj
 0003:000324a4       _soldier_move_stand3       101f44a4     m_soldier.obj
 0003:000324b4       _soldier_frames_pain1      101f44b4     m_soldier.obj
 0003:000324f0       _soldier_frames_walk1      101f44f0     m_soldier.obj
 0003:0003267c       _soldier_move_walk1        101f467c     m_soldier.obj
 0003:0003268c       _soldier_frames_duck       101f468c     m_soldier.obj
 0003:000326c8       _soldier_frames_walk2      101f46c8     m_soldier.obj
 0003:00032740       _soldier_move_walk2        101f4740     m_soldier.obj
 0003:00032750       _soldier_frames_start_run  101f4750     m_soldier.obj
 0003:00032768       _soldier_move_start_run    101f4768     m_soldier.obj
 0003:00032778       _soldier_frames_run        101f4778     m_soldier.obj
 0003:000327c0       _soldier_move_run          101f47c0     m_soldier.obj
 0003:000327d0       _soldier_move_pain1        101f47d0     m_soldier.obj
 0003:000327e0       _soldier_frames_pain2      101f47e0     m_soldier.obj
 0003:00032834       _soldier_move_pain2        101f4834     m_soldier.obj
 0003:00032868       _soldier_frames_pain3      101f4868     m_soldier.obj
 0003:00032940       _soldier_move_pain3        101f4940     m_soldier.obj
 0003:00032950       _soldier_frames_pain4      101f4950     m_soldier.obj
 0003:00032a1c       _soldier_move_pain4        101f4a1c     m_soldier.obj
 0003:00032aa0       _soldier_frames_attack1    101f4aa0     m_soldier.obj
 0003:00032b30       _soldier_move_attack1      101f4b30     m_soldier.obj
 0003:00032b40       _soldier_frames_attack2    101f4b40     m_soldier.obj
 0003:00032c18       _soldier_move_attack2      101f4c18     m_soldier.obj
 0003:00032c28       _soldier_frames_attack3    101f4c28     m_soldier.obj
 0003:00032c94       _soldier_move_attack3      101f4c94     m_soldier.obj
 0003:00032ca8       _soldier_frames_attack4    101f4ca8     m_soldier.obj
 0003:00032cf0       _soldier_move_attack4      101f4cf0     m_soldier.obj
 0003:00032d00       _soldier_frames_attack6    101f4d00     m_soldier.obj
 0003:00032da8       _soldier_move_attack6      101f4da8     m_soldier.obj
 0003:00032db8       _soldier_move_duck         101f4db8     m_soldier.obj
 0003:00032dc8       _soldier_frames_death1     101f4dc8     m_soldier.obj
 0003:00032f78       _soldier_move_death1       101f4f78     m_soldier.obj
 0003:00032f88       _soldier_frames_death2     101f4f88     m_soldier.obj
 0003:0003312c       _soldier_move_death2       101f512c     m_soldier.obj
 0003:00033140       _soldier_frames_death3     101f5140     m_soldier.obj
 0003:0003335c       _soldier_move_death3       101f535c     m_soldier.obj
 0003:00033370       _soldier_frames_death4     101f5370     m_soldier.obj
 0003:000335ec       _soldier_move_death4       101f55ec     m_soldier.obj
 0003:00033600       _soldier_frames_death5     101f5600     m_soldier.obj
 0003:00033720       _soldier_move_death5       101f5720     m_soldier.obj
 0003:00033730       _soldier_frames_death6     101f5730     m_soldier.obj
 0003:000337a8       _soldier_move_death6       101f57a8     m_soldier.obj
 0003:00033818       _soldier_frames_blind      101f5818     m_soldier.obj
 0003:00033980       _soldier_move_blind        101f5980     m_soldier.obj
 0003:00033990       _soldierh_frames_stand1    101f5990     m_soldier.obj
 0003:00033af8       _soldierh_move_stand1      101f5af8     m_soldier.obj
 0003:00033b08       _soldierh_frames_stand3    101f5b08     m_soldier.obj
 0003:00033cdc       _soldierh_move_stand3      101f5cdc     m_soldier.obj
 0003:00033cf0       _soldierh_frames_walk1     101f5cf0     m_soldier.obj
 0003:00033e7c       _soldierh_move_walk1       101f5e7c     m_soldier.obj
 0003:00033e90       _soldierh_frames_walk2     101f5e90     m_soldier.obj
 0003:00033f08       _soldierh_move_walk2       101f5f08     m_soldier.obj
 0003:00033f18       _soldierh_frames_start_run 101f5f18     m_soldier.obj
 0003:00033f30       _soldierh_move_start_run   101f5f30     m_soldier.obj
 0003:00033f40       _soldierh_frames_run       101f5f40     m_soldier.obj
 0003:00033f88       _soldierh_move_run         101f5f88     m_soldier.obj
 0003:00033f98       _soldierh_frames_pain1     101f5f98     m_soldier.obj
 0003:00033fd4       _soldierh_move_pain1       101f5fd4     m_soldier.obj
 0003:00033fe8       _soldierh_frames_pain2     101f5fe8     m_soldier.obj
 0003:0003403c       _soldierh_move_pain2       101f603c     m_soldier.obj
 0003:00034050       _soldierh_frames_pain3     101f6050     m_soldier.obj
 0003:00034128       _soldierh_move_pain3       101f6128     m_soldier.obj
 0003:00034138       _soldierh_frames_pain4     101f6138     m_soldier.obj
 0003:00034204       _soldierh_move_pain4       101f6204     m_soldier.obj
 0003:00034258       _soldierh_frames_attack1   101f6258     m_soldier.obj
 0003:000342e8       _soldierh_move_attack1     101f62e8     m_soldier.obj
 0003:00034310       _soldierh_frames_attack2   101f6310     m_soldier.obj
 0003:000343e8       _soldierh_move_attack2     101f63e8     m_soldier.obj
 0003:000343f8       _soldierh_frames_attack3   101f63f8     m_soldier.obj
 0003:00034464       _soldierh_move_attack3     101f6464     m_soldier.obj
 0003:00034478       _soldierh_frames_attack4   101f6478     m_soldier.obj
 0003:000344c0       _soldierh_move_attack4     101f64c0     m_soldier.obj
 0003:000344d0       _soldierh_frames_attack6   101f64d0     m_soldier.obj
 0003:00034578       _soldierh_move_attack6     101f6578     m_soldier.obj
 0003:00034588       _soldierh_frames_duck      101f6588     m_soldier.obj
 0003:000345c4       _soldierh_move_duck        101f65c4     m_soldier.obj
 0003:00034678       _soldierh_frames_death1    101f6678     m_soldier.obj
 0003:00034828       _soldierh_move_death1      101f6828     m_soldier.obj
 0003:00034838       _soldierh_frames_death2    101f6838     m_soldier.obj
 0003:000349dc       _soldierh_move_death2      101f69dc     m_soldier.obj
 0003:000349f0       _soldierh_frames_death3    101f69f0     m_soldier.obj
 0003:00034c0c       _soldierh_move_death3      101f6c0c     m_soldier.obj
 0003:00034c20       _soldierh_frames_death4    101f6c20     m_soldier.obj
 0003:00034e9c       _soldierh_move_death4      101f6e9c     m_soldier.obj
 0003:00034eb0       _soldierh_frames_death5    101f6eb0     m_soldier.obj
 0003:00034fd0       _soldierh_move_death5      101f6fd0     m_soldier.obj
 0003:00034fe0       _soldierh_frames_death6    101f6fe0     m_soldier.obj
 0003:00035058       _soldierh_move_death6      101f7058     m_soldier.obj
 0003:00035f80       _stalker_frames_idle       101f7f80     m_stalker.obj
 0003:0003607c       _stalker_move_idle         101f807c     m_stalker.obj
 0003:0003608c       _stalker_frames_swing_r    101f808c     m_stalker.obj
 0003:000360c8       _stalker_frames_idle2      101f80c8     m_stalker.obj
 0003:00036164       _stalker_move_idle2        101f8164     m_stalker.obj
 0003:00036198       _stalker_frames_stand      101f8198     m_stalker.obj
 0003:00036294       _stalker_move_stand        101f8294     m_stalker.obj
 0003:000362a4       _stalker_frames_run        101f82a4     m_stalker.obj
 0003:000362d4       _stalker_move_run          101f82d4     m_stalker.obj
 0003:000362e8       _stalker_frames_walk       101f82e8     m_stalker.obj
 0003:00036348       _stalker_move_walk         101f8348     m_stalker.obj
 0003:00036358       _stalker_frames_reactivate 101f8358     m_stalker.obj
 0003:00036388       _stalker_move_false_death_end 101f8388     m_stalker.obj
 0003:00036398       _stalker_frames_false_death 101f8398     m_stalker.obj
 0003:00036410       _stalker_move_false_death  101f8410     m_stalker.obj
 0003:00036420       _stalker_frames_false_death_start 101f8420     m_stalker.obj
 0003:0003648c       _stalker_move_false_death_start 101f848c     m_stalker.obj
 0003:0003649c       _stalker_frames_pain       101f849c     m_stalker.obj
 0003:000364cc       _stalker_move_pain         101f84cc     m_stalker.obj
 0003:000364dc       _stalker_frames_shoot      101f84dc     m_stalker.obj
 0003:0003650c       _stalker_move_shoot        101f850c     m_stalker.obj
 0003:00036520       _stalker_frames_swing_l    101f8520     m_stalker.obj
 0003:00036580       _stalker_move_swing_l      101f8580     m_stalker.obj
 0003:00036590       _stalker_move_swing_r      101f8590     m_stalker.obj
 0003:000365a0       _stalker_frames_jump_straightup 101f85a0     m_stalker.obj
 0003:000365d0       _stalker_move_jump_straightup 101f85d0     m_stalker.obj
 0003:000365e0       _stalker_frames_dodge_run  101f85e0     m_stalker.obj
 0003:00036610       _stalker_move_dodge_run    101f8610     m_stalker.obj
 0003:00036620       _stalker_frames_jump_up    101f8620     m_stalker.obj
 0003:00036674       _stalker_move_jump_up      101f8674     m_stalker.obj
 0003:00036688       _stalker_frames_jump_down  101f8688     m_stalker.obj
 0003:000366dc       _stalker_move_jump_down    101f86dc     m_stalker.obj
 0003:000366f0       _stalker_frames_death      101f86f0     m_stalker.obj
 0003:0003675c       _stalker_move_death        101f875c     m_stalker.obj
 0003:00036a88       _supertank_frames_stand    101f8a88     m_supertank.obj
 0003:00036d58       _supertank_move_stand      101f8d58     m_supertank.obj
 0003:00036d68       _supertank_frames_run      101f8d68     m_supertank.obj
 0003:00036e40       _supertank_move_run        101f8e40     m_supertank.obj
 0003:00036e50       _supertank_frames_forward  101f8e50     m_supertank.obj
 0003:00036f28       _supertank_move_forward    101f8f28     m_supertank.obj
 0003:00036f38       _supertank_frames_turn_right 101f8f38     m_supertank.obj
 0003:00037010       _supertank_move_turn_right 101f9010     m_supertank.obj
 0003:00037020       _supertank_frames_turn_left 101f9020     m_supertank.obj
 0003:000370f8       _supertank_move_turn_left  101f90f8     m_supertank.obj
 0003:00037108       _supertank_frames_pain3    101f9108     m_supertank.obj
 0003:00037138       _supertank_move_pain3      101f9138     m_supertank.obj
 0003:00037148       _supertank_frames_pain2    101f9148     m_supertank.obj
 0003:00037178       _supertank_move_pain2      101f9178     m_supertank.obj
 0003:00037188       _supertank_frames_pain1    101f9188     m_supertank.obj
 0003:000371b8       _supertank_move_pain1      101f91b8     m_supertank.obj
 0003:000371c8       _supertank_frames_death1   101f91c8     m_supertank.obj
 0003:000372e8       _supertank_move_death      101f92e8     m_supertank.obj
 0003:000372f8       _supertank_frames_backward 101f92f8     m_supertank.obj
 0003:000373d0       _supertank_move_backward   101f93d0     m_supertank.obj
 0003:000373e0       _supertank_frames_attack4  101f93e0     m_supertank.obj
 0003:00037428       _supertank_move_attack4    101f9428     m_supertank.obj
 0003:00037438       _supertank_frames_attack3  101f9438     m_supertank.obj
 0003:0003757c       _supertank_move_attack3    101f957c     m_supertank.obj
 0003:000375b0       _supertank_frames_attack2  101f95b0     m_supertank.obj
 0003:000376f4       _supertank_move_attack2    101f96f4     m_supertank.obj
 0003:00037708       _supertank_frames_attack1  101f9708     m_supertank.obj
 0003:00037750       _supertank_move_attack1    101f9750     m_supertank.obj
 0003:00037760       _supertank_frames_end_attack1 101f9760     m_supertank.obj
 0003:00037808       _supertank_move_end_attack1 101f9808     m_supertank.obj
 0003:00037d20       _tank_frames_stand         101f9d20     m_tank.obj
 0003:00037e88       _tank_move_stand           101f9e88     m_tank.obj
 0003:00037e98       _tank_frames_start_walk    101f9e98     m_tank.obj
 0003:00037ec8       _tank_move_start_walk      101f9ec8     m_tank.obj
 0003:00037ed8       _tank_frames_walk          101f9ed8     m_tank.obj
 0003:00037f98       _tank_move_walk            101f9f98     m_tank.obj
 0003:00037fa8       _tank_frames_stop_walk     101f9fa8     m_tank.obj
 0003:00037fe4       _tank_move_stop_walk       101f9fe4     m_tank.obj
 0003:00037ff4       _tank_frames_start_run     101f9ff4     m_tank.obj
 0003:00038024       _tank_move_start_run       101fa024     m_tank.obj
 0003:00038034       _tank_frames_stop_run      101fa034     m_tank.obj
 0003:00038070       _tank_frames_run           101fa070     m_tank.obj
 0003:00038130       _tank_move_run             101fa130     m_tank.obj
 0003:00038140       _tank_move_stop_run        101fa140     m_tank.obj
 0003:00038150       _tank_frames_pain1         101fa150     m_tank.obj
 0003:00038180       _tank_move_pain1           101fa180     m_tank.obj
 0003:00038190       _tank_frames_pain2         101fa190     m_tank.obj
 0003:000381cc       _tank_move_pain2           101fa1cc     m_tank.obj
 0003:00038200       _tank_frames_pain3         101fa200     m_tank.obj
 0003:000382c0       _tank_move_pain3           101fa2c0     m_tank.obj
 0003:000382f0       _tank_frames_attack_blast  101fa2f0     m_tank.obj
 0003:000383b0       _tank_move_attack_blast    101fa3b0     m_tank.obj
 0003:000383c0       _tank_frames_reattack_blast 101fa3c0     m_tank.obj
 0003:00038408       _tank_move_reattack_blast  101fa408     m_tank.obj
 0003:00038418       _tank_frames_attack_post_blast 101fa418     m_tank.obj
 0003:00038460       _tank_move_attack_post_blast 101fa460     m_tank.obj
 0003:00038470       _tank_frames_attack_strike 101fa470     m_tank.obj
 0003:00038638       _tank_move_attack_strike   101fa638     m_tank.obj
 0003:00038648       _tank_frames_attack_pre_rocket 101fa648     m_tank.obj
 0003:00038744       _tank_move_attack_pre_rocket 101fa744     m_tank.obj
 0003:00038758       _tank_frames_attack_fire_rocket 101fa758     m_tank.obj
 0003:000387c4       _tank_move_attack_fire_rocket 101fa7c4     m_tank.obj
 0003:000387d8       _tank_frames_attack_post_rocket 101fa7d8     m_tank.obj
 0003:000388ec       _tank_move_attack_post_rocket 101fa8ec     m_tank.obj
 0003:00038900       _tank_frames_attack_chain  101fa900     m_tank.obj
 0003:00038a5c       _tank_move_attack_chain    101faa5c     m_tank.obj
 0003:00038a70       _tank_frames_death1        101faa70     m_tank.obj
 0003:00038bf0       _tank_move_death           101fabf0     m_tank.obj
 0003:00039204       _turret_frames_stand       101fb204     m_turret.obj
 0003:0003921c       _turret_move_stand         101fb21c     m_turret.obj
 0003:00039238       _turret_frames_ready_gun   101fb238     m_turret.obj
 0003:0003928c       _turret_move_ready_gun     101fb28c     m_turret.obj
 0003:0003929c       _turret_frames_seek        101fb29c     m_turret.obj
 0003:000392b4       _turret_move_seek          101fb2b4     m_turret.obj
 0003:000392c4       _turret_frames_run         101fb2c4     m_turret.obj
 0003:000392dc       _turret_move_run           101fb2dc     m_turret.obj
 0003:00039304       _turret_frames_fire        101fb304     m_turret.obj
 0003:00039334       _turret_move_fire          101fb334     m_turret.obj
 0003:00039344       _turret_frames_fire_blind  101fb344     m_turret.obj
 0003:00039374       _turret_move_fire_blind    101fb374     m_turret.obj
 0003:000396cc       _stalker_mins              101fb6cc     m_widow.obj
 0003:000396d8       _stalker_maxs              101fb6d8     m_widow.obj
 0003:00039718       _widow_frames_stand        101fb718     m_widow.obj
 0003:0003979c       _widow_move_stand          101fb79c     m_widow.obj
 0003:000397b0       _widow_frames_walk         101fb7b0     m_widow.obj
 0003:0003984c       _widow_move_walk           101fb84c     m_widow.obj
 0003:00039860       _widow_frames_run          101fb860     m_widow.obj
 0003:000398fc       _widow_move_run            101fb8fc     m_widow.obj
 0003:00039920       _widow_frames_run_attack   101fb920     m_widow.obj
 0003:00039980       _widow_move_run_attack     101fb980     m_widow.obj
 0003:00039990       _widow_frames_attack_pre_blaster 101fb990     m_widow.obj
 0003:000399b4       _widow_move_attack_pre_blaster 101fb9b4     m_widow.obj
 0003:000399c8       _widow_frames_attack_blaster 101fb9c8     m_widow.obj
 0003:00039aac       _widow_move_attack_blaster 101fbaac     m_widow.obj
 0003:00039abc       _widow_frames_attack_post_blaster 101fbabc     m_widow.obj
 0003:00039ad4       _widow_move_attack_post_blaster 101fbad4     m_widow.obj
 0003:00039ae4       _widow_frames_attack_post_blaster_r 101fbae4     m_widow.obj
 0003:00039b20       _widow_move_attack_post_blaster_r 101fbb20     m_widow.obj
 0003:00039b30       _widow_frames_attack_post_blaster_l 101fbb30     m_widow.obj
 0003:00039b6c       _widow_move_attack_post_blaster_l 101fbb6c     m_widow.obj
 0003:00039b7c       _widow_frames_attack_pre_rail 101fbb7c     m_widow.obj
 0003:00039bac       _widow_move_attack_pre_rail 101fbbac     m_widow.obj
 0003:00039bc0       _widow_frames_attack_rail  101fbbc0     m_widow.obj
 0003:00039c2c       _widow_move_attack_rail    101fbc2c     m_widow.obj
 0003:00039c40       _widow_frames_attack_rail_r 101fbc40     m_widow.obj
 0003:00039cac       _widow_move_attack_rail_r  101fbcac     m_widow.obj
 0003:00039cc0       _widow_frames_attack_rail_l 101fbcc0     m_widow.obj
 0003:00039d2c       _widow_move_attack_rail_l  101fbd2c     m_widow.obj
 0003:00039d40       _widow_frames_spawn        101fbd40     m_widow.obj
 0003:00039e18       _widow_move_spawn          101fbe18     m_widow.obj
 0003:00039e28       _widow_frames_pain_heavy   101fbe28     m_widow.obj
 0003:00039ec4       _widow_move_pain_heavy     101fbec4     m_widow.obj
 0003:00039ed4       _widow_frames_pain_light   101fbed4     m_widow.obj
 0003:00039ef8       _widow_move_pain_light     101fbef8     m_widow.obj
 0003:00039f20       _widow_frames_death        101fbf20     m_widow.obj
 0003:0003a094       _widow_move_death          101fc094     m_widow.obj
 0003:0003a0a8       _widow_frames_attack_kick  101fc0a8     m_widow.obj
 0003:0003a108       _widow_move_attack_kick    101fc108     m_widow.obj
 0003:0003a7ec       _widow2_frames_stand       101fc7ec     m_widow2.obj
 0003:0003a868       _widow2_move_stand         101fc868     m_widow2.obj
 0003:0003a878       _widow2_frames_walk        101fc878     m_widow2.obj
 0003:0003a8e4       _widow2_move_walk          101fc8e4     m_widow2.obj
 0003:0003a8f4       _widow2_frames_attack_beam 101fc8f4     m_widow2.obj
 0003:0003a930       _widow2_frames_run         101fc930     m_widow2.obj
 0003:0003a99c       _widow2_move_run           101fc99c     m_widow2.obj
 0003:0003a9ac       _widow2_frames_attack_pre_beam 101fc9ac     m_widow2.obj
 0003:0003a9dc       _widow2_move_attack_pre_beam 101fc9dc     m_widow2.obj
 0003:0003a9ec       _widow2_move_attack_beam   101fc9ec     m_widow2.obj
 0003:0003a9fc       _widow2_frames_attack_post_beam 101fc9fc     m_widow2.obj
 0003:0003aa20       _widow2_move_attack_post_beam 101fca20     m_widow2.obj
 0003:0003aa30       _widow2_frames_attack_disrupt 101fca30     m_widow2.obj
 0003:0003aa84       _widow2_move_attack_disrupt 101fca84     m_widow2.obj
 0003:0003aa94       _widow2_frames_pain        101fca94     m_widow2.obj
 0003:0003aad0       _widow2_frames_spawn       101fcad0     m_widow2.obj
 0003:0003aba8       _widow2_move_spawn         101fcba8     m_widow2.obj
 0003:0003abb8       _widow2_frames_tongs       101fcbb8     m_widow2.obj
 0003:0003ac18       _widow2_move_tongs         101fcc18     m_widow2.obj
 0003:0003ac28       _widow2_move_pain          101fcc28     m_widow2.obj
 0003:0003ac38       _widow2_frames_death       101fcc38     m_widow2.obj
 0003:0003ae48       _widow2_move_death         101fce48     m_widow2.obj
 0003:0003ae58       _widow2_frames_dead        101fce58     m_widow2.obj
 0003:0003af0c       _widow2_move_dead          101fcf0c     m_widow2.obj
 0003:0003af40       _widow2_frames_really_dead 101fcf40     m_widow2.obj
 0003:0003af94       _widow2_move_really_dead   101fcf94     m_widow2.obj
 0003:0003f9b0       _sentien_frames_stand1     102019b0     z_sentien.obj
 0003:0003fb0c       _sentien_frames_pre_laser_attack 10201b0c     z_sentien.obj
 0003:0003fb48       _sentien_frames_stand2     10201b48     z_sentien.obj
 0003:0003fc38       _sentien_frames_stand3     10201c38     z_sentien.obj
 0003:0003fdb8       _sentien_move_stand1       10201db8     z_sentien.obj
 0003:0003fdc8       _sentien_move_stand2       10201dc8     z_sentien.obj
 0003:0003fdd8       _sentien_move_stand3       10201dd8     z_sentien.obj
 0003:0003fde8       _sentien_frames_walk_start 10201de8     z_sentien.obj
 0003:0003fe48       _sentien_frames_walk       10201e48     z_sentien.obj
 0003:0003ff08       _sentien_frames_walk_end   10201f08     z_sentien.obj
 0003:0003ff68       _sentien_move_walk_start   10201f68     z_sentien.obj
 0003:0003ff78       _sentien_move_walk         10201f78     z_sentien.obj
 0003:0003ff88       _sentien_move_walk_end     10201f88     z_sentien.obj
 0003:0003ff98       _sentien_frames_run_start  10201f98     z_sentien.obj
 0003:0003fff8       _sentien_frames_run        10201ff8     z_sentien.obj
 0003:000400b8       _sentien_frames_run_end    102020b8     z_sentien.obj
 0003:00040118       _sentien_move_run_start    10202118     z_sentien.obj
 0003:00040128       _sentien_move_run          10202128     z_sentien.obj
 0003:00040138       _sentien_move_run_end      10202138     z_sentien.obj
 0003:00040148       _sentien_frames_pre_blast_attack 10202148     z_sentien.obj
 0003:00040178       _sentien_frames_blast_attack 10202178     z_sentien.obj
 0003:000401c0       _sentien_frames_post_blast_attack 102021c0     z_sentien.obj
 0003:000401f0       _sentien_move_pre_blast_attack 102021f0     z_sentien.obj
 0003:00040200       _sentien_move_blast_attack 10202200     z_sentien.obj
 0003:00040210       _sentien_move_post_blast_attack 10202210     z_sentien.obj
 0003:00040220       _sentien_flash_offset      10202220     z_sentien.obj
 0003:00040298       _sentien_frames_laser_attack 10202298     z_sentien.obj
 0003:0004031c       _sentien_frames_post_laser_attack 1020231c     z_sentien.obj
 0003:0004034c       _sentien_move_pre_laser_attack 1020234c     z_sentien.obj
 0003:0004035c       _sentien_move_laser_attack 1020235c     z_sentien.obj
 0003:0004036c       _sentien_move_post_laser_attack 1020236c     z_sentien.obj
 0003:00040380       _sentien_laser_offset      10202380     z_sentien.obj
 0003:00040408       _sentien_frames_fend       10202408     z_sentien.obj
 0003:000404bc       _sentien_move_fend         102024bc     z_sentien.obj
 0003:000404cc       _sentien_frames_pain1      102024cc     z_sentien.obj
 0003:00040500       _sentien_frames_pain2      10202500     z_sentien.obj
 0003:00040548       _sentien_frames_pain3      10202548     z_sentien.obj
 0003:00040644       _sentien_move_pain1        10202644     z_sentien.obj
 0003:00040654       _sentien_move_pain2        10202654     z_sentien.obj
 0003:00040664       _sentien_move_pain3        10202664     z_sentien.obj
 0003:00040678       _sentien_frames_death1     10202678     z_sentien.obj
 0003:000407c8       _sentien_frames_death2     102027c8     z_sentien.obj
 0003:00040924       _sentien_move_death1       10202924     z_sentien.obj
 0003:00040934       _sentien_move_death2       10202934     z_sentien.obj
 0003:00040944       _sentien_death_offset      10202944     z_sentien.obj
 0003:00040f38       __fltused                  10202f38     LIBCMTD:_fpinit_.obj
 0003:00040f3c       __ldused                   10202f3c     LIBCMTD:_fpinit_.obj
 0003:00040f40       ___security_cookie         10202f40     LIBCMTD:gs_cookie.obj
 0003:00040f44       ___security_cookie_complement 10202f44     LIBCMTD:gs_cookie.obj
 0003:00040fb0       __half                     10202fb0     LIBCMTD:_pow_.obj
 0003:0004102c       __cfltcvt_tab              1020302c     LIBCMTD:cmiscdat.obj
 0003:00041058       ___flsindex                10203058     LIBCMTD:tidtable.obj
 0003:0004105c       ___getvalueindex           1020305c     LIBCMTD:tidtable.obj
 0003:00041060       __infinity                 10203060     LIBCMTD:_87tran_.obj
 0003:0004106a       __minfinity                1020306a     LIBCMTD:_87tran_.obj
 0003:00041074       __logemax                  10203074     LIBCMTD:_87tran_.obj
 0003:0004109a       __OP_EXPjmptab             1020309a     LIBCMTD:_87tran_.obj
 0003:000410c0       __indefinite               102030c0     LIBCMTD:_87disp_.obj
 0003:000410ca       __piby2                    102030ca     LIBCMTD:_87disp_.obj
 0003:000410f0       __crtDbgFlag               102030f0     LIBCMTD:dbgheap.obj
 0003:000410f4       ___crtDebugFillThreshold   102030f4     LIBCMTD:dbgheap.obj
 0003:000410fc       __crtBreakAlloc            102030fc     LIBCMTD:dbgheap.obj
 0003:0004127c       ___nullstring              1020327c     LIBCMTD:output.obj
 0003:00041280       ___wnullstring             10203280     LIBCMTD:output.obj
 0003:00041370       __d_inf                    10203370     LIBCMTD:_util_.obj
 0003:00041378       __d_ind                    10203378     LIBCMTD:_util_.obj
 0003:00041380       __d_max                    10203380     LIBCMTD:_util_.obj
 0003:00041388       __d_min                    10203388     LIBCMTD:_util_.obj
 0003:00041390       __d_mzero                  10203390     LIBCMTD:_util_.obj
 0003:000413b8       ___initialmbcinfo          102033b8     LIBCMTD:mbctype.obj
 0003:000415d8       __mbctype                  102035d8     LIBCMTD:mbctype.obj
 0003:000416e0       __mbcasemap                102036e0     LIBCMTD:mbctype.obj
 0003:000417e0       ___ptmbcinfo               102037e0     LIBCMTD:mbctype.obj
 0003:000418dc       ___globallocalestatus      102038dc     LIBCMTD:glstatus.obj
 0003:000418e0       ___clocalestr              102038e0     LIBCMTD:nlsdata2.obj
 0003:000418e8       ___initiallocinfo          102038e8     LIBCMTD:nlsdata2.obj
 0003:000419c0       ___ptlocinfo               102039c0     LIBCMTD:nlsdata2.obj
 0003:000419c4       ___lc_clike                102039c4     LIBCMTD:nlsdata2.obj
 0003:000419c8       ___initiallocalestructinfo 102039c8     LIBCMTD:nlsdata2.obj
 0003:000419e8       __timezone                 102039e8     LIBCMTD:timeset.obj
 0003:000419ec       __daylight                 102039ec     LIBCMTD:timeset.obj
 0003:000419f0       __dstbias                  102039f0     LIBCMTD:timeset.obj
 0003:00041a78       __tzname                   10203a78     LIBCMTD:timeset.obj
 0003:00041a80       __iob                      10203a80     LIBCMTD:_file.obj
 0003:00041d00       __lookuptrailbytes         10203d00     LIBCMTD:read.obj
 0003:00041e00       ___badioinfo               10203e00     LIBCMTD:ioinit.obj
 0003:00041f60       __OP_ATAN2jmptab           10203f60     LIBCMTD:_87triga_.obj
 0003:00041fb0       __aexit_rtn                10203fb0     LIBCMTD:crt0dat.obj
 0003:00041fb4       ___abort_behavior          10203fb4     LIBCMTD:abort.obj
 0003:00041fb8       __amblksiz                 10203fb8     LIBCMTD:heapinit.obj
 0003:00041fbc       __First_FPE_Indx           10203fbc     LIBCMTD:winxfltr.obj
 0003:00041fc0       __Num_FPE                  10203fc0     LIBCMTD:winxfltr.obj
 0003:00041fc4       __XcptActTabSize           10203fc4     LIBCMTD:winxfltr.obj
 0003:00041fc8       __XcptActTabCount          10203fc8     LIBCMTD:winxfltr.obj
 0003:00041fd0       __pfnAllocHook             10203fd0     LIBCMTD:dbghook.obj
 0003:00041fd4       __matherr_flag             10203fd4     LIBCMTD:_matherr_.obj
 0003:00042150       __crtAssertBusy            10204150     LIBCMTD:dbgrptt.obj
 0003:00042154       __CrtDbgMode               10204154     LIBCMTD:dbgrptt.obj
 0003:00042160       __CrtDbgFile               10204160     LIBCMTD:dbgrptt.obj
 0003:000421a0       __pctype                   102041a0     LIBCMTD:ctype.obj
 0003:000421a4       __pwctype                  102041a4     LIBCMTD:ctype.obj
 0003:000421a8       ___lc_time_c               102041a8     LIBCMTD:strftime.obj
 0003:00042260       ___lc_time_curr            10204260     LIBCMTD:strftime.obj
 0003:00042264       ___lconv_static_decimal    10204264     LIBCMTD:lconv.obj
 0003:00042268       ___lconv_c                 10204268     LIBCMTD:lconv.obj
 0003:00042298       ___lconv                   10204298     LIBCMTD:lconv.obj
 0003:0004229c       ___mb_cur_max              1020429c     LIBCMTD:nlsdata1.obj
 0003:000422a0       ___decimal_point           102042a0     LIBCMTD:nlsdata1.obj
 0003:000422a4       ___decimal_point_length    102042a4     LIBCMTD:nlsdata1.obj
 0003:000422b0       __pow10pos                 102042b0     LIBCMTD:_constpow_.obj
 0003:00042410       __pow10neg                 10204410     LIBCMTD:_constpow_.obj
 0003:0004256c       __lpdays                   1020456c     LIBCMTD:days.obj
 0003:000425a0       __days                     102045a0     LIBCMTD:days.obj
 0003:000425d8       __NLG_Destination          102045d8     LIBCMTD:exsup.obj
 0003:000426a4       ??_R0?AVbad_exception@std@@@8 102046a4     LIBCMTD:frame.obj
 0003:000426c4       ??_R0?AVexception@std@@@8  102046c4     LIBCMTD:frame.obj
 0003:000426e0       ?_RTC_ErrorLevels@@3PAHA   102046e0     LIBCMTD:_error_.obj
 0003:000426f4       __coninpfh                 102046f4     LIBCMTD:initcon.obj
 0003:000426f8       __confh                    102046f8     LIBCMTD:initcon.obj
 0003:00042700       ??_R0?AVtype_info@@@8      10204700     LIBCMTD:typinfo.obj
 0003:0004271c       ??_R0?AVbad_cast@std@@@8   1020471c     LIBCMTD:stdexcpt.obj
 0003:00042738       ??_R0?AVbad_typeid@std@@@8 10204738     LIBCMTD:stdexcpt.obj
 0003:00042758       ??_R0?AV__non_rtti_object@std@@@8 10204758     LIBCMTD:stdexcpt.obj
 0003:00042fc0       _dball_ball_entity         10204fc0     dm_ball.obj
 0003:00043230       _nostatus                  10205230     g_cmds.obj
 0003:000432f4       _gibsthisframe             102052f4     g_misc.obj
 0003:000432f8       _lastgibframe              102052f8     g_misc.obj
 0003:00043318       _hFMOD                     10205318     g_sound.obj
 0003:00043320       _nohud                     10205320     g_spawn.obj
 0003:00043a84       _trail_active              10205a84     p_trail.obj
 0003:00044304       _vec3_origin               10206304     q_shared.obj
 0003:000444fc       ___fastflag                102064fc     LIBCMTD:_fpinit_.obj
 0003:00044500       __adjust_fdiv              10206500     LIBCMTD:_fpinit_.obj
 0003:00044508       __aenvptr                  10206508     LIBCMTD:dllcrt0.obj
 0003:0004450c       __wenvptr                  1020650c     LIBCMTD:dllcrt0.obj
 0003:00044510       ___error_mode              10206510     LIBCMTD:dllcrt0.obj
 0003:00044514       ___app_type                10206514     LIBCMTD:dllcrt0.obj
 0003:00044840       _gpFlsAlloc                10206840     LIBCMTD:tidtable.obj
 0003:00044844       _gpFlsGetValue             10206844     LIBCMTD:tidtable.obj
 0003:00044848       _gpFlsSetValue             10206848     LIBCMTD:tidtable.obj
 0003:0004484c       _gpFlsFree                 1020684c     LIBCMTD:tidtable.obj
 0003:00044864       ?_pfnDumpClient@@3P6AXPAXI@ZA 10206864     LIBCMTD:dbgheap.obj
 0003:0004486c       ___crtDebugCheckCount      1020686c     LIBCMTD:dbgheap.obj
 0003:00044874       __newmode                  10206874     LIBCMTD:_newmode.obj
 0003:00044878       ___pInvalidArgHandler      10206878     LIBCMTD:invarg.obj
 0003:00044880       ___mbulinfo                10206880     LIBCMTD:mbctype.obj
 0003:0004488c       ___mbcodepage              1020688c     LIBCMTD:mbctype.obj
 0003:00044890       ___ismbcodepage            10206890     LIBCMTD:mbctype.obj
 0003:00044894       ___mblcid                  10206894     LIBCMTD:mbctype.obj
 0003:00044898       ___locale_changed          10206898     LIBCMTD:setlocal.obj
 0003:0004489c       ___lc_handle               1020689c     LIBCMTD:nlsdata2.obj
 0003:000448b4       ___lc_codepage             102068b4     LIBCMTD:nlsdata2.obj
 0003:000448b8       ___lc_collate_cp           102068b8     LIBCMTD:nlsdata2.obj
 0003:00044978       __cflush                   10206978     LIBCMTD:_file.obj
 0003:0004497c       __stdbuf                   1020697c     LIBCMTD:_sftbuf.obj
 0003:00044af0       __umaskval                 10206af0     LIBCMTD:crt0dat.obj
 0003:00044af4       ___argc                    10206af4     LIBCMTD:crt0dat.obj
 0003:00044af8       ___argv                    10206af8     LIBCMTD:crt0dat.obj
 0003:00044afc       ___wargv                   10206afc     LIBCMTD:crt0dat.obj
 0003:00044b00       __environ                  10206b00     LIBCMTD:crt0dat.obj
 0003:00044b04       ___initenv                 10206b04     LIBCMTD:crt0dat.obj
 0003:00044b08       __wenviron                 10206b08     LIBCMTD:crt0dat.obj
 0003:00044b0c       ___winitenv                10206b0c     LIBCMTD:crt0dat.obj
 0003:00044b10       __pgmptr                   10206b10     LIBCMTD:crt0dat.obj
 0003:00044b14       __wpgmptr                  10206b14     LIBCMTD:crt0dat.obj
 0003:00044b18       __exitflag                 10206b18     LIBCMTD:crt0dat.obj
 0003:00044b1c       __C_Termination_Done       10206b1c     LIBCMTD:crt0dat.obj
 0003:00044b20       __C_Exit_Done              10206b20     LIBCMTD:crt0dat.obj
 0003:00044c5c       __crtheap                  10206c5c     LIBCMTD:heapinit.obj
 0003:00044c60       __outputformat             10206c60     LIBCMTD:outputformat.obj
 0003:00044c64       ?_pnhHeap@@3P6AHI@ZA       10206c64     LIBCMTD:handler.obj
 0003:00044c70       ___sbh_pHeaderDefer        10206c70     LIBCMTD:sbheap.obj
 0003:00044c80       ___lconv_static_null       10206c80     LIBCMTD:lconv.obj
 0003:00044c84       __commode                  10206c84     LIBCMTD:ncommode.obj
 0003:00044fa4       ?__pInconsistency@@3P6AXXZA 10206fa4     LIBCMTD:hooks.obj
 0003:00044fb4       ___pPurecall               10206fb4     LIBCMTD:inithelp.obj
 0003:00044fcc       ?wsprintffp@@3P6AHPADPBDZZA 10206fcc     LIBCMTD:_error_.obj
 0003:00044fec       __fmode                    10206fec     LIBCMTD:txtmode.obj
 0003:0004500c       ?pArgList@UnDecorator@@0PAVReplicator@@A 1020700c     LIBCMTD:undname.obj
 0003:00045010       ?pZNameList@UnDecorator@@0PAVReplicator@@A 10207010     LIBCMTD:undname.obj
 0003:00045014       ?pTemplateArgList@UnDecorator@@0PAVReplicator@@A 10207014     LIBCMTD:undname.obj
 0003:00045018       ?gName@UnDecorator@@0PBDB  10207018     LIBCMTD:undname.obj
 0003:0004501c       ?name@UnDecorator@@0PBDB   1020701c     LIBCMTD:undname.obj
 0003:00045020       ?outputString@UnDecorator@@0PADA 10207020     LIBCMTD:undname.obj
 0003:00045024       ?maxStringLength@UnDecorator@@0HA 10207024     LIBCMTD:undname.obj
 0003:00045028       ?disableFlags@UnDecorator@@0KA 10207028     LIBCMTD:undname.obj
 0003:0004502c       ?m_pGetParameter@UnDecorator@@0P6APADJ@ZA 1020702c     LIBCMTD:undname.obj
 0003:00045030       ?fExplicitTemplateParams@UnDecorator@@0_NA 10207030     LIBCMTD:undname.obj
 0003:00045031       ?fGetTemplateArgumentList@UnDecorator@@0_NA 10207031     LIBCMTD:undname.obj
 0003:00045088       ?nodes@?1??make@DNameStatusNode@@SAPAV2@W4DNameStatus@@@Z@4PAV2@A 10207088     LIBCMTD:undname.obj
 0003:000450b8       ??_B?1??make@DNameStatusNode@@SAPAV1@W4DNameStatus@@@Z@51 102070b8     LIBCMTD:undname.obj
 0003:000450bc       __LittleLong               102070bc     <common>
 0003:000450f0       _paged_total               102070f0     <common>
 0003:000450f4       __LittleFloat              102070f4     <common>
 0003:00045100       _com_token                 10207100     <common>
 0003:00045180       _i                         10207180     <common>
 0003:00045184       __LittleShort              10207184     <common>
 0003:00045188       __BigShort                 10207188     <common>
 0003:0004518c       __BigLong                  1020718c     <common>
 0003:00045190       __BigFloat                 10207190     <common>
 0003:00045194       _bigendien                 10207194     <common>
 0003:000451a0       _corners                   102071a0     <common>
 0003:000451b8       _is_quad                   102071b8     <common>
 0003:000451c8       _is_double                 102071c8     <common>
 0003:000451cc       _bobfracsin                102071cc     <common>
 0003:000451dc       _xyspeed                   102071dc     <common>
 0003:000451e0       _bobmove                   102071e0     <common>
 0003:000451e4       _bobcycle                  102071e4     <common>
 0003:000451e8       _trail_head                102071e8     <common>
 0003:00045200       _trail                     10207200     <common>
 0003:00045220       _text                      10207220     <common>
 0003:0004529c       _pm_passent                1020729c     <common>
 0003:000452a8       _widow_damage_multiplier   102072a8     <common>
 0003:000452b4       _c_yes                     102072b4     <common>
 0003:000452c4       _new_bad                   102072c4     <common>
 0003:000452c8       _c_no                      102072c8     <common>
 0003:000452cc       _orig_yaw_speed            102072cc     <common>
 0003:000452d8       _box_cells                 102072d8     <common>
 0003:00045370       _grenade_radius            10207370     <common>
 0003:00045374       _tesla_radius              10207374     <common>
 0003:00045378       _tesla_health              10207378     <common>
 0003:0004537c       _shockwave_rdamage         1020737c     <common>
 0003:00045380       _max_fuel                  10207380     <common>
 0003:00045384       _tesla_damage              10207384     <common>
 0003:00045388       _hyperblaster_damage       10207388     <common>
 0003:0004538c       _bando_bullets             1020738c     <common>
 0003:00045390       _box_grenades              10207390     <common>
 0003:00045394       _pack_grenades             10207394     <common>
 0003:00045398       _max_rounds                10207398     <common>
 0003:0004539c       _etf_rifle_radius          1020739c     <common>
 0003:000453a0       _machinegun_damage         102073a0     <common>
 0003:000453a4       _disruptor_damage          102073a4     <common>
 0003:000453a8       _silencer_shots            102073a8     <common>
 0003:000453ac       _prox_speed                102073ac     <common>
 0003:000453b0       _hand_grenade_radius       102073b0     <common>
 0003:000453b4       _machinegun_vspread        102073b4     <common>
 0003:000453b8       _max_armor                 102073b8     <common>
 0003:000453bc       _hand_grenade_damage       102073bc     <common>
 0003:000453c0       _nuke_max                  102073c0     <common>
 0003:000453c4       _max_foodcube_health       102073c4     <common>
 0003:000453c8       _rocket_damage2            102073c8     <common>
 0003:000453cc       _double_time               102073cc     <common>
 0003:000453d0       _etf_rifle_damage          102073d0     <common>
 0003:000453d4       _defender_time             102073d4     <common>
 0003:000453d8       _prox_damage               102073d8     <common>
 0003:000453dc       _box_bullets               102073dc     <common>
 0003:000453e0       _max_rockets               102073e0     <common>
 0003:000453e4       _nuke_life                 102073e4     <common>
 0003:000453e8       _use_vwep                  102073e8     <common>
 0003:000453ec       _pack_traps                102073ec     <common>
 0003:000453f0       _player_max_speed          102073f0     <common>
 0003:000453f4       _player_accel              102073f4     <common>
 0003:000453f8       _bando_slugs               102073f8     <common>
 0003:000453fc       _nbomb_delay               102073fc     <common>
 0003:00045400       _enviro_time               10207400     <common>
 0003:00045404       _max_traps                 10207404     <common>
 0003:00045408       _armor_bonus_value         10207408     <common>
 0003:0004540c       _phalanx_damage            1020740c     <common>
 0003:00045410       _ionripper_speed           10207410     <common>
 0003:00045414       _doppleganger_max          10207414     <common>
 0003:00045418       _phalanx_radius            10207418     <common>
 0003:0004541c       _machinegun_hspread        1020741c     <common>
 0003:00045420       _blaster_color             10207420     <common>
 0003:00045424       _max_grenades              10207424     <common>
 0003:00045428       _max_health                10207428     <common>
 0003:0004542c       _nuke_delay                1020742c     <common>
 0003:00045430       _nbomb_life                10207430     <common>
 0003:00045434       _player_crouch_speed       10207434     <common>
 0003:00045438       _max_slugs                 10207438     <common>
 0003:0004543c       _disruptor_speed           1020743c     <common>
 0003:00045440       _grenade_damage            10207440     <common>
 0003:00045444       _sshotgun_damage           10207444     <common>
 0003:00045448       _shotgun_damage            10207448     <common>
 0003:0004544c       _shotgun_hspread           1020744c     <common>
 0003:00045450       _sshotgun_count            10207450     <common>
 0003:00045454       _mp_monster_replace        10207454     <common>
 0003:00045458       _grenade_speed             10207458     <common>
 0003:0004545c       _ir_time                   1020745c     <common>
 0003:00045460       _max_cells                 10207460     <common>
 0003:00045464       _rail_color                10207464     <common>
 0003:00045468       _max_flechettes            10207468     <common>
 0003:0004546c       _max_shells                1020746c     <common>
 0003:00045470       _bando_shells              10207470     <common>
 0003:00045474       _pack_cells                10207474     <common>
 0003:00045478       _chainfist_damage          10207478     <common>
 0003:0004547c       _pack_tesla                1020747c     <common>
 0003:00045480       _pack_shells               10207480     <common>
 0003:00045484       _box_prox                  10207484     <common>
 0003:00045488       _rocket_radius             10207488     <common>
 0003:0004548c       _breather_time             1020748c     <common>
 0003:00045490       _prox_health               10207490     <common>
 0003:00045494       _chaingun_hspread          10207494     <common>
 0003:00045498       _sshotgun_hspread          10207498     <common>
 0003:0004549c       _doppleganger_time         1020749c     <common>
 0003:000454a0       _prox_radius               102074a0     <common>
 0003:000454a4       _rocket_speed              102074a4     <common>
 0003:000454a8       _tpp_auto                  102074a8     <common>
 0003:000454ac       _shotgun_count             102074ac     <common>
 0003:000454b0       _box_fuel                  102074b0     <common>
 0003:000454b4       _phalanx_speed             102074b4     <common>
 0003:000454b8       _box_shells                102074b8     <common>
 0003:000454bc       _pack_fuel                 102074bc     <common>
 0003:000454c0       _max_magslugs              102074c0     <common>
 0003:000454c4       _jump_kick_damage          102074c4     <common>
 0003:000454c8       _mega_gibs                 102074c8     <common>
 0003:000454cc       _max_prox                  102074cc     <common>
 0003:000454d0       _bando_magslugs            102074d0     <common>
 0003:000454d4       _blaster_damage            102074d4     <common>
 0003:000454d8       _max_bullets               102074d8     <common>
 0003:000454dc       _hunter_time               102074dc     <common>
 0003:000454e0       _quad_time                 102074e0     <common>
 0003:000454e4       _falling_armor_damage      102074e4     <common>
 0003:000454e8       _railgun_damage            102074e8     <common>
 0003:000454ec       _shockwave_damage          102074ec     <common>
 0003:000454f0       _max_tesla                 102074f0     <common>
 0003:000454f4       _shockwave_effect_damage   102074f4     <common>
 0003:000454f8       _prox_life                 102074f8     <common>
 0003:000454fc       _box_trap                  102074fc     <common>
 0003:00045500       _box_disruptors            10207500     <common>
 0003:00045504       _pack_health               10207504     <common>
 0003:00045508       _nuke_radius               10207508     <common>
 0003:0004550c       _player_jump_sounds        1020750c     <common>
 0003:00045510       _shotgun_vspread           10207510     <common>
 0003:00045514       _pack_flechettes           10207514     <common>
 0003:00045518       _bando_rounds              10207518     <common>
 0003:0004551c       _vengeance_health_threshold 1020751c     <common>
 0003:00045520       _shockwave_damage2         10207520     <common>
 0003:00045524       _defender_blaster_speed    10207524     <common>
 0003:00045528       _kamikaze_flyer_replace    10207528     <common>
 0003:0004552c       _bfg_damage2               1020752c     <common>
 0003:00045530       _bando_cells               10207530     <common>
 0003:00045534       _etf_rifle_speed           10207534     <common>
 0003:00045538       _shockwave_effect_radius   10207538     <common>
 0003:0004553c       _phalanx_damage2           1020753c     <common>
 0003:00045540       _vengeance_time            10207540     <common>
 0003:00045544       _nbomb_damage              10207544     <common>
 0003:00045548       _hyperblaster_color        10207548     <common>
 0003:0004554c       _pack_give_rogue_ammo      1020754c     <common>
 0003:00045550       _shockwave_speed           10207550     <common>
 0003:00045554       _bfg_speed                 10207554     <common>
 0003:00045558       _quad_fire_time            10207558     <common>
 0003:0004555c       _stasis_time               1020755c     <common>
 0003:00045560       _bando_fuel                10207560     <common>
 0003:00045564       _box_tesla                 10207564     <common>
 0003:00045568       _rocket_rdamage            10207568     <common>
 0003:0004556c       _box_magslugs              1020756c     <common>
 0003:00045570       _pack_rounds               10207570     <common>
 0003:00045574       _bfg_rdamage               10207574     <common>
 0003:00045578       _chaingun_vspread          10207578     <common>
 0003:0004557c       _nbomb_radius              1020757c     <common>
 0003:00045580       _box_shocksphere           10207580     <common>
 0003:00045584       _shockwave_bounces         10207584     <common>
 0003:00045588       _pack_rockets              10207588     <common>
 0003:0004558c       _trap_life                 1020758c     <common>
 0003:00045590       _pack_prox                 10207590     <common>
 0003:00045594       _phalanx_radius_damage     10207594     <common>
 0003:00045598       _mp_monster_ammo_replace   10207598     <common>
 0003:0004559c       _pack_magslugs             1020759c     <common>
 0003:000455a0       _defender_blaster_damage   102075a0     <common>
 0003:000455a4       _trap_health               102075a4     <common>
 0003:000455a8       _adjust_train_corners      102075a8     <common>
 0003:000455ac       _etf_rifle_radius_damage   102075ac     <common>
 0003:000455b0       _pack_bullets              102075b0     <common>
 0003:000455b4       _chaingun_damage           102075b4     <common>
 0003:000455b8       _bfg_damage                102075b8     <common>
 0003:000455bc       _box_flechettes            102075bc     <common>
 0003:000455c0       _blaster_speed             102075c0     <common>
 0003:000455c4       _player_stopspeed          102075c4     <common>
 0003:000455c8       _box_slugs                 102075c8     <common>
 0003:000455cc       _allow_player_use_abandoned_turret 102075cc     <common>
 0003:000455d0       _sshotgun_vspread          102075d0     <common>
 0003:000455d4       _pack_give_xatrix_ammo     102075d4     <common>
 0003:000455d8       _ion_ripper_extra_sounds   102075d8     <common>
 0003:000455dc       _health_bonus_value        102075dc     <common>
 0003:000455e0       _tesla_life                102075e0     <common>
 0003:000455e4       _inv_time                  102075e4     <common>
 0003:000455e8       _plasmabeam_damage         102075e8     <common>
 0003:000455ec       _bando_flechettes          102075ec     <common>
 0003:000455f0       _pack_armor                102075f0     <common>
 0003:000455f4       _powerup_max               102075f4     <common>
 0003:000455f8       _add_velocity_throw        102075f8     <common>
 0003:000455fc       _nbomb_max                 102075fc     <common>
 0003:00045600       _max_shocksphere           10207600     <common>
 0003:00045604       _hyperblaster_speed        10207604     <common>
 0003:00045608       _box_rockets               10207608     <common>
 0003:0004560c       _pack_shocksphere          1020760c     <common>
 0003:00045610       _shockwave_radius          10207610     <common>
 0003:00045614       _bfg_radius                10207614     <common>
 0003:00045618       _rocket_damage             10207618     <common>
 0003:0004561c       _pack_slugs                1020761c     <common>
 0003:00045620       _ionripper_damage          10207620     <common>
 0003:00045624       _numipfilters              10207624     <common>
 0003:00045ca0       _ipfilters                 10207ca0     <common>
 0003:00047ca0       _alias_data                10209ca0     <common>
 0003:00047cb0       _alias_data_size           10209cb0     <common>
 0003:00047cb4       _FSOUND_StopSound          10209cb4     <common>
 0003:00047cdc       _FSOUND_IsPlaying          10209cdc     <common>
 0003:00047ce0       _FSOUND_Close              10209ce0     <common>
 0003:00047ce4       _FSOUND_GetVolume          10209ce4     <common>
 0003:00047ce8       _FSOUND_Stream_GetLengthMs 10209ce8     <common>
 0003:00047cec       _FMUSIC_FreeSong           10209cec     <common>
 0003:00047cf0       _FSOUND_3D_Listener_SetDopplerFactor 10209cf0     <common>
 0003:00047cf4       _FSOUND_PlaySound3DAttrib  10209cf4     <common>
 0003:00047cf8       _FSOUND_Sample_Load        10209cf8     <common>
 0003:00047cfc       _FMUSIC_GetMasterVolume    10209cfc     <common>
 0003:00047d00       _FSOUND_Stream_OpenFile    10209d00     <common>
 0003:00047d04       _FMUSIC_PlaySong           10209d04     <common>
 0003:00047d08       _FSOUND_Stream_Close       10209d08     <common>
 0003:00047d0c       _FSOUND_SetOutput          10209d0c     <common>
 0003:00047d10       _FSOUND_Reverb_SetMix      10209d10     <common>
 0003:00047d14       _FSOUND_Init               10209d14     <common>
 0003:00047d18       _FSOUND_Stream_Play3DAttrib 10209d18     <common>
 0003:00047d1c       _FSOUND_Sample_Free        10209d1c     <common>
 0003:00047d20       _FMUSIC_LoadSong           10209d20     <common>
 0003:00047d24       _FSOUND_SetVolume          10209d24     <common>
 0003:00047d28       _FMUSIC_SetMasterVolume    10209d28     <common>
 0003:00047d2c       _FSOUND_Sample_SetMinMaxDistance 10209d2c     <common>
 0003:00047d30       _FSOUND_3D_SetAttributes   10209d30     <common>
 0003:00047d34       _FSOUND_3D_Update          10209d34     <common>
 0003:00047d38       _FMUSIC_IsPlaying          10209d38     <common>
 0003:00047d3c       _FSOUND_Stream_Play        10209d3c     <common>
 0003:00047d40       _FSOUND_3D_Listener_SetRolloffFactor 10209d40     <common>
 0003:00047d44       _FSOUND_Stream_SetEndCallback 10209d44     <common>
 0003:00047d48       _FMUSIC_StopSong           10209d48     <common>
 0003:00047d4c       _FMUSIC_StopAllSongs       10209d4c     <common>
 0003:00047d50       _FSOUND_3D_Listener_SetDistanceFactor 10209d50     <common>
 0003:00047d54       _FSOUND_GetError           10209d54     <common>
 0003:00047d58       _FSOUND_3D_Listener_SetAttributes 10209d58     <common>
 0003:00047d60       _mmove_reloc               10209d60     <common>
 0003:00047d7c       _wasonground               10209d7c     <common>
 0003:00054a58       _blocker                   10216a58     <common>
 0003:00054a5c       _onconveyor                10216a5c     <common>
 0003:00054a60       _obstacle                  10216a60     <common>
 0003:00054a80       _pushed                    10216a80     <common>
 0003:00094a80       _pushed_p                  10256a80     <common>
 0003:00094aa0       _DMGame                    10256aa0     <common>
 0003:00094b00       _hint_path_start           10256b00     <common>
 0003:00094cec       _hint_paths_present        10256cec     <common>
 0003:00094cf0       _num_hint_paths            10256cf0     <common>
 0003:00094cf4       _dedicated                 10256cf4     <common>
 0003:00094f4c       _gl_driver                 10256f4c     <common>
 0003:00094f50       _fov                       10256f50     <common>
 0003:00094f54       _sv_rollangle              10256f54     <common>
 0003:00094f58       _sv_maxgibs                10256f58     <common>
 0003:00094f5c       _bob_roll                  10256f5c     <common>
 0003:00094f60       _run_roll                  10256f60     <common>
 0003:00094f64       _bob_pitch                 10256f64     <common>
 0003:00094f68       _fraglimit                 10256f68     <common>
 0003:00094f6c       _maxspectators             10256f6c     <common>
 0003:00094f70       _huntercam                 10256f70     <common>
 0003:00094f74       _rotate_distance           10256f74     <common>
 0003:00094f78       _lazarus_gl_clear          10256f78     <common>
 0003:00094f7c       _snd_fry                   10256f7c     <common>
 0003:00094f80       _corpse_fadetime           10256f80     <common>
 0003:00094f84       _lazarus_pitch             10256f84     <common>
 0003:00094f88       _randomrespawn             10256f88     <common>
 0003:00094f8c       _joy_yawsensitivity        10256f8c     <common>
 0003:00094f90       _sv_stopspeed              10256f90     <common>
 0003:00094f94       _joy_pitchsensitivity      10256f94     <common>
 0003:00094f98       _gl_driver_fog             10256f98     <common>
 0003:00094fa0       _game                      10256fa0     <common>
 0003:000955d4       _lazarus_joyy              102575d4     <common>
 0003:000955d8       _spectator_password        102575d8     <common>
 0003:000955dc       _cl_gun                    102575dc     <common>
 0003:000955e0       _flood_persecond           102575e0     <common>
 0003:000955e4       _max_soundindex            102575e4     <common>
 0003:000955e8       _sm_meat_index             102575e8     <common>
 0003:000955ec       _bob_up                    102575ec     <common>
 0003:000955f0       _flood_msgs                102575f0     <common>
 0003:000955f4       _lazarus_cd_loop           102575f4     <common>
 0003:000955f8       _lazarus_yaw               102575f8     <common>
 0003:000955fc       _cd_loopcount              102575fc     <common>
 0003:00095600       _gun_y                     10257600     <common>
 0003:00095604       _tpp                       10257604     <common>
 0003:00095608       _m_yaw                     10257608     <common>
 0003:0009560c       _actorjump                 1025760c     <common>
 0003:00095610       _lazarus_cl_gun            10257610     <common>
 0003:00095614       _strong_mines              10257614     <common>
 0003:00095618       _allow_fog                 10257618     <common>
 0003:0009561c       _m_pitch                   1025761c     <common>
 0003:00095620       _vid_ref                   10257620     <common>
 0003:00095624       _sv_cheats                 10257624     <common>
 0003:00095628       _sv_maxvelocity            10257628     <common>
 0003:0009562c       _actorchicken              1025762c     <common>
 0003:00095630       _s_primary                 10257630     <common>
 0003:00095634       _alert_sounds              10257634     <common>
 0003:00095638       _allow_download            10257638     <common>
 0003:0009563c       _g_edicts                  1025763c     <common>
 0003:00095640       _bounce_minv               10257640     <common>
 0003:00095644       _footstep_sounds           10257644     <common>
 0003:00095648       _jetpack_weenie            10257648     <common>
 0003:0009564c       _gun_z                     1025764c     <common>
 0003:00095650       _jump_kick                 10257650     <common>
 0003:00095654       _cl_thirdperson            10257654     <common>
 0003:00095658       _g_showlogic               10257658     <common>
 0003:0009565c       _sv_gravity                1025765c     <common>
 0003:00095660       _max_modelindex            10257660     <common>
 0003:00095664       _fmod_nomusic              10257664     <common>
 0003:00095668       _crossh                    10257668     <common>
 0003:0009566c       _bounce_bounce             1025766c     <common>
 0003:00095670       _lights                    10257670     <common>
 0003:00095674       _sv_rollspeed              10257674     <common>
 0003:00095678       _zoomsnap                  10257678     <common>
 0003:0009567c       _deathmatch                1025767c     <common>
 0003:00095680       _readout                   10257680     <common>
 0003:00095684       _lazarus_crosshair         10257684     <common>
 0003:00095688       _corpse_fade               10257688     <common>
 0003:0009568c       _maxclients                1025768c     <common>
 0003:00095690       _actorscram                10257690     <common>
 0003:00095694       _coop                      10257694     <common>
 0003:00095698       _rocket_strafe             10257698     <common>
 0003:000956a0       _st                        102576a0     <common>
 0003:000956ec       _allow_clear_inventory     102576ec     <common>
 0003:00095700       _RealFunc                  10257700     <common>
 0003:000957bc       _run_pitch                 102577bc     <common>
 0003:000957c0       _timelimit                 102577c0     <common>
 0003:000957c4       _gamerules                 102577c4     <common>
 0003:000957c8       _shift_distance            102577c8     <common>
 0003:000957cc       _sv_maplist                102577cc     <common>
 0003:000957d0       _dmflags                   102577d0     <common>
 0003:000957d4       _password                  102577d4     <common>
 0003:000957d8       _gl_clear                  102577d8     <common>
 0003:000957dc       _turn_rider                102577dc     <common>
 0003:000957e0       _hand                      102577e0     <common>
 0003:000957e4       _lazarus_joyp              102577e4     <common>
 0003:000957e8       _developer                 102577e8     <common>
 0003:000957ec       _filterban                 102577ec     <common>
 0003:000957f0       _skill                     102577f0     <common>
 0003:000957f4       _meansOfDeath              102577f4     <common>
 0003:000957f8       _monsterjump               102577f8     <common>
 0003:000957fc       _packet_fmod_playback      102577fc     <common>
 0003:00095800       _g_select_empty            10257800     <common>
 0003:00095804       _zoomrate                  10257804     <common>
 0003:00095808       _lightsmin                 10257808     <common>
 0003:0009580c       _flood_waitdelay           1025780c     <common>
 0003:00095820       _globals                   10257820     <common>
 0003:00095870       _maxentities               10257870     <common>
 0003:00095874       _crosshair                 10257874     <common>
 0003:00095880       _gi                        10257880     <common>
 0003:00095940       _level                     10257940     <common>
 0003:00095aec       _gun_x                     10257aec     <common>
 0003:00095af0       _cells_index               10257af0     <common>
 0003:00095b0c       _hml_index                 10257b0c     <common>
 0003:00095b10       _magslug_index             10257b10     <common>
 0003:00095b14       _tesla_index               10257b14     <common>
 0003:00095b18       _pl_index                  10257b18     <common>
 0003:00095b1c       _noweapon_index            10257b1c     <common>
 0003:00095b20       _bullets_index             10257b20     <common>
 0003:00095b24       _disruptors_index          10257b24     <common>
 0003:00095b28       _flechettes_index          10257b28     <common>
 0003:00095b2c       _prox_index                10257b2c     <common>
 0003:00095b30       _shells_index              10257b30     <common>
 0003:00095b34       _shocksphere_index         10257b34     <common>
 0003:00095b38       _rl_index                  10257b38     <common>
 0003:00095b3c       _rockets_index             10257b3c     <common>
 0003:00095b40       _fuel_index                10257b40     <common>
 0003:00095b44       _homing_index              10257b44     <common>
 0003:00095b48       _trap_index                10257b48     <common>
 0003:00095b4c       _slugs_index               10257b4c     <common>
 0003:00095b50       _grenades_index            10257b50     <common>
 0003:00095b54       _GL_glEnable               10257b54     <common>
 0003:00095c44       _InTriggerFog              10257c44     <common>
 0003:00095c48       _GL_glFogi                 10257c48     <common>
 0003:00095c4c       _GL_glFogf                 10257c4c     <common>
 0003:00095c50       _GL_glHint                 10257c50     <common>
 0003:00095c54       _last_software_frame       10257c54     <common>
 0003:00095c60       _fade_fog                  10257c60     <common>
 0003:00095c9c       _pfog                      10257c9c     <common>
 0003:00095ca0       _trig_fade_fog             10257ca0     <common>
 0003:00095ce0       _gfogs                     10257ce0     <common>
 0003:000960a0       _GL_glClearColor           102580a0     <common>
 0003:000960a4       _last_opengl_frame         102580a4     <common>
 0003:000960a8       _GL_glDisable              102580a8     <common>
 0003:000960ac       _GL_glFogfv                102580ac     <common>
 0003:000960b0       _hOpenGL                   102580b0     <common>
 0003:000960b4       _enemy_infront             102580b4     <common>
 0003:000960c4       _enemy_range               102580c4     <common>
 0003:000960c8       _enemy_yaw                 102580c8     <common>
 0003:000960cc       _enemy_vis                 102580cc     <common>
 0003:000960d0       _tag_count                 102580d0     <common>
 0003:000960e0       _tag_token                 102580e0     <common>
 0003:000960e4       _tag_owner                 102580e4     <common>
 0003:000960e8       _dball_team2_goalscore     102580e8     <common>
 0003:000960ec       _dball_ball_startpt_count  102580ec     <common>
 0003:000960f0       _dball_team2_skin          102580f0     <common>
 0003:000960f4       _goallimit                 102580f4     <common>
 0003:000960f8       _dball_team1_goalscore     102580f8     <common>
 0003:000960fc       _dball_team1_skin          102580fc     <common>
 0003:00096100       __pfnReportHook            10258100     <common>
 0003:00096110       __pReportHookListW         10258110     <common>
 0003:00096114       __pReportHookList          10258114     <common>
 0003:00096118       ___sbh_initialized         10258118     <common>
 0003:0009612c       ___sbh_cntHeaderList       1025812c     <common>
 0003:00096130       ___sbh_pHeaderList         10258130     <common>
 0003:00096134       ___sbh_threshold           10258134     <common>
 0003:00096138       ___sbh_pHeaderScan         10258138     <common>
 0003:0009613c       ___sbh_sizeHeaderList      1025813c     <common>
 0003:00096140       ___sbh_indGroupDefer       10258140     <common>
 0003:00096144       __debugger_hook_dummy      10258144     <common>
 0003:00096150       ___active_heap             10258150     <common>
 0003:0009615c       ___env_initialized         1025815c     <common>
 0003:0009616c       ___onexitend               1025816c     <common>
 0003:00096170       ___onexitbegin             10258170     <common>
 0003:00096174       ___mbctype_initialized     10258174     <common>
 0003:00096178       ___dyn_tls_init_callback   10258178     <common>
 0003:0009617c       __nhandle                  1025817c     <common>
 0003:000961c0       ___pioinfo                 102581c0     <common>
 0003:000962c0       ___piob                    102582c0     <common>
 0003:00096600       __bufin                    10258600     <common>
 0003:00097600       __nstream                  10259600     <common>
 0003:00097604       ___setlc_active            10259604     <common>
 0003:00097614       ___unguarded_readlc_active 10259614     <common>
 0003:00097618       ___use_sse2_mathfcns       10259618     <common>
 0003:00097624       __pmatherr                 10259624     <common>
 0003:00097630       ___sse2_available          10259630     <common>
 0003:0009763c       __acmdln                   1025963c     <common>
 0004:00000000       __IMPORT_DESCRIPTOR_KERNEL32 1025a000     kernel32:KERNEL32.dll
 0004:00000014       __NULL_IMPORT_DESCRIPTOR   1025a014     kernel32:KERNEL32.dll
 0004:00000228       __imp__GetProcAddress@8    1025a228     kernel32:KERNEL32.dll
 0004:0000022c       __imp__LoadLibraryA@4      1025a22c     kernel32:KERNEL32.dll
 0004:00000230       __imp__FreeLibrary@4       1025a230     kernel32:KERNEL32.dll
 0004:00000234       __imp__GetSystemTimeAsFileTime@4 1025a234     kernel32:KERNEL32.dll
 0004:00000238       __imp__GetLastError@0      1025a238     kernel32:KERNEL32.dll
 0004:0000023c       __imp__CreateDirectoryA@8  1025a23c     kernel32:KERNEL32.dll
 0004:00000240       __imp__GetModuleFileNameW@12 1025a240     kernel32:KERNEL32.dll
 0004:00000244       __imp__WriteConsoleW@20    1025a244     kernel32:KERNEL32.dll
 0004:00000248       __imp__GetFileType@4       1025a248     kernel32:KERNEL32.dll
 0004:0000024c       __imp__GetStdHandle@4      1025a24c     kernel32:KERNEL32.dll
 0004:00000250       __imp__GetCurrentThreadId@0 1025a250     kernel32:KERNEL32.dll
 0004:00000254       __imp__GetCommandLineA@0   1025a254     kernel32:KERNEL32.dll
 0004:00000258       __imp__GetModuleHandleA@4  1025a258     kernel32:KERNEL32.dll
 0004:0000025c       __imp__TerminateProcess@8  1025a25c     kernel32:KERNEL32.dll
 0004:00000260       __imp__GetCurrentProcess@0 1025a260     kernel32:KERNEL32.dll
 0004:00000264       __imp__UnhandledExceptionFilter@4 1025a264     kernel32:KERNEL32.dll
 0004:00000268       __imp__SetUnhandledExceptionFilter@4 1025a268     kernel32:KERNEL32.dll
 0004:0000026c       __imp__IsDebuggerPresent@0 1025a26c     kernel32:KERNEL32.dll
 0004:00000270       __imp__TlsGetValue@4       1025a270     kernel32:KERNEL32.dll
 0004:00000274       __imp__GetModuleHandleW@4  1025a274     kernel32:KERNEL32.dll
 0004:00000278       __imp__TlsAlloc@0          1025a278     kernel32:KERNEL32.dll
 0004:0000027c       __imp__TlsSetValue@8       1025a27c     kernel32:KERNEL32.dll
 0004:00000280       __imp__TlsFree@4           1025a280     kernel32:KERNEL32.dll
 0004:00000284       __imp__InterlockedIncrement@4 1025a284     kernel32:KERNEL32.dll
 0004:00000288       __imp__SetLastError@4      1025a288     kernel32:KERNEL32.dll
 0004:0000028c       __imp__InterlockedDecrement@4 1025a28c     kernel32:KERNEL32.dll
 0004:00000290       __imp__GetCurrentThread@0  1025a290     kernel32:KERNEL32.dll
 0004:00000294       __imp__HeapValidate@12     1025a294     kernel32:KERNEL32.dll
 0004:00000298       __imp__IsBadReadPtr@8      1025a298     kernel32:KERNEL32.dll
 0004:0000029c       __imp__RaiseException@16   1025a29c     kernel32:KERNEL32.dll
 0004:000002a0       __imp__GetACP@0            1025a2a0     kernel32:KERNEL32.dll
 0004:000002a4       __imp__GetOEMCP@0          1025a2a4     kernel32:KERNEL32.dll
 0004:000002a8       __imp__GetCPInfo@8         1025a2a8     kernel32:KERNEL32.dll
 0004:000002ac       __imp__IsValidCodePage@4   1025a2ac     kernel32:KERNEL32.dll
 0004:000002b0       __imp__WideCharToMultiByte@32 1025a2b0     kernel32:KERNEL32.dll
 0004:000002b4       __imp__GetTimeZoneInformation@4 1025a2b4     kernel32:KERNEL32.dll
 0004:000002b8       __imp__EnterCriticalSection@4 1025a2b8     kernel32:KERNEL32.dll
 0004:000002bc       __imp__LeaveCriticalSection@4 1025a2bc     kernel32:KERNEL32.dll
 0004:000002c0       __imp__WriteFile@20        1025a2c0     kernel32:KERNEL32.dll
 0004:000002c4       __imp__GetConsoleCP@0      1025a2c4     kernel32:KERNEL32.dll
 0004:000002c8       __imp__GetConsoleMode@8    1025a2c8     kernel32:KERNEL32.dll
 0004:000002cc       __imp__SetFilePointer@16   1025a2cc     kernel32:KERNEL32.dll
 0004:000002d0       __imp__MultiByteToWideChar@24 1025a2d0     kernel32:KERNEL32.dll
 0004:000002d4       __imp__ReadFile@20         1025a2d4     kernel32:KERNEL32.dll
 0004:000002d8       __imp__CloseHandle@4       1025a2d8     kernel32:KERNEL32.dll
 0004:000002dc       __imp__RtlUnwind@16        1025a2dc     kernel32:KERNEL32.dll
 0004:000002e0       __imp__SetHandleCount@4    1025a2e0     kernel32:KERNEL32.dll
 0004:000002e4       __imp__GetStartupInfoA@4   1025a2e4     kernel32:KERNEL32.dll
 0004:000002e8       __imp__DeleteCriticalSection@4 1025a2e8     kernel32:KERNEL32.dll
 0004:000002ec       __imp__FlushFileBuffers@4  1025a2ec     kernel32:KERNEL32.dll
 0004:000002f0       __imp__FatalAppExitA@8     1025a2f0     kernel32:KERNEL32.dll
 0004:000002f4       __imp__Sleep@4             1025a2f4     kernel32:KERNEL32.dll
 0004:000002f8       __imp__ExitProcess@4       1025a2f8     kernel32:KERNEL32.dll
 0004:000002fc       __imp__SetConsoleCtrlHandler@8 1025a2fc     kernel32:KERNEL32.dll
 0004:00000300       __imp__LoadLibraryW@4      1025a300     kernel32:KERNEL32.dll
 0004:00000304       __imp__GetModuleFileNameA@12 1025a304     kernel32:KERNEL32.dll
 0004:00000308       __imp__FreeEnvironmentStringsA@4 1025a308     kernel32:KERNEL32.dll
 0004:0000030c       __imp__GetEnvironmentStrings@0 1025a30c     kernel32:KERNEL32.dll
 0004:00000310       __imp__FreeEnvironmentStringsW@4 1025a310     kernel32:KERNEL32.dll
 0004:00000314       __imp__GetEnvironmentStringsW@0 1025a314     kernel32:KERNEL32.dll
 0004:00000318       __imp__HeapDestroy@4       1025a318     kernel32:KERNEL32.dll
 0004:0000031c       __imp__HeapCreate@12       1025a31c     kernel32:KERNEL32.dll
 0004:00000320       __imp__HeapFree@12         1025a320     kernel32:KERNEL32.dll
 0004:00000324       __imp__VirtualFree@12      1025a324     kernel32:KERNEL32.dll
 0004:00000328       __imp__QueryPerformanceCounter@4 1025a328     kernel32:KERNEL32.dll
 0004:0000032c       __imp__GetTickCount@0      1025a32c     kernel32:KERNEL32.dll
 0004:00000330       __imp__GetCurrentProcessId@0 1025a330     kernel32:KERNEL32.dll
 0004:00000334       __imp__HeapAlloc@12        1025a334     kernel32:KERNEL32.dll
 0004:00000338       __imp__HeapSize@12         1025a338     kernel32:KERNEL32.dll
 0004:0000033c       __imp__HeapReAlloc@16      1025a33c     kernel32:KERNEL32.dll
 0004:00000340       __imp__VirtualAlloc@16     1025a340     kernel32:KERNEL32.dll
 0004:00000344       __imp__DebugBreak@0        1025a344     kernel32:KERNEL32.dll
 0004:00000348       __imp__OutputDebugStringA@4 1025a348     kernel32:KERNEL32.dll
 0004:0000034c       __imp__OutputDebugStringW@4 1025a34c     kernel32:KERNEL32.dll
 0004:00000350       __imp__GetStringTypeA@20   1025a350     kernel32:KERNEL32.dll
 0004:00000354       __imp__GetStringTypeW@16   1025a354     kernel32:KERNEL32.dll
 0004:00000358       __imp__LCMapStringA@24     1025a358     kernel32:KERNEL32.dll
 0004:0000035c       __imp__LCMapStringW@24     1025a35c     kernel32:KERNEL32.dll
 0004:00000360       __imp__GetTimeFormatA@24   1025a360     kernel32:KERNEL32.dll
 0004:00000364       __imp__GetDateFormatA@24   1025a364     kernel32:KERNEL32.dll
 0004:00000368       __imp__GetLocaleInfoA@16   1025a368     kernel32:KERNEL32.dll
 0004:0000036c       __imp__IsValidLocale@8     1025a36c     kernel32:KERNEL32.dll
 0004:00000370       __imp__EnumSystemLocalesA@8 1025a370     kernel32:KERNEL32.dll
 0004:00000374       __imp__GetUserDefaultLCID@0 1025a374     kernel32:KERNEL32.dll
 0004:00000378       __imp__SetStdHandle@8      1025a378     kernel32:KERNEL32.dll
 0004:0000037c       __imp__WriteConsoleA@20    1025a37c     kernel32:KERNEL32.dll
 0004:00000380       __imp__GetConsoleOutputCP@0 1025a380     kernel32:KERNEL32.dll
 0004:00000384       __imp__CreateFileA@28      1025a384     kernel32:KERNEL32.dll
 0004:00000388       __imp__InitializeCriticalSectionAndSpinCount@8 1025a388     kernel32:KERNEL32.dll
 0004:0000038c       __imp__InterlockedExchange@8 1025a38c     kernel32:KERNEL32.dll
 0004:00000390       __imp__lstrlenA@4          1025a390     kernel32:KERNEL32.dll
 0004:00000394       __imp__SetEndOfFile@4      1025a394     kernel32:KERNEL32.dll
 0004:00000398       __imp__GetProcessHeap@0    1025a398     kernel32:KERNEL32.dll
 0004:0000039c       __imp__GetLocaleInfoW@16   1025a39c     kernel32:KERNEL32.dll
 0004:000003a0       __imp__VirtualQuery@12     1025a3a0     kernel32:KERNEL32.dll
 0004:000003a4       __imp__CompareStringA@24   1025a3a4     kernel32:KERNEL32.dll
 0004:000003a8       __imp__CompareStringW@24   1025a3a8     kernel32:KERNEL32.dll
 0004:000003ac       __imp__SetEnvironmentVariableA@8 1025a3ac     kernel32:KERNEL32.dll
 0004:000003b0       \177KERNEL32_NULL_THUNK_DATA 1025a3b0     kernel32:KERNEL32.dll

 entry point at        0001:00130100

